ARM GAS  /tmp/cc1Orh3w.s 			page 1


   1              		.syntax unified
   2              		.cpu cortex-m4
   3              		.eabi_attribute 27, 1
   4              		.eabi_attribute 28, 1
   5              		.fpu fpv4-sp-d16
   6              		.eabi_attribute 20, 1
   7              		.eabi_attribute 21, 1
   8              		.eabi_attribute 23, 3
   9              		.eabi_attribute 24, 1
  10              		.eabi_attribute 25, 1
  11              		.eabi_attribute 26, 1
  12              		.eabi_attribute 30, 4
  13              		.eabi_attribute 34, 1
  14              		.eabi_attribute 18, 4
  15              		.thumb
  16              		.file	"malloc.c"
  17              		.text
  18              	.Ltext0:
  19              		.cfi_sections	.debug_frame
  20              		.section	.text.malloc_flags,"ax",%progbits
  21              		.align	1
  22              		.thumb
  23              		.thumb_func
  24              		.type	malloc_flags, %function
  25              	malloc_flags:
  26              	.LFB324:
  27              		.file 1 "../../libraries/AP_HAL_ChibiOS/hwdef/common/malloc.c"
  28              		.loc 1 91 0
  29              		.cfi_startproc
  30              		@ args = 0, pretend = 0, frame = 0
  31              		@ frame_needed = 0, uses_anonymous_args = 0
  32              	.LVL0:
  33 0000 70B5     		push	{r4, r5, r6, lr}
  34              		.cfi_def_cfa_offset 16
  35              		.cfi_offset 4, -16
  36              		.cfi_offset 5, -12
  37              		.cfi_offset 6, -8
  38              		.cfi_offset 14, -4
  39              		.loc 1 92 0
  40 0002 0546     		mov	r5, r0
  41 0004 A0B3     		cbz	r0, .L10
  42              	.LVL1:
  43              		.loc 1 100 0
  44 0006 11F00506 		ands	r6, r1, #5
  45 000a 05D0     		beq	.L3
  46              		.loc 1 102 0
  47 000c 0730     		adds	r0, r0, #7
  48              	.LVL2:
  49              		.loc 1 107 0
  50 000e 0129     		cmp	r1, #1
  51              		.loc 1 102 0
  52 0010 20F00705 		bic	r5, r0, #7
  53              	.LVL3:
  54              		.loc 1 107 0
  55 0014 1ED1     		bne	.L5
  56 0016 01E0     		b	.L4
  57              	.LVL4:
ARM GAS  /tmp/cc1Orh3w.s 			page 2


  58              	.L3:
  59 0018 0129     		cmp	r1, #1
  60 001a 07D8     		bhi	.L6
  61              	.LVL5:
  62              	.L4:
  63              		.loc 1 109 0
  64 001c 0020     		movs	r0, #0
  65 001e 2946     		mov	r1, r5
  66              	.LVL6:
  67 0020 0822     		movs	r2, #8
  68 0022 FFF7FEFF 		bl	chHeapAllocAligned
  69              	.LVL7:
  70              		.loc 1 110 0
  71 0026 0446     		mov	r4, r0
  72 0028 E0B9     		cbnz	r0, .L7
  73              	.LVL8:
  74              		.loc 1 121 0 discriminator 1
  75 002a 9EB9     		cbnz	r6, .L5
  76              	.LVL9:
  77              	.L6:
  78              		.loc 1 129 0
  79 002c 1248     		ldr	r0, .L20
  80 002e 2946     		mov	r1, r5
  81 0030 0822     		movs	r2, #8
  82 0032 FFF7FEFF 		bl	chHeapAllocAligned
  83              	.LVL10:
  84              		.loc 1 130 0
  85 0036 0446     		mov	r4, r0
  86 0038 A0B9     		cbnz	r0, .L7
  87              		.loc 1 138 0
  88 003a 0F48     		ldr	r0, .L20
  89              	.LVL11:
  90 003c 2946     		mov	r1, r5
  91 003e 0822     		movs	r2, #8
  92 0040 FFF7FEFF 		bl	chHeapAllocAligned
  93              	.LVL12:
  94              		.loc 1 139 0
  95 0044 0446     		mov	r4, r0
  96 0046 68B9     		cbnz	r0, .L7
  97              	.LVL13:
  98              		.loc 1 144 0
  99 0048 2946     		mov	r1, r5
 100 004a 0822     		movs	r2, #8
 101 004c FFF7FEFF 		bl	chHeapAllocAligned
 102              	.LVL14:
 103              		.loc 1 145 0
 104 0050 0446     		mov	r4, r0
 105 0052 38B9     		cbnz	r0, .L7
 106              	.LVL15:
 107              	.L5:
 108              		.loc 1 152 0
 109 0054 0948     		ldr	r0, .L20+4
 110 0056 2946     		mov	r1, r5
 111 0058 0822     		movs	r2, #8
 112 005a FFF7FEFF 		bl	chHeapAllocAligned
 113              	.LVL16:
 114              		.loc 1 153 0
ARM GAS  /tmp/cc1Orh3w.s 			page 3


 115 005e 0446     		mov	r4, r0
 116 0060 08B9     		cbnz	r0, .L18
 117 0062 06E0     		b	.L11
 118              	.L7:
 119              		.loc 1 163 0
 120 0064 2046     		mov	r0, r4
 121              	.L18:
 122 0066 0021     		movs	r1, #0
 123 0068 2A46     		mov	r2, r5
 124 006a FFF7FEFF 		bl	memset
 125              	.LVL17:
 126 006e 00E0     		b	.L11
 127              	.LVL18:
 128              	.L10:
 129 0070 70BD     		pop	{r4, r5, r6, pc}
 130              	.LVL19:
 131              	.L11:
 132              		.loc 1 160 0
 133 0072 2046     		mov	r0, r4
 134 0074 70BD     		pop	{r4, r5, r6, pc}
 135              	.LVL20:
 136              	.L21:
 137 0076 00BF     		.align	2
 138              	.L20:
 139 0078 1C000000 		.word	.LANCHOR0+28
 140 007c 00000000 		.word	.LANCHOR1
 141              		.cfi_endproc
 142              	.LFE324:
 143              		.size	malloc_flags, .-malloc_flags
 144              		.section	.text.malloc,"ax",%progbits
 145              		.align	1
 146              		.global	malloc
 147              		.thumb
 148              		.thumb_func
 149              		.type	malloc, %function
 150              	malloc:
 151              	.LFB325:
 152              		.loc 1 170 0
 153              		.cfi_startproc
 154              		@ args = 0, pretend = 0, frame = 0
 155              		@ frame_needed = 0, uses_anonymous_args = 0
 156              		@ link register save eliminated.
 157              	.LVL21:
 158              		.loc 1 171 0
 159 0000 0021     		movs	r1, #0
 160 0002 FFF7FEBF 		b	malloc_flags
 161              	.LVL22:
 162              		.cfi_endproc
 163              	.LFE325:
 164              		.size	malloc, .-malloc
 165              		.section	.text.malloc_dma,"ax",%progbits
 166              		.align	1
 167              		.global	malloc_dma
 168              		.thumb
 169              		.thumb_func
 170              		.type	malloc_dma, %function
 171              	malloc_dma:
ARM GAS  /tmp/cc1Orh3w.s 			page 4


 172              	.LFB326:
 173              		.loc 1 178 0
 174              		.cfi_startproc
 175              		@ args = 0, pretend = 0, frame = 0
 176              		@ frame_needed = 0, uses_anonymous_args = 0
 177              		@ link register save eliminated.
 178              	.LVL23:
 179              		.loc 1 179 0
 180 0000 0121     		movs	r1, #1
 181 0002 FFF7FEBF 		b	malloc_flags
 182              	.LVL24:
 183              		.cfi_endproc
 184              	.LFE326:
 185              		.size	malloc_dma, .-malloc_dma
 186              		.section	.text.malloc_init,"ax",%progbits
 187              		.align	1
 188              		.global	malloc_init
 189              		.thumb
 190              		.thumb_func
 191              		.type	malloc_init, %function
 192              	malloc_init:
 193              	.LFB323:
 194              		.loc 1 73 0
 195              		.cfi_startproc
 196              		@ args = 0, pretend = 0, frame = 0
 197              		@ frame_needed = 0, uses_anonymous_args = 0
 198              	.LVL25:
 199 0000 08B5     		push	{r3, lr}
 200              		.cfi_def_cfa_offset 8
 201              		.cfi_offset 3, -8
 202              		.cfi_offset 14, -4
 203              		.loc 1 76 0
 204 0002 4FF08051 		mov	r1, #268435456
 205 0006 4FF48032 		mov	r2, #65536
 206 000a 0748     		ldr	r0, .L25
 207 000c FFF7FEFF 		bl	chHeapObjectInit
 208              	.LVL26:
 209              		.loc 1 84 0
 210 0010 4FF48050 		mov	r0, #4096
 211 0014 FFF7FEFF 		bl	malloc_dma
 212              	.LVL27:
 213              		.loc 1 86 0
 214 0018 4FF48052 		mov	r2, #4096
 215              		.loc 1 84 0
 216 001c 0146     		mov	r1, r0
 217              	.LVL28:
 218              		.loc 1 88 0
 219 001e BDE80840 		pop	{r3, lr}
 220              		.cfi_restore 14
 221              		.cfi_restore 3
 222              		.cfi_def_cfa_offset 0
 223              		.loc 1 86 0
 224 0022 0248     		ldr	r0, .L25+4
 225              	.LVL29:
 226 0024 FFF7FEBF 		b	chHeapObjectInit
 227              	.LVL30:
 228              	.L26:
ARM GAS  /tmp/cc1Orh3w.s 			page 5


 229              		.align	2
 230              	.L25:
 231 0028 1C000000 		.word	.LANCHOR0+28
 232 002c 00000000 		.word	.LANCHOR1
 233              		.cfi_endproc
 234              	.LFE323:
 235              		.size	malloc_init, .-malloc_init
 236              		.section	.text.malloc_sdcard_dma,"ax",%progbits
 237              		.align	1
 238              		.global	malloc_sdcard_dma
 239              		.thumb
 240              		.thumb_func
 241              		.type	malloc_sdcard_dma, %function
 242              	malloc_sdcard_dma:
 243              	.LFB327:
 244              		.loc 1 187 0
 245              		.cfi_startproc
 246              		@ args = 0, pretend = 0, frame = 0
 247              		@ frame_needed = 0, uses_anonymous_args = 0
 248              		@ link register save eliminated.
 249              	.LVL31:
 250              		.loc 1 191 0
 251 0000 0121     		movs	r1, #1
 252 0002 FFF7FEBF 		b	malloc_flags
 253              	.LVL32:
 254              		.cfi_endproc
 255              	.LFE327:
 256              		.size	malloc_sdcard_dma, .-malloc_sdcard_dma
 257              		.section	.text.malloc_fastmem,"ax",%progbits
 258              		.align	1
 259              		.global	malloc_fastmem
 260              		.thumb
 261              		.thumb_func
 262              		.type	malloc_fastmem, %function
 263              	malloc_fastmem:
 264              	.LFB328:
 265              		.loc 1 199 0
 266              		.cfi_startproc
 267              		@ args = 0, pretend = 0, frame = 0
 268              		@ frame_needed = 0, uses_anonymous_args = 0
 269              		@ link register save eliminated.
 270              	.LVL33:
 271              		.loc 1 200 0
 272 0000 0221     		movs	r1, #2
 273 0002 FFF7FEBF 		b	malloc_flags
 274              	.LVL34:
 275              		.cfi_endproc
 276              	.LFE328:
 277              		.size	malloc_fastmem, .-malloc_fastmem
 278              		.section	.text.calloc,"ax",%progbits
 279              		.align	1
 280              		.global	calloc
 281              		.thumb
 282              		.thumb_func
 283              		.type	calloc, %function
 284              	calloc:
 285              	.LFB329:
ARM GAS  /tmp/cc1Orh3w.s 			page 6


 286              		.loc 1 204 0
 287              		.cfi_startproc
 288              		@ args = 0, pretend = 0, frame = 0
 289              		@ frame_needed = 0, uses_anonymous_args = 0
 290              		@ link register save eliminated.
 291              	.LVL35:
 292              		.loc 1 205 0
 293 0000 4843     		muls	r0, r1, r0
 294              	.LVL36:
 295 0002 FFF7FEBF 		b	malloc
 296              	.LVL37:
 297              		.cfi_endproc
 298              	.LFE329:
 299              		.size	calloc, .-calloc
 300              		.section	.text.free,"ax",%progbits
 301              		.align	1
 302              		.global	free
 303              		.thumb
 304              		.thumb_func
 305              		.type	free, %function
 306              	free:
 307              	.LFB330:
 308              		.loc 1 209 0
 309              		.cfi_startproc
 310              		@ args = 0, pretend = 0, frame = 0
 311              		@ frame_needed = 0, uses_anonymous_args = 0
 312              		@ link register save eliminated.
 313              	.LVL38:
 314              		.loc 1 210 0
 315 0000 08B1     		cbz	r0, .L30
 316              		.loc 1 211 0
 317 0002 FFF7FEBF 		b	chHeapFree
 318              	.LVL39:
 319              	.L30:
 320 0006 7047     		bx	lr
 321              		.cfi_endproc
 322              	.LFE330:
 323              		.size	free, .-free
 324              		.section	.text.mem_available,"ax",%progbits
 325              		.align	1
 326              		.global	mem_available
 327              		.thumb
 328              		.thumb_func
 329              		.type	mem_available, %function
 330              	mem_available:
 331              	.LFB331:
 332              		.loc 1 219 0
 333              		.cfi_startproc
 334              		@ args = 0, pretend = 0, frame = 8
 335              		@ frame_needed = 0, uses_anonymous_args = 0
 336 0000 37B5     		push	{r0, r1, r2, r4, r5, lr}
 337              		.cfi_def_cfa_offset 24
 338              		.cfi_offset 4, -12
 339              		.cfi_offset 5, -8
 340              		.cfi_offset 14, -4
 341              		.loc 1 220 0
 342 0002 02A9     		add	r1, sp, #8
ARM GAS  /tmp/cc1Orh3w.s 			page 7


 343 0004 0024     		movs	r4, #0
 344 0006 41F8084D 		str	r4, [r1, #-8]!
 345              		.loc 1 224 0
 346 000a 2246     		mov	r2, r4
 347 000c 2046     		mov	r0, r4
 348 000e FFF7FEFF 		bl	chHeapStatus
 349              	.LVL40:
 350              	.LBB2:
 351              		.loc 1 231 0
 352 0012 02AD     		add	r5, sp, #8
 353              	.LBE2:
 354              		.loc 1 227 0
 355 0014 FFF7FEFF 		bl	chCoreGetStatusX
 356              	.LVL41:
 357 0018 009B     		ldr	r3, [sp]
 358              	.LBB3:
 359              		.loc 1 231 0
 360 001a 45F8044D 		str	r4, [r5, #-4]!
 361              	.LBE3:
 362              		.loc 1 227 0
 363 001e 1844     		add	r0, r0, r3
 364 0020 0090     		str	r0, [sp]
 365              	.LVL42:
 366              	.LBB4:
 367              		.loc 1 232 0
 368 0022 2946     		mov	r1, r5
 369 0024 2246     		mov	r2, r4
 370 0026 0948     		ldr	r0, .L33
 371 0028 FFF7FEFF 		bl	chHeapStatus
 372              	.LVL43:
 373              		.loc 1 233 0
 374 002c 9DE80C00 		ldmia	sp, {r2, r3}
 375              	.LBE4:
 376              		.loc 1 239 0
 377 0030 2946     		mov	r1, r5
 378              	.LBB5:
 379              		.loc 1 233 0
 380 0032 1344     		add	r3, r3, r2
 381              	.LBE5:
 382              		.loc 1 239 0
 383 0034 0648     		ldr	r0, .L33+4
 384 0036 2246     		mov	r2, r4
 385              		.loc 1 238 0
 386 0038 8DE81800 		stmia	sp, {r3, r4}
 387              		.loc 1 239 0
 388 003c FFF7FEFF 		bl	chHeapStatus
 389              	.LVL44:
 390              		.loc 1 244 0
 391 0040 9DE80900 		ldmia	sp, {r0, r3}
 392 0044 1844     		add	r0, r0, r3
 393              	.LVL45:
 394 0046 03B0     		add	sp, sp, #12
 395              		.cfi_def_cfa_offset 12
 396              		@ sp needed
 397 0048 30BD     		pop	{r4, r5, pc}
 398              	.L34:
 399 004a 00BF     		.align	2
ARM GAS  /tmp/cc1Orh3w.s 			page 8


 400              	.L33:
 401 004c 1C000000 		.word	.LANCHOR0+28
 402 0050 00000000 		.word	.LANCHOR1
 403              		.cfi_endproc
 404              	.LFE331:
 405              		.size	mem_available, .-mem_available
 406              		.section	.text.thread_create_alloc,"ax",%progbits
 407              		.align	1
 408              		.global	thread_create_alloc
 409              		.thumb
 410              		.thumb_func
 411              		.type	thread_create_alloc, %function
 412              	thread_create_alloc:
 413              	.LFB332:
 414              		.loc 1 252 0
 415              		.cfi_startproc
 416              		@ args = 4, pretend = 0, frame = 0
 417              		@ frame_needed = 0, uses_anonymous_args = 0
 418              	.LVL46:
 419 0000 2DE9F341 		push	{r0, r1, r4, r5, r6, r7, r8, lr}
 420              		.cfi_def_cfa_offset 32
 421              		.cfi_offset 4, -24
 422              		.cfi_offset 5, -20
 423              		.cfi_offset 6, -16
 424              		.cfi_offset 7, -12
 425              		.cfi_offset 8, -8
 426              		.cfi_offset 14, -4
 427              		.loc 1 252 0
 428 0004 089F     		ldr	r7, [sp, #32]
 429              		.loc 1 255 0
 430 0006 0093     		str	r3, [sp]
 431              		.loc 1 252 0
 432 0008 0646     		mov	r6, r0
 433 000a 0D46     		mov	r5, r1
 434 000c 1446     		mov	r4, r2
 435 000e 9846     		mov	r8, r3
 436              		.loc 1 255 0
 437 0010 0197     		str	r7, [sp, #4]
 438 0012 0020     		movs	r0, #0
 439              	.LVL47:
 440 0014 3146     		mov	r1, r6
 441              	.LVL48:
 442 0016 2A46     		mov	r2, r5
 443              	.LVL49:
 444 0018 2346     		mov	r3, r4
 445              	.LVL50:
 446 001a FFF7FEFF 		bl	chThdCreateFromHeap
 447              	.LVL51:
 448              		.loc 1 256 0
 449 001e 40B9     		cbnz	r0, .L36
 450              	.LVL52:
 451              		.loc 1 263 0 discriminator 1
 452 0020 CDF80080 		str	r8, [sp]
 453 0024 0197     		str	r7, [sp, #4]
 454 0026 0448     		ldr	r0, .L38
 455              	.LVL53:
 456 0028 3146     		mov	r1, r6
ARM GAS  /tmp/cc1Orh3w.s 			page 9


 457 002a 2A46     		mov	r2, r5
 458 002c 2346     		mov	r3, r4
 459 002e FFF7FEFF 		bl	chThdCreateFromHeap
 460              	.LVL54:
 461              	.L36:
 462              		.loc 1 269 0
 463 0032 02B0     		add	sp, sp, #8
 464              		.cfi_def_cfa_offset 24
 465              		@ sp needed
 466 0034 BDE8F081 		pop	{r4, r5, r6, r7, r8, pc}
 467              	.LVL55:
 468              	.L39:
 469              		.align	2
 470              	.L38:
 471 0038 1C000000 		.word	.LANCHOR0+28
 472              		.cfi_endproc
 473              	.LFE332:
 474              		.size	thread_create_alloc, .-thread_create_alloc
 475              		.section	.text.memory_flush_all,"ax",%progbits
 476              		.align	1
 477              		.global	memory_flush_all
 478              		.thumb
 479              		.thumb_func
 480              		.type	memory_flush_all, %function
 481              	memory_flush_all:
 482              	.LFB333:
 483              		.loc 1 278 0
 484              		.cfi_startproc
 485              		@ args = 0, pretend = 0, frame = 0
 486              		@ frame_needed = 0, uses_anonymous_args = 0
 487              		@ link register save eliminated.
 488              	.LVL56:
 489 0000 7047     		bx	lr
 490              		.cfi_endproc
 491              	.LFE333:
 492              		.size	memory_flush_all, .-memory_flush_all
 493              		.section	.bss.dma_reserve_heap,"aw",%nobits
 494              		.align	2
 495              		.set	.LANCHOR1,. + 0
 496              		.type	dma_reserve_heap, %object
 497              		.size	dma_reserve_heap, 28
 498              	dma_reserve_heap:
 499 0000 00000000 		.space	28
 499      00000000 
 499      00000000 
 499      00000000 
 499      00000000 
 500              		.section	.bss.heaps,"aw",%nobits
 501              		.align	2
 502              		.set	.LANCHOR0,. + 0
 503              		.type	heaps, %object
 504              		.size	heaps, 56
 505              	heaps:
 506 0000 00000000 		.space	56
 506      00000000 
 506      00000000 
 506      00000000 
ARM GAS  /tmp/cc1Orh3w.s 			page 10


 506      00000000 
 507              		.text
 508              	.Letext0:
 509              		.file 2 "/usr/include/newlib/machine/_default_types.h"
 510              		.file 3 "/usr/include/newlib/sys/_stdint.h"
 511              		.file 4 "/usr/lib/gcc/arm-none-eabi/4.9.3/include/stddef.h"
 512              		.file 5 "../../modules/ChibiOS/os/common/ports/ARMCMx/compilers/GCC/chtypes.h"
 513              		.file 6 "../../modules/ChibiOS/os/rt/include/chsystypes.h"
 514              		.file 7 "../../modules/ChibiOS/os/rt/include/chschd.h"
 515              		.file 8 "../../modules/ChibiOS/os/rt/include/chtime.h"
 516              		.file 9 "../../modules/ChibiOS/os/common/ports/ARMCMx/chcore.h"
 517              		.file 10 "../../modules/ChibiOS/os/common/ports/ARMCMx/chcore_v7m.h"
 518              		.file 11 "../../modules/ChibiOS/os/rt/include/chtm.h"
 519              		.file 12 "../../modules/ChibiOS/os/rt/include/chstats.h"
 520              		.file 13 "../../modules/ChibiOS/os/rt/include/chsem.h"
 521              		.file 14 "../../modules/ChibiOS/os/rt/include/chmtx.h"
 522              		.file 15 "../../modules/ChibiOS/os/rt/include/chthreads.h"
 523              		.file 16 "../../modules/ChibiOS/os/oslib/include/chmemcore.h"
 524              		.file 17 "../../modules/ChibiOS/os/oslib/include/chmemheaps.h"
 525              		.file 18 "../../modules/ChibiOS/os/rt/include/chdynamic.h"
 526              		.file 19 "../../modules/ChibiOS/os/common/ext/ARM/CMSIS/Core/Include/core_cm4.h"