ARM GAS  /tmp/ccMz6Lp2.s 			page 1


   1              		.syntax unified
   2              		.cpu cortex-m4
   3              		.eabi_attribute 27, 1
   4              		.eabi_attribute 28, 1
   5              		.fpu fpv4-sp-d16
   6              		.eabi_attribute 20, 1
   7              		.eabi_attribute 21, 1
   8              		.eabi_attribute 23, 3
   9              		.eabi_attribute 24, 1
  10              		.eabi_attribute 25, 1
  11              		.eabi_attribute 26, 1
  12              		.eabi_attribute 30, 4
  13              		.eabi_attribute 34, 1
  14              		.eabi_attribute 18, 4
  15              		.thumb
  16              		.file	"memstreams.c"
  17              		.text
  18              	.Ltext0:
  19              		.cfi_sections	.debug_frame
  20              		.section	.text._put,"ax",%progbits
  21              		.align	1
  22              		.thumb
  23              		.thumb_func
  24              		.type	_put, %function
  25              	_put:
  26              	.LFB325:
  27              		.file 1 "../../modules/ChibiOS/os/hal/lib/streams/memstreams.c"
  28              		.loc 1 67 0
  29              		.cfi_startproc
  30              		@ args = 0, pretend = 0, frame = 0
  31              		@ frame_needed = 0, uses_anonymous_args = 0
  32              		@ link register save eliminated.
  33              	.LVL0:
  34              		.loc 1 70 0
  35 0000 C368     		ldr	r3, [r0, #12]
  36 0002 8268     		ldr	r2, [r0, #8]
  37 0004 9A42     		cmp	r2, r3
  38              		.loc 1 72 0
  39 0006 1FBF     		itttt	ne
  40 0008 4268     		ldrne	r2, [r0, #4]
  41 000a D154     		strbne	r1, [r2, r3]
  42              		.loc 1 73 0
  43 000c C368     		ldrne	r3, [r0, #12]
  44 000e 0133     		addne	r3, r3, #1
  45 0010 1ABF     		itte	ne
  46 0012 C360     		strne	r3, [r0, #12]
  47              		.loc 1 74 0
  48 0014 0020     		movne	r0, #0
  49              	.LVL1:
  50              		.loc 1 71 0
  51 0016 6FF00100 		mvneq	r0, #1
  52              		.loc 1 75 0
  53 001a 7047     		bx	lr
  54              		.cfi_endproc
  55              	.LFE325:
  56              		.size	_put, .-_put
  57              		.section	.text._get,"ax",%progbits
ARM GAS  /tmp/ccMz6Lp2.s 			page 2


  58              		.align	1
  59              		.thumb
  60              		.thumb_func
  61              		.type	_get, %function
  62              	_get:
  63              	.LFB326:
  64              		.loc 1 77 0
  65              		.cfi_startproc
  66              		@ args = 0, pretend = 0, frame = 0
  67              		@ frame_needed = 0, uses_anonymous_args = 0
  68              		@ link register save eliminated.
  69              	.LVL2:
  70              		.loc 1 81 0
  71 0000 0369     		ldr	r3, [r0, #16]
  72 0002 C268     		ldr	r2, [r0, #12]
  73 0004 9A42     		cmp	r2, r3
  74              		.loc 1 83 0
  75 0006 1FBF     		itttt	ne
  76 0008 4268     		ldrne	r2, [r0, #4]
  77 000a D25C     		ldrbne	r2, [r2, r3]	@ zero_extendqisi2
  78              	.LVL3:
  79              		.loc 1 84 0
  80 000c 0133     		addne	r3, r3, #1
  81 000e 0361     		strne	r3, [r0, #16]
  82              		.loc 1 85 0
  83 0010 14BF     		ite	ne
  84 0012 1046     		movne	r0, r2
  85              	.LVL4:
  86              		.loc 1 82 0
  87 0014 6FF00100 		mvneq	r0, #1
  88              		.loc 1 86 0
  89 0018 7047     		bx	lr
  90              		.cfi_endproc
  91              	.LFE326:
  92              		.size	_get, .-_get
  93              		.section	.text._reads,"ax",%progbits
  94              		.align	1
  95              		.thumb
  96              		.thumb_func
  97              		.type	_reads, %function
  98              	_reads:
  99              	.LFB324:
 100              		.loc 1 57 0
 101              		.cfi_startproc
 102              		@ args = 0, pretend = 0, frame = 0
 103              		@ frame_needed = 0, uses_anonymous_args = 0
 104              	.LVL5:
 105 0000 38B5     		push	{r3, r4, r5, lr}
 106              		.cfi_def_cfa_offset 16
 107              		.cfi_offset 3, -16
 108              		.cfi_offset 4, -12
 109              		.cfi_offset 5, -8
 110              		.cfi_offset 14, -4
 111              		.loc 1 60 0
 112 0002 0369     		ldr	r3, [r0, #16]
 113 0004 C468     		ldr	r4, [r0, #12]
 114 0006 E41A     		subs	r4, r4, r3
ARM GAS  /tmp/ccMz6Lp2.s 			page 3


 115 0008 9442     		cmp	r4, r2
 116 000a 28BF     		it	cs
 117 000c 1446     		movcs	r4, r2
 118              	.LVL6:
 119              		.loc 1 62 0
 120 000e 4268     		ldr	r2, [r0, #4]
 121              		.loc 1 57 0
 122 0010 0546     		mov	r5, r0
 123              		.loc 1 62 0
 124 0012 0846     		mov	r0, r1
 125              	.LVL7:
 126 0014 D118     		adds	r1, r2, r3
 127              	.LVL8:
 128 0016 2246     		mov	r2, r4
 129 0018 FFF7FEFF 		bl	memcpy
 130              	.LVL9:
 131              		.loc 1 63 0
 132 001c 2B69     		ldr	r3, [r5, #16]
 133 001e 2344     		add	r3, r3, r4
 134 0020 2B61     		str	r3, [r5, #16]
 135              		.loc 1 65 0
 136 0022 2046     		mov	r0, r4
 137 0024 38BD     		pop	{r3, r4, r5, pc}
 138              		.cfi_endproc
 139              	.LFE324:
 140              		.size	_reads, .-_reads
 141              		.section	.text._writes,"ax",%progbits
 142              		.align	1
 143              		.thumb
 144              		.thumb_func
 145              		.type	_writes, %function
 146              	_writes:
 147              	.LFB323:
 148              		.loc 1 47 0
 149              		.cfi_startproc
 150              		@ args = 0, pretend = 0, frame = 0
 151              		@ frame_needed = 0, uses_anonymous_args = 0
 152              	.LVL10:
 153 0000 38B5     		push	{r3, r4, r5, lr}
 154              		.cfi_def_cfa_offset 16
 155              		.cfi_offset 3, -16
 156              		.cfi_offset 4, -12
 157              		.cfi_offset 5, -8
 158              		.cfi_offset 14, -4
 159              		.loc 1 50 0
 160 0002 C368     		ldr	r3, [r0, #12]
 161 0004 8468     		ldr	r4, [r0, #8]
 162 0006 E41A     		subs	r4, r4, r3
 163              		.loc 1 47 0
 164 0008 0546     		mov	r5, r0
 165 000a 9442     		cmp	r4, r2
 166              		.loc 1 52 0
 167 000c 4068     		ldr	r0, [r0, #4]
 168              	.LVL11:
 169 000e 28BF     		it	cs
 170 0010 1446     		movcs	r4, r2
 171              	.LVL12:
ARM GAS  /tmp/ccMz6Lp2.s 			page 4


 172 0012 1844     		add	r0, r0, r3
 173 0014 2246     		mov	r2, r4
 174 0016 FFF7FEFF 		bl	memcpy
 175              	.LVL13:
 176              		.loc 1 53 0
 177 001a EB68     		ldr	r3, [r5, #12]
 178 001c 2344     		add	r3, r3, r4
 179 001e EB60     		str	r3, [r5, #12]
 180              		.loc 1 55 0
 181 0020 2046     		mov	r0, r4
 182 0022 38BD     		pop	{r3, r4, r5, pc}
 183              		.cfi_endproc
 184              	.LFE323:
 185              		.size	_writes, .-_writes
 186              		.section	.text.msObjectInit,"ax",%progbits
 187              		.align	1
 188              		.global	msObjectInit
 189              		.thumb
 190              		.thumb_func
 191              		.type	msObjectInit, %function
 192              	msObjectInit:
 193              	.LFB327:
 194              		.loc 1 105 0
 195              		.cfi_startproc
 196              		@ args = 0, pretend = 0, frame = 0
 197              		@ frame_needed = 0, uses_anonymous_args = 0
 198              	.LVL14:
 199 0000 10B5     		push	{r4, lr}
 200              		.cfi_def_cfa_offset 8
 201              		.cfi_offset 4, -8
 202              		.cfi_offset 14, -4
 203              		.loc 1 110 0
 204 0002 C360     		str	r3, [r0, #12]
 205              		.loc 1 107 0
 206 0004 034C     		ldr	r4, .L10
 207 0006 0460     		str	r4, [r0]
 208              		.loc 1 111 0
 209 0008 0023     		movs	r3, #0
 210              	.LVL15:
 211              		.loc 1 108 0
 212 000a 4160     		str	r1, [r0, #4]
 213              		.loc 1 109 0
 214 000c 8260     		str	r2, [r0, #8]
 215              		.loc 1 111 0
 216 000e 0361     		str	r3, [r0, #16]
 217 0010 10BD     		pop	{r4, pc}
 218              	.L11:
 219 0012 00BF     		.align	2
 220              	.L10:
 221 0014 00000000 		.word	.LANCHOR0
 222              		.cfi_endproc
 223              	.LFE327:
 224              		.size	msObjectInit, .-msObjectInit
 225              		.section	.rodata.vmt,"a",%progbits
 226              		.align	2
 227              		.set	.LANCHOR0,. + 0
 228              		.type	vmt, %object
ARM GAS  /tmp/ccMz6Lp2.s 			page 5


 229              		.size	vmt, 20
 230              	vmt:
 231 0000 00000000 		.word	0
 232 0004 00000000 		.word	_writes
 233 0008 00000000 		.word	_reads
 234 000c 00000000 		.word	_put
 235 0010 00000000 		.word	_get
 236              		.text
 237              	.Letext0:
 238              		.file 2 "/usr/lib/gcc/arm-none-eabi/4.9.3/include/stddef.h"
 239              		.file 3 "/usr/include/newlib/machine/_default_types.h"
 240              		.file 4 "/usr/include/newlib/sys/_stdint.h"
 241              		.file 5 "../../modules/ChibiOS/os/common/ports/ARMCMx/compilers/GCC/chtypes.h"
 242              		.file 6 "../../modules/ChibiOS/os/rt/include/chsystypes.h"
 243              		.file 7 "../../modules/ChibiOS/os/rt/include/chschd.h"
 244              		.file 8 "../../modules/ChibiOS/os/rt/include/chtime.h"
 245              		.file 9 "../../modules/ChibiOS/os/common/ports/ARMCMx/chcore.h"
 246              		.file 10 "../../modules/ChibiOS/os/common/ports/ARMCMx/chcore_v7m.h"
 247              		.file 11 "../../modules/ChibiOS/os/rt/include/chtm.h"
 248              		.file 12 "../../modules/ChibiOS/os/rt/include/chstats.h"
 249              		.file 13 "../../modules/ChibiOS/os/rt/include/chsem.h"
 250              		.file 14 "../../modules/ChibiOS/os/rt/include/chmtx.h"
 251              		.file 15 "../../modules/ChibiOS/os/hal/lib/streams/memstreams.h"
 252              		.file 16 "../../modules/ChibiOS/os/common/ext/ARM/CMSIS/Core/Include/core_cm4.h"
 253              		.section	.debug_info,"",%progbits
 254              	.Ldebug_info0:
 255 0000 BB0A0000 		.4byte	0xabb
 256 0004 0400     		.2byte	0x4
 257 0006 00000000 		.4byte	.Ldebug_abbrev0
 258 000a 04       		.byte	0x4
 259 000b 01       		.uleb128 0x1
 260 000c 7F010000 		.4byte	.LASF118
 261 0010 01       		.byte	0x1
 262 0011 D2040000 		.4byte	.LASF119
 263 0015 38050000 		.4byte	.LASF120
 264 0019 00000000 		.4byte	.Ldebug_ranges0+0
 265 001d 00000000 		.4byte	0
 266 0021 00000000 		.4byte	.Ldebug_line0
 267 0025 02       		.uleb128 0x2
 268 0026 04       		.byte	0x4
 269 0027 05       		.byte	0x5
 270 0028 696E7400 		.ascii	"int\000"
 271 002c 03       		.uleb128 0x3
 272 002d 16000000 		.4byte	.LASF2
 273 0031 02       		.byte	0x2
 274 0032 D4       		.byte	0xd4
 275 0033 37000000 		.4byte	0x37
 276 0037 04       		.uleb128 0x4
 277 0038 04       		.byte	0x4
 278 0039 07       		.byte	0x7
 279 003a 72010000 		.4byte	.LASF0
 280 003e 04       		.uleb128 0x4
 281 003f 01       		.byte	0x1
 282 0040 06       		.byte	0x6
 283 0041 D6000000 		.4byte	.LASF1
 284 0045 03       		.uleb128 0x3
 285 0046 3A000000 		.4byte	.LASF3
ARM GAS  /tmp/ccMz6Lp2.s 			page 6


 286 004a 03       		.byte	0x3
 287 004b 1D       		.byte	0x1d
 288 004c 50000000 		.4byte	0x50
 289 0050 04       		.uleb128 0x4
 290 0051 01       		.byte	0x1
 291 0052 08       		.byte	0x8
 292 0053 30040000 		.4byte	.LASF4
 293 0057 04       		.uleb128 0x4
 294 0058 02       		.byte	0x2
 295 0059 05       		.byte	0x5
 296 005a 3E040000 		.4byte	.LASF5
 297 005e 04       		.uleb128 0x4
 298 005f 02       		.byte	0x2
 299 0060 07       		.byte	0x7
 300 0061 95020000 		.4byte	.LASF6
 301 0065 03       		.uleb128 0x3
 302 0066 15030000 		.4byte	.LASF7
 303 006a 03       		.byte	0x3
 304 006b 3F       		.byte	0x3f
 305 006c 70000000 		.4byte	0x70
 306 0070 04       		.uleb128 0x4
 307 0071 04       		.byte	0x4
 308 0072 05       		.byte	0x5
 309 0073 FD000000 		.4byte	.LASF8
 310 0077 03       		.uleb128 0x3
 311 0078 2A010000 		.4byte	.LASF9
 312 007c 03       		.byte	0x3
 313 007d 41       		.byte	0x41
 314 007e 82000000 		.4byte	0x82
 315 0082 04       		.uleb128 0x4
 316 0083 04       		.byte	0x4
 317 0084 07       		.byte	0x7
 318 0085 AE040000 		.4byte	.LASF10
 319 0089 04       		.uleb128 0x4
 320 008a 08       		.byte	0x8
 321 008b 05       		.byte	0x5
 322 008c C8000000 		.4byte	.LASF11
 323 0090 03       		.uleb128 0x3
 324 0091 D9030000 		.4byte	.LASF12
 325 0095 03       		.byte	0x3
 326 0096 5B       		.byte	0x5b
 327 0097 9B000000 		.4byte	0x9b
 328 009b 04       		.uleb128 0x4
 329 009c 08       		.byte	0x8
 330 009d 07       		.byte	0x7
 331 009e 75000000 		.4byte	.LASF13
 332 00a2 04       		.uleb128 0x4
 333 00a3 04       		.byte	0x4
 334 00a4 07       		.byte	0x7
 335 00a5 A4050000 		.4byte	.LASF14
 336 00a9 05       		.uleb128 0x5
 337 00aa 04       		.byte	0x4
 338 00ab 04       		.uleb128 0x4
 339 00ac 01       		.byte	0x1
 340 00ad 08       		.byte	0x8
 341 00ae C7040000 		.4byte	.LASF15
 342 00b2 06       		.uleb128 0x6
ARM GAS  /tmp/ccMz6Lp2.s 			page 7


 343 00b3 04       		.byte	0x4
 344 00b4 B8000000 		.4byte	0xb8
 345 00b8 07       		.uleb128 0x7
 346 00b9 AB000000 		.4byte	0xab
 347 00bd 03       		.uleb128 0x3
 348 00be 91050000 		.4byte	.LASF16
 349 00c2 04       		.byte	0x4
 350 00c3 14       		.byte	0x14
 351 00c4 45000000 		.4byte	0x45
 352 00c8 03       		.uleb128 0x3
 353 00c9 28040000 		.4byte	.LASF17
 354 00cd 04       		.byte	0x4
 355 00ce 1F       		.byte	0x1f
 356 00cf 65000000 		.4byte	0x65
 357 00d3 03       		.uleb128 0x3
 358 00d4 80040000 		.4byte	.LASF18
 359 00d8 04       		.byte	0x4
 360 00d9 20       		.byte	0x20
 361 00da 77000000 		.4byte	0x77
 362 00de 03       		.uleb128 0x3
 363 00df 24000000 		.4byte	.LASF19
 364 00e3 04       		.byte	0x4
 365 00e4 26       		.byte	0x26
 366 00e5 90000000 		.4byte	0x90
 367 00e9 03       		.uleb128 0x3
 368 00ea 5C030000 		.4byte	.LASF20
 369 00ee 05       		.byte	0x5
 370 00ef 27       		.byte	0x27
 371 00f0 D3000000 		.4byte	0xd3
 372 00f4 03       		.uleb128 0x3
 373 00f5 00000000 		.4byte	.LASF21
 374 00f9 05       		.byte	0x5
 375 00fa 28       		.byte	0x28
 376 00fb DE000000 		.4byte	0xde
 377 00ff 03       		.uleb128 0x3
 378 0100 E8020000 		.4byte	.LASF22
 379 0104 05       		.byte	0x5
 380 0105 2A       		.byte	0x2a
 381 0106 BD000000 		.4byte	0xbd
 382 010a 03       		.uleb128 0x3
 383 010b 06010000 		.4byte	.LASF23
 384 010f 05       		.byte	0x5
 385 0110 2B       		.byte	0x2b
 386 0111 BD000000 		.4byte	0xbd
 387 0115 03       		.uleb128 0x3
 388 0116 90040000 		.4byte	.LASF24
 389 011a 05       		.byte	0x5
 390 011b 2C       		.byte	0x2c
 391 011c BD000000 		.4byte	0xbd
 392 0120 03       		.uleb128 0x3
 393 0121 04040000 		.4byte	.LASF25
 394 0125 05       		.byte	0x5
 395 0126 2E       		.byte	0x2e
 396 0127 D3000000 		.4byte	0xd3
 397 012b 03       		.uleb128 0x3
 398 012c C1020000 		.4byte	.LASF26
 399 0130 05       		.byte	0x5
ARM GAS  /tmp/ccMz6Lp2.s 			page 8


 400 0131 2F       		.byte	0x2f
 401 0132 C8000000 		.4byte	0xc8
 402 0136 03       		.uleb128 0x3
 403 0137 09030000 		.4byte	.LASF27
 404 013b 05       		.byte	0x5
 405 013c 31       		.byte	0x31
 406 013d D3000000 		.4byte	0xd3
 407 0141 03       		.uleb128 0x3
 408 0142 6C010000 		.4byte	.LASF28
 409 0146 05       		.byte	0x5
 410 0147 33       		.byte	0x33
 411 0148 C8000000 		.4byte	0xc8
 412 014c 03       		.uleb128 0x3
 413 014d CC020000 		.4byte	.LASF29
 414 0151 05       		.byte	0x5
 415 0152 34       		.byte	0x34
 416 0153 D3000000 		.4byte	0xd3
 417 0157 03       		.uleb128 0x3
 418 0158 08050000 		.4byte	.LASF30
 419 015c 06       		.byte	0x6
 420 015d 34       		.byte	0x34
 421 015e 62010000 		.4byte	0x162
 422 0162 08       		.uleb128 0x8
 423 0163 B7020000 		.4byte	.LASF49
 424 0167 60       		.byte	0x60
 425 0168 07       		.byte	0x7
 426 0169 8E       		.byte	0x8e
 427 016a 4D020000 		.4byte	0x24d
 428 016e 09       		.uleb128 0x9
 429 016f 8A020000 		.4byte	.LASF31
 430 0173 07       		.byte	0x7
 431 0174 8F       		.byte	0x8f
 432 0175 82020000 		.4byte	0x282
 433 0179 00       		.byte	0
 434 017a 09       		.uleb128 0x9
 435 017b BF030000 		.4byte	.LASF32
 436 017f 07       		.byte	0x7
 437 0180 90       		.byte	0x90
 438 0181 20010000 		.4byte	0x120
 439 0185 08       		.byte	0x8
 440 0186 0A       		.uleb128 0xa
 441 0187 63747800 		.ascii	"ctx\000"
 442 018b 07       		.byte	0x7
 443 018c 91       		.byte	0x91
 444 018d 94040000 		.4byte	0x494
 445 0191 0C       		.byte	0xc
 446 0192 09       		.uleb128 0x9
 447 0193 40030000 		.4byte	.LASF33
 448 0197 07       		.byte	0x7
 449 0198 93       		.byte	0x93
 450 0199 58020000 		.4byte	0x258
 451 019d 10       		.byte	0x10
 452 019e 09       		.uleb128 0x9
 453 019f CC040000 		.4byte	.LASF34
 454 01a3 07       		.byte	0x7
 455 01a4 94       		.byte	0x94
 456 01a5 58020000 		.4byte	0x258
ARM GAS  /tmp/ccMz6Lp2.s 			page 9


 457 01a9 14       		.byte	0x14
 458 01aa 09       		.uleb128 0x9
 459 01ab 90020000 		.4byte	.LASF35
 460 01af 07       		.byte	0x7
 461 01b0 9B       		.byte	0x9b
 462 01b1 B2000000 		.4byte	0xb2
 463 01b5 18       		.byte	0x18
 464 01b6 09       		.uleb128 0x9
 465 01b7 C0040000 		.4byte	.LASF36
 466 01bb 07       		.byte	0x7
 467 01bc A4       		.byte	0xa4
 468 01bd 7A070000 		.4byte	0x77a
 469 01c1 1C       		.byte	0x1c
 470 01c2 09       		.uleb128 0x9
 471 01c3 F7000000 		.4byte	.LASF37
 472 01c7 07       		.byte	0x7
 473 01c8 A9       		.byte	0xa9
 474 01c9 0A010000 		.4byte	0x10a
 475 01cd 20       		.byte	0x20
 476 01ce 09       		.uleb128 0x9
 477 01cf 99050000 		.4byte	.LASF38
 478 01d3 07       		.byte	0x7
 479 01d4 AD       		.byte	0xad
 480 01d5 FF000000 		.4byte	0xff
 481 01d9 21       		.byte	0x21
 482 01da 09       		.uleb128 0x9
 483 01db EF030000 		.4byte	.LASF39
 484 01df 07       		.byte	0x7
 485 01e0 B2       		.byte	0xb2
 486 01e1 15010000 		.4byte	0x115
 487 01e5 22       		.byte	0x22
 488 01e6 0B       		.uleb128 0xb
 489 01e7 7500     		.ascii	"u\000"
 490 01e9 07       		.byte	0x7
 491 01ea 0301     		.2byte	0x103
 492 01ec B0060000 		.4byte	0x6b0
 493 01f0 24       		.byte	0x24
 494 01f1 0C       		.uleb128 0xc
 495 01f2 4E010000 		.4byte	.LASF40
 496 01f6 07       		.byte	0x7
 497 01f7 0801     		.2byte	0x108
 498 01f9 5E020000 		.4byte	0x25e
 499 01fd 28       		.byte	0x28
 500 01fe 0C       		.uleb128 0xc
 501 01ff EE000000 		.4byte	.LASF41
 502 0203 07       		.byte	0x7
 503 0204 0E01     		.2byte	0x10e
 504 0206 82020000 		.4byte	0x282
 505 020a 2C       		.byte	0x2c
 506 020b 0C       		.uleb128 0xc
 507 020c D3020000 		.4byte	.LASF42
 508 0210 07       		.byte	0x7
 509 0211 1401     		.2byte	0x114
 510 0213 36010000 		.4byte	0x136
 511 0217 34       		.byte	0x34
 512 0218 0C       		.uleb128 0xc
 513 0219 DA050000 		.4byte	.LASF43
ARM GAS  /tmp/ccMz6Lp2.s 			page 10


 514 021d 07       		.byte	0x7
 515 021e 1B01     		.2byte	0x11b
 516 0220 74070000 		.4byte	0x774
 517 0224 38       		.byte	0x38
 518 0225 0C       		.uleb128 0xc
 519 0226 53030000 		.4byte	.LASF44
 520 022a 07       		.byte	0x7
 521 022b 1F01     		.2byte	0x11f
 522 022d 20010000 		.4byte	0x120
 523 0231 3C       		.byte	0x3c
 524 0232 0C       		.uleb128 0xc
 525 0233 6C050000 		.4byte	.LASF45
 526 0237 07       		.byte	0x7
 527 0238 2601     		.2byte	0x126
 528 023a A9000000 		.4byte	0xa9
 529 023e 40       		.byte	0x40
 530 023f 0C       		.uleb128 0xc
 531 0240 1B010000 		.4byte	.LASF46
 532 0244 07       		.byte	0x7
 533 0245 2C01     		.2byte	0x12c
 534 0247 61060000 		.4byte	0x661
 535 024b 48       		.byte	0x48
 536 024c 00       		.byte	0
 537 024d 03       		.uleb128 0x3
 538 024e 64030000 		.4byte	.LASF47
 539 0252 06       		.byte	0x6
 540 0253 39       		.byte	0x39
 541 0254 58020000 		.4byte	0x258
 542 0258 06       		.uleb128 0x6
 543 0259 04       		.byte	0x4
 544 025a 57010000 		.4byte	0x157
 545 025e 03       		.uleb128 0x3
 546 025f B2050000 		.4byte	.LASF48
 547 0263 06       		.byte	0x6
 548 0264 3E       		.byte	0x3e
 549 0265 69020000 		.4byte	0x269
 550 0269 08       		.uleb128 0x8
 551 026a 98040000 		.4byte	.LASF50
 552 026e 04       		.byte	0x4
 553 026f 07       		.byte	0x7
 554 0270 7C       		.byte	0x7c
 555 0271 82020000 		.4byte	0x282
 556 0275 09       		.uleb128 0x9
 557 0276 B2000000 		.4byte	.LASF51
 558 027a 07       		.byte	0x7
 559 027b 7D       		.byte	0x7d
 560 027c 58020000 		.4byte	0x258
 561 0280 00       		.byte	0
 562 0281 00       		.byte	0
 563 0282 03       		.uleb128 0x3
 564 0283 72050000 		.4byte	.LASF52
 565 0287 06       		.byte	0x6
 566 0288 45       		.byte	0x45
 567 0289 8D020000 		.4byte	0x28d
 568 028d 08       		.uleb128 0x8
 569 028e B7000000 		.4byte	.LASF53
 570 0292 08       		.byte	0x8
ARM GAS  /tmp/ccMz6Lp2.s 			page 11


 571 0293 07       		.byte	0x7
 572 0294 83       		.byte	0x83
 573 0295 B2020000 		.4byte	0x2b2
 574 0299 09       		.uleb128 0x9
 575 029a B2000000 		.4byte	.LASF51
 576 029e 07       		.byte	0x7
 577 029f 84       		.byte	0x84
 578 02a0 58020000 		.4byte	0x258
 579 02a4 00       		.byte	0
 580 02a5 09       		.uleb128 0x9
 581 02a6 44000000 		.4byte	.LASF54
 582 02aa 07       		.byte	0x7
 583 02ab 85       		.byte	0x85
 584 02ac 58020000 		.4byte	0x258
 585 02b0 04       		.byte	0x4
 586 02b1 00       		.byte	0
 587 02b2 03       		.uleb128 0x3
 588 02b3 09000000 		.4byte	.LASF55
 589 02b7 06       		.byte	0x6
 590 02b8 4C       		.byte	0x4c
 591 02b9 BD020000 		.4byte	0x2bd
 592 02bd 0D       		.uleb128 0xd
 593 02be FB020000 		.4byte	.LASF56
 594 02c2 1C       		.byte	0x1c
 595 02c3 07       		.byte	0x7
 596 02c4 5E01     		.2byte	0x15e
 597 02c6 19030000 		.4byte	0x319
 598 02ca 0C       		.uleb128 0xc
 599 02cb 8A020000 		.4byte	.LASF31
 600 02cf 07       		.byte	0x7
 601 02d0 5F01     		.2byte	0x15f
 602 02d2 82020000 		.4byte	0x282
 603 02d6 00       		.byte	0
 604 02d7 0C       		.uleb128 0xc
 605 02d8 BF030000 		.4byte	.LASF32
 606 02dc 07       		.byte	0x7
 607 02dd 6001     		.2byte	0x160
 608 02df 20010000 		.4byte	0x120
 609 02e3 08       		.byte	0x8
 610 02e4 0B       		.uleb128 0xb
 611 02e5 63747800 		.ascii	"ctx\000"
 612 02e9 07       		.byte	0x7
 613 02ea 6201     		.2byte	0x162
 614 02ec 94040000 		.4byte	0x494
 615 02f0 0C       		.byte	0xc
 616 02f1 0C       		.uleb128 0xc
 617 02f2 40030000 		.4byte	.LASF33
 618 02f6 07       		.byte	0x7
 619 02f7 6501     		.2byte	0x165
 620 02f9 58020000 		.4byte	0x258
 621 02fd 10       		.byte	0x10
 622 02fe 0C       		.uleb128 0xc
 623 02ff CC040000 		.4byte	.LASF34
 624 0303 07       		.byte	0x7
 625 0304 6601     		.2byte	0x166
 626 0306 58020000 		.4byte	0x258
 627 030a 14       		.byte	0x14
ARM GAS  /tmp/ccMz6Lp2.s 			page 12


 628 030b 0C       		.uleb128 0xc
 629 030c C4030000 		.4byte	.LASF57
 630 0310 07       		.byte	0x7
 631 0311 6901     		.2byte	0x169
 632 0313 58020000 		.4byte	0x258
 633 0317 18       		.byte	0x18
 634 0318 00       		.byte	0
 635 0319 03       		.uleb128 0x3
 636 031a C1050000 		.4byte	.LASF58
 637 031e 06       		.byte	0x6
 638 031f 51       		.byte	0x51
 639 0320 24030000 		.4byte	0x324
 640 0324 06       		.uleb128 0x6
 641 0325 04       		.byte	0x4
 642 0326 2A030000 		.4byte	0x32a
 643 032a 0E       		.uleb128 0xe
 644 032b 35030000 		.4byte	0x335
 645 032f 0F       		.uleb128 0xf
 646 0330 A9000000 		.4byte	0xa9
 647 0334 00       		.byte	0
 648 0335 03       		.uleb128 0x3
 649 0336 F4030000 		.4byte	.LASF59
 650 033a 06       		.byte	0x6
 651 033b 56       		.byte	0x56
 652 033c 40030000 		.4byte	0x340
 653 0340 0D       		.uleb128 0xd
 654 0341 62040000 		.4byte	.LASF60
 655 0345 14       		.byte	0x14
 656 0346 07       		.byte	0x7
 657 0347 3901     		.2byte	0x139
 658 0349 8F030000 		.4byte	0x38f
 659 034d 0C       		.uleb128 0xc
 660 034e B2000000 		.4byte	.LASF51
 661 0352 07       		.byte	0x7
 662 0353 3A01     		.2byte	0x13a
 663 0355 80070000 		.4byte	0x780
 664 0359 00       		.byte	0
 665 035a 0C       		.uleb128 0xc
 666 035b 44000000 		.4byte	.LASF54
 667 035f 07       		.byte	0x7
 668 0360 3B01     		.2byte	0x13b
 669 0362 80070000 		.4byte	0x780
 670 0366 04       		.byte	0x4
 671 0367 0C       		.uleb128 0xc
 672 0368 9F000000 		.4byte	.LASF61
 673 036c 07       		.byte	0x7
 674 036d 3C01     		.2byte	0x13c
 675 036f 73040000 		.4byte	0x473
 676 0373 08       		.byte	0x8
 677 0374 0C       		.uleb128 0xc
 678 0375 0F010000 		.4byte	.LASF62
 679 0379 07       		.byte	0x7
 680 037a 3D01     		.2byte	0x13d
 681 037c 19030000 		.4byte	0x319
 682 0380 0C       		.byte	0xc
 683 0381 0B       		.uleb128 0xb
 684 0382 70617200 		.ascii	"par\000"
ARM GAS  /tmp/ccMz6Lp2.s 			page 13


 685 0386 07       		.byte	0x7
 686 0387 3F01     		.2byte	0x13f
 687 0389 A9000000 		.4byte	0xa9
 688 038d 10       		.byte	0x10
 689 038e 00       		.byte	0
 690 038f 03       		.uleb128 0x3
 691 0390 1F030000 		.4byte	.LASF63
 692 0394 06       		.byte	0x6
 693 0395 5B       		.byte	0x5b
 694 0396 9A030000 		.4byte	0x39a
 695 039a 0D       		.uleb128 0xd
 696 039b 77030000 		.4byte	.LASF64
 697 039f 10       		.byte	0x10
 698 03a0 07       		.byte	0x7
 699 03a1 4901     		.2byte	0x149
 700 03a3 DC030000 		.4byte	0x3dc
 701 03a7 0C       		.uleb128 0xc
 702 03a8 B2000000 		.4byte	.LASF51
 703 03ac 07       		.byte	0x7
 704 03ad 4A01     		.2byte	0x14a
 705 03af 80070000 		.4byte	0x780
 706 03b3 00       		.byte	0
 707 03b4 0C       		.uleb128 0xc
 708 03b5 44000000 		.4byte	.LASF54
 709 03b9 07       		.byte	0x7
 710 03ba 4C01     		.2byte	0x14c
 711 03bc 80070000 		.4byte	0x780
 712 03c0 04       		.byte	0x4
 713 03c1 0C       		.uleb128 0xc
 714 03c2 9F000000 		.4byte	.LASF61
 715 03c6 07       		.byte	0x7
 716 03c7 4E01     		.2byte	0x14e
 717 03c9 73040000 		.4byte	0x473
 718 03cd 08       		.byte	0x8
 719 03ce 0C       		.uleb128 0xc
 720 03cf 48040000 		.4byte	.LASF65
 721 03d3 07       		.byte	0x7
 722 03d4 5601     		.2byte	0x156
 723 03d6 68040000 		.4byte	0x468
 724 03da 0C       		.byte	0xc
 725 03db 00       		.byte	0
 726 03dc 03       		.uleb128 0x3
 727 03dd 75020000 		.4byte	.LASF66
 728 03e1 06       		.byte	0x6
 729 03e2 60       		.byte	0x60
 730 03e3 E7030000 		.4byte	0x3e7
 731 03e7 0D       		.uleb128 0xd
 732 03e8 3E010000 		.4byte	.LASF67
 733 03ec 04       		.byte	0x4
 734 03ed 07       		.byte	0x7
 735 03ee 7001     		.2byte	0x170
 736 03f0 02040000 		.4byte	0x402
 737 03f4 0C       		.uleb128 0xc
 738 03f5 27050000 		.4byte	.LASF68
 739 03f9 07       		.byte	0x7
 740 03fa 7801     		.2byte	0x178
 741 03fc 86070000 		.4byte	0x786
ARM GAS  /tmp/ccMz6Lp2.s 			page 14


 742 0400 00       		.byte	0
 743 0401 00       		.byte	0
 744 0402 03       		.uleb128 0x3
 745 0403 DC020000 		.4byte	.LASF69
 746 0407 06       		.byte	0x6
 747 0408 65       		.byte	0x65
 748 0409 0D040000 		.4byte	0x40d
 749 040d 0D       		.uleb128 0xd
 750 040e 58040000 		.4byte	.LASF70
 751 0412 D0       		.byte	0xd0
 752 0413 07       		.byte	0x7
 753 0414 9001     		.2byte	0x190
 754 0416 68040000 		.4byte	0x468
 755 041a 0C       		.uleb128 0xc
 756 041b 8B050000 		.4byte	.LASF71
 757 041f 07       		.byte	0x7
 758 0420 9401     		.2byte	0x194
 759 0422 B2020000 		.4byte	0x2b2
 760 0426 00       		.byte	0
 761 0427 0C       		.uleb128 0xc
 762 0428 55000000 		.4byte	.LASF72
 763 042c 07       		.byte	0x7
 764 042d 9801     		.2byte	0x198
 765 042f 8F030000 		.4byte	0x38f
 766 0433 1C       		.byte	0x1c
 767 0434 0B       		.uleb128 0xb
 768 0435 64626700 		.ascii	"dbg\000"
 769 0439 07       		.byte	0x7
 770 043a 9C01     		.2byte	0x19c
 771 043c DC030000 		.4byte	0x3dc
 772 0440 2C       		.byte	0x2c
 773 0441 0C       		.uleb128 0xc
 774 0442 8C000000 		.4byte	.LASF73
 775 0446 07       		.byte	0x7
 776 0447 A001     		.2byte	0x1a0
 777 0449 57010000 		.4byte	0x157
 778 044d 30       		.byte	0x30
 779 044e 0B       		.uleb128 0xb
 780 044f 746D00   		.ascii	"tm\000"
 781 0452 07       		.byte	0x7
 782 0453 A501     		.2byte	0x1a5
 783 0455 13060000 		.4byte	0x613
 784 0459 90       		.byte	0x90
 785 045a 0C       		.uleb128 0xc
 786 045b 2D000000 		.4byte	.LASF74
 787 045f 07       		.byte	0x7
 788 0460 AB01     		.2byte	0x1ab
 789 0462 A5060000 		.4byte	0x6a5
 790 0466 98       		.byte	0x98
 791 0467 00       		.byte	0
 792 0468 03       		.uleb128 0x3
 793 0469 16050000 		.4byte	.LASF75
 794 046d 08       		.byte	0x8
 795 046e 6D       		.byte	0x6d
 796 046f D3000000 		.4byte	0xd3
 797 0473 03       		.uleb128 0x3
 798 0474 5E010000 		.4byte	.LASF76
ARM GAS  /tmp/ccMz6Lp2.s 			page 15


 799 0478 08       		.byte	0x8
 800 0479 79       		.byte	0x79
 801 047a D3000000 		.4byte	0xd3
 802 047e 03       		.uleb128 0x3
 803 047f 35010000 		.4byte	.LASF77
 804 0483 09       		.byte	0x9
 805 0484 65       		.byte	0x65
 806 0485 A9000000 		.4byte	0xa9
 807 0489 03       		.uleb128 0x3
 808 048a 35030000 		.4byte	.LASF78
 809 048e 09       		.byte	0x9
 810 048f 6D       		.byte	0x6d
 811 0490 DE000000 		.4byte	0xde
 812 0494 08       		.uleb128 0x8
 813 0495 A1030000 		.4byte	.LASF79
 814 0499 04       		.byte	0x4
 815 049a 09       		.byte	0x9
 816 049b 89       		.byte	0x89
 817 049c AC040000 		.4byte	0x4ac
 818 04a0 0A       		.uleb128 0xa
 819 04a1 737000   		.ascii	"sp\000"
 820 04a4 09       		.byte	0x9
 821 04a5 8A       		.byte	0x8a
 822 04a6 F8050000 		.4byte	0x5f8
 823 04aa 00       		.byte	0
 824 04ab 00       		.byte	0
 825 04ac 0D       		.uleb128 0xd
 826 04ad 49000000 		.4byte	.LASF80
 827 04b1 64       		.byte	0x64
 828 04b2 0A       		.byte	0xa
 829 04b3 5901     		.2byte	0x159
 830 04b5 F8050000 		.4byte	0x5f8
 831 04b9 0B       		.uleb128 0xb
 832 04ba 73313600 		.ascii	"s16\000"
 833 04be 0A       		.byte	0xa
 834 04bf 5B01     		.2byte	0x15b
 835 04c1 7E040000 		.4byte	0x47e
 836 04c5 00       		.byte	0
 837 04c6 0B       		.uleb128 0xb
 838 04c7 73313700 		.ascii	"s17\000"
 839 04cb 0A       		.byte	0xa
 840 04cc 5C01     		.2byte	0x15c
 841 04ce 7E040000 		.4byte	0x47e
 842 04d2 04       		.byte	0x4
 843 04d3 0B       		.uleb128 0xb
 844 04d4 73313800 		.ascii	"s18\000"
 845 04d8 0A       		.byte	0xa
 846 04d9 5D01     		.2byte	0x15d
 847 04db 7E040000 		.4byte	0x47e
 848 04df 08       		.byte	0x8
 849 04e0 0B       		.uleb128 0xb
 850 04e1 73313900 		.ascii	"s19\000"
 851 04e5 0A       		.byte	0xa
 852 04e6 5E01     		.2byte	0x15e
 853 04e8 7E040000 		.4byte	0x47e
 854 04ec 0C       		.byte	0xc
 855 04ed 0B       		.uleb128 0xb
ARM GAS  /tmp/ccMz6Lp2.s 			page 16


 856 04ee 73323000 		.ascii	"s20\000"
 857 04f2 0A       		.byte	0xa
 858 04f3 5F01     		.2byte	0x15f
 859 04f5 7E040000 		.4byte	0x47e
 860 04f9 10       		.byte	0x10
 861 04fa 0B       		.uleb128 0xb
 862 04fb 73323100 		.ascii	"s21\000"
 863 04ff 0A       		.byte	0xa
 864 0500 6001     		.2byte	0x160
 865 0502 7E040000 		.4byte	0x47e
 866 0506 14       		.byte	0x14
 867 0507 0B       		.uleb128 0xb
 868 0508 73323200 		.ascii	"s22\000"
 869 050c 0A       		.byte	0xa
 870 050d 6101     		.2byte	0x161
 871 050f 7E040000 		.4byte	0x47e
 872 0513 18       		.byte	0x18
 873 0514 0B       		.uleb128 0xb
 874 0515 73323300 		.ascii	"s23\000"
 875 0519 0A       		.byte	0xa
 876 051a 6201     		.2byte	0x162
 877 051c 7E040000 		.4byte	0x47e
 878 0520 1C       		.byte	0x1c
 879 0521 0B       		.uleb128 0xb
 880 0522 73323400 		.ascii	"s24\000"
 881 0526 0A       		.byte	0xa
 882 0527 6301     		.2byte	0x163
 883 0529 7E040000 		.4byte	0x47e
 884 052d 20       		.byte	0x20
 885 052e 0B       		.uleb128 0xb
 886 052f 73323500 		.ascii	"s25\000"
 887 0533 0A       		.byte	0xa
 888 0534 6401     		.2byte	0x164
 889 0536 7E040000 		.4byte	0x47e
 890 053a 24       		.byte	0x24
 891 053b 0B       		.uleb128 0xb
 892 053c 73323600 		.ascii	"s26\000"
 893 0540 0A       		.byte	0xa
 894 0541 6501     		.2byte	0x165
 895 0543 7E040000 		.4byte	0x47e
 896 0547 28       		.byte	0x28
 897 0548 0B       		.uleb128 0xb
 898 0549 73323700 		.ascii	"s27\000"
 899 054d 0A       		.byte	0xa
 900 054e 6601     		.2byte	0x166
 901 0550 7E040000 		.4byte	0x47e
 902 0554 2C       		.byte	0x2c
 903 0555 0B       		.uleb128 0xb
 904 0556 73323800 		.ascii	"s28\000"
 905 055a 0A       		.byte	0xa
 906 055b 6701     		.2byte	0x167
 907 055d 7E040000 		.4byte	0x47e
 908 0561 30       		.byte	0x30
 909 0562 0B       		.uleb128 0xb
 910 0563 73323900 		.ascii	"s29\000"
 911 0567 0A       		.byte	0xa
 912 0568 6801     		.2byte	0x168
ARM GAS  /tmp/ccMz6Lp2.s 			page 17


 913 056a 7E040000 		.4byte	0x47e
 914 056e 34       		.byte	0x34
 915 056f 0B       		.uleb128 0xb
 916 0570 73333000 		.ascii	"s30\000"
 917 0574 0A       		.byte	0xa
 918 0575 6901     		.2byte	0x169
 919 0577 7E040000 		.4byte	0x47e
 920 057b 38       		.byte	0x38
 921 057c 0B       		.uleb128 0xb
 922 057d 73333100 		.ascii	"s31\000"
 923 0581 0A       		.byte	0xa
 924 0582 6A01     		.2byte	0x16a
 925 0584 7E040000 		.4byte	0x47e
 926 0588 3C       		.byte	0x3c
 927 0589 0B       		.uleb128 0xb
 928 058a 723400   		.ascii	"r4\000"
 929 058d 0A       		.byte	0xa
 930 058e 6C01     		.2byte	0x16c
 931 0590 7E040000 		.4byte	0x47e
 932 0594 40       		.byte	0x40
 933 0595 0B       		.uleb128 0xb
 934 0596 723500   		.ascii	"r5\000"
 935 0599 0A       		.byte	0xa
 936 059a 6D01     		.2byte	0x16d
 937 059c 7E040000 		.4byte	0x47e
 938 05a0 44       		.byte	0x44
 939 05a1 0B       		.uleb128 0xb
 940 05a2 723600   		.ascii	"r6\000"
 941 05a5 0A       		.byte	0xa
 942 05a6 6E01     		.2byte	0x16e
 943 05a8 7E040000 		.4byte	0x47e
 944 05ac 48       		.byte	0x48
 945 05ad 0B       		.uleb128 0xb
 946 05ae 723700   		.ascii	"r7\000"
 947 05b1 0A       		.byte	0xa
 948 05b2 6F01     		.2byte	0x16f
 949 05b4 7E040000 		.4byte	0x47e
 950 05b8 4C       		.byte	0x4c
 951 05b9 0B       		.uleb128 0xb
 952 05ba 723800   		.ascii	"r8\000"
 953 05bd 0A       		.byte	0xa
 954 05be 7001     		.2byte	0x170
 955 05c0 7E040000 		.4byte	0x47e
 956 05c4 50       		.byte	0x50
 957 05c5 0B       		.uleb128 0xb
 958 05c6 723900   		.ascii	"r9\000"
 959 05c9 0A       		.byte	0xa
 960 05ca 7101     		.2byte	0x171
 961 05cc 7E040000 		.4byte	0x47e
 962 05d0 54       		.byte	0x54
 963 05d1 0B       		.uleb128 0xb
 964 05d2 72313000 		.ascii	"r10\000"
 965 05d6 0A       		.byte	0xa
 966 05d7 7201     		.2byte	0x172
 967 05d9 7E040000 		.4byte	0x47e
 968 05dd 58       		.byte	0x58
 969 05de 0B       		.uleb128 0xb
ARM GAS  /tmp/ccMz6Lp2.s 			page 18


 970 05df 72313100 		.ascii	"r11\000"
 971 05e3 0A       		.byte	0xa
 972 05e4 7301     		.2byte	0x173
 973 05e6 7E040000 		.4byte	0x47e
 974 05ea 5C       		.byte	0x5c
 975 05eb 0B       		.uleb128 0xb
 976 05ec 6C7200   		.ascii	"lr\000"
 977 05ef 0A       		.byte	0xa
 978 05f0 7401     		.2byte	0x174
 979 05f2 7E040000 		.4byte	0x47e
 980 05f6 60       		.byte	0x60
 981 05f7 00       		.byte	0
 982 05f8 06       		.uleb128 0x6
 983 05f9 04       		.byte	0x4
 984 05fa AC040000 		.4byte	0x4ac
 985 05fe 10       		.uleb128 0x10
 986 05ff 04       		.byte	0x4
 987 0600 0B       		.byte	0xb
 988 0601 38       		.byte	0x38
 989 0602 13060000 		.4byte	0x613
 990 0606 09       		.uleb128 0x9
 991 0607 31050000 		.4byte	.LASF81
 992 060b 0B       		.byte	0xb
 993 060c 3C       		.byte	0x3c
 994 060d E9000000 		.4byte	0xe9
 995 0611 00       		.byte	0
 996 0612 00       		.byte	0
 997 0613 03       		.uleb128 0x3
 998 0614 AE030000 		.4byte	.LASF82
 999 0618 0B       		.byte	0xb
 1000 0619 3D       		.byte	0x3d
 1001 061a FE050000 		.4byte	0x5fe
 1002 061e 10       		.uleb128 0x10
 1003 061f 18       		.byte	0x18
 1004 0620 0B       		.byte	0xb
 1005 0621 48       		.byte	0x48
 1006 0622 61060000 		.4byte	0x661
 1007 0626 09       		.uleb128 0x9
 1008 0627 11050000 		.4byte	.LASF83
 1009 062b 0B       		.byte	0xb
 1010 062c 49       		.byte	0x49
 1011 062d E9000000 		.4byte	0xe9
 1012 0631 00       		.byte	0
 1013 0632 09       		.uleb128 0x9
 1014 0633 5C000000 		.4byte	.LASF84
 1015 0637 0B       		.byte	0xb
 1016 0638 4A       		.byte	0x4a
 1017 0639 E9000000 		.4byte	0xe9
 1018 063d 04       		.byte	0x4
 1019 063e 09       		.uleb128 0x9
 1020 063f C7020000 		.4byte	.LASF85
 1021 0643 0B       		.byte	0xb
 1022 0644 4B       		.byte	0x4b
 1023 0645 E9000000 		.4byte	0xe9
 1024 0649 08       		.byte	0x8
 1025 064a 0A       		.uleb128 0xa
 1026 064b 6E00     		.ascii	"n\000"
ARM GAS  /tmp/ccMz6Lp2.s 			page 19


 1027 064d 0B       		.byte	0xb
 1028 064e 4C       		.byte	0x4c
 1029 064f 4C010000 		.4byte	0x14c
 1030 0653 0C       		.byte	0xc
 1031 0654 09       		.uleb128 0x9
 1032 0655 E4030000 		.4byte	.LASF86
 1033 0659 0B       		.byte	0xb
 1034 065a 4D       		.byte	0x4d
 1035 065b F4000000 		.4byte	0xf4
 1036 065f 10       		.byte	0x10
 1037 0660 00       		.byte	0
 1038 0661 03       		.uleb128 0x3
 1039 0662 62000000 		.4byte	.LASF87
 1040 0666 0B       		.byte	0xb
 1041 0667 4E       		.byte	0x4e
 1042 0668 1E060000 		.4byte	0x61e
 1043 066c 10       		.uleb128 0x10
 1044 066d 38       		.byte	0x38
 1045 066e 0C       		.byte	0xc
 1046 066f 38       		.byte	0x38
 1047 0670 A5060000 		.4byte	0x6a5
 1048 0674 09       		.uleb128 0x9
 1049 0675 84020000 		.4byte	.LASF88
 1050 0679 0C       		.byte	0xc
 1051 067a 39       		.byte	0x39
 1052 067b 4C010000 		.4byte	0x14c
 1053 067f 00       		.byte	0
 1054 0680 09       		.uleb128 0x9
 1055 0681 19040000 		.4byte	.LASF89
 1056 0685 0C       		.byte	0xc
 1057 0686 3A       		.byte	0x3a
 1058 0687 4C010000 		.4byte	0x14c
 1059 068b 04       		.byte	0x4
 1060 068c 09       		.uleb128 0x9
 1061 068d E2050000 		.4byte	.LASF90
 1062 0691 0C       		.byte	0xc
 1063 0692 3B       		.byte	0x3b
 1064 0693 61060000 		.4byte	0x661
 1065 0697 08       		.byte	0x8
 1066 0698 09       		.uleb128 0x9
 1067 0699 F0020000 		.4byte	.LASF91
 1068 069d 0C       		.byte	0xc
 1069 069e 3D       		.byte	0x3d
 1070 069f 61060000 		.4byte	0x661
 1071 06a3 20       		.byte	0x20
 1072 06a4 00       		.byte	0
 1073 06a5 03       		.uleb128 0x3
 1074 06a6 A8020000 		.4byte	.LASF92
 1075 06aa 0C       		.byte	0xc
 1076 06ab 3F       		.byte	0x3f
 1077 06ac 6C060000 		.4byte	0x66c
 1078 06b0 11       		.uleb128 0x11
 1079 06b1 04       		.byte	0x4
 1080 06b2 07       		.byte	0x7
 1081 06b3 C6       		.byte	0xc6
 1082 06b4 12070000 		.4byte	0x712
 1083 06b8 12       		.uleb128 0x12
ARM GAS  /tmp/ccMz6Lp2.s 			page 20


 1084 06b9 1D000000 		.4byte	.LASF93
 1085 06bd 07       		.byte	0x7
 1086 06be CD       		.byte	0xcd
 1087 06bf 2B010000 		.4byte	0x12b
 1088 06c3 12       		.uleb128 0x12
 1089 06c4 21010000 		.4byte	.LASF94
 1090 06c8 07       		.byte	0x7
 1091 06c9 D4       		.byte	0xd4
 1092 06ca 2B010000 		.4byte	0x12b
 1093 06ce 12       		.uleb128 0x12
 1094 06cf E7000000 		.4byte	.LASF95
 1095 06d3 07       		.byte	0x7
 1096 06d4 DB       		.byte	0xdb
 1097 06d5 A9000000 		.4byte	0xa9
 1098 06d9 12       		.uleb128 0x12
 1099 06da 8E030000 		.4byte	.LASF96
 1100 06de 07       		.byte	0x7
 1101 06df E2       		.byte	0xe2
 1102 06e0 12070000 		.4byte	0x712
 1103 06e4 12       		.uleb128 0x12
 1104 06e5 97000000 		.4byte	.LASF97
 1105 06e9 07       		.byte	0x7
 1106 06ea E7       		.byte	0xe7
 1107 06eb 2B010000 		.4byte	0x12b
 1108 06ef 12       		.uleb128 0x12
 1109 06f0 6E020000 		.4byte	.LASF98
 1110 06f4 07       		.byte	0x7
 1111 06f5 F0       		.byte	0xf0
 1112 06f6 3D070000 		.4byte	0x73d
 1113 06fa 12       		.uleb128 0x12
 1114 06fb 89040000 		.4byte	.LASF99
 1115 06ff 07       		.byte	0x7
 1116 0700 F9       		.byte	0xf9
 1117 0701 74070000 		.4byte	0x774
 1118 0705 13       		.uleb128 0x13
 1119 0706 51040000 		.4byte	.LASF100
 1120 070a 07       		.byte	0x7
 1121 070b 0101     		.2byte	0x101
 1122 070d 36010000 		.4byte	0x136
 1123 0711 00       		.byte	0
 1124 0712 06       		.uleb128 0x6
 1125 0713 04       		.byte	0x4
 1126 0714 4D020000 		.4byte	0x24d
 1127 0718 08       		.uleb128 0x8
 1128 0719 73040000 		.4byte	.LASF101
 1129 071d 0C       		.byte	0xc
 1130 071e 0D       		.byte	0xd
 1131 071f 34       		.byte	0x34
 1132 0720 3D070000 		.4byte	0x73d
 1133 0724 09       		.uleb128 0x9
 1134 0725 8A020000 		.4byte	.LASF31
 1135 0729 0D       		.byte	0xd
 1136 072a 35       		.byte	0x35
 1137 072b 82020000 		.4byte	0x282
 1138 072f 00       		.byte	0
 1139 0730 0A       		.uleb128 0xa
 1140 0731 636E7400 		.ascii	"cnt\000"
ARM GAS  /tmp/ccMz6Lp2.s 			page 21


 1141 0735 0D       		.byte	0xd
 1142 0736 37       		.byte	0x37
 1143 0737 41010000 		.4byte	0x141
 1144 073b 08       		.byte	0x8
 1145 073c 00       		.byte	0
 1146 073d 06       		.uleb128 0x6
 1147 073e 04       		.byte	0x4
 1148 073f 18070000 		.4byte	0x718
 1149 0743 08       		.uleb128 0x8
 1150 0744 82050000 		.4byte	.LASF102
 1151 0748 10       		.byte	0x10
 1152 0749 0E       		.byte	0xe
 1153 074a 39       		.byte	0x39
 1154 074b 74070000 		.4byte	0x774
 1155 074f 09       		.uleb128 0x9
 1156 0750 8A020000 		.4byte	.LASF31
 1157 0754 0E       		.byte	0xe
 1158 0755 3A       		.byte	0x3a
 1159 0756 82020000 		.4byte	0x282
 1160 075a 00       		.byte	0
 1161 075b 09       		.uleb128 0x9
 1162 075c A8040000 		.4byte	.LASF103
 1163 0760 0E       		.byte	0xe
 1164 0761 3C       		.byte	0x3c
 1165 0762 58020000 		.4byte	0x258
 1166 0766 08       		.byte	0x8
 1167 0767 09       		.uleb128 0x9
 1168 0768 B2000000 		.4byte	.LASF51
 1169 076c 0E       		.byte	0xe
 1170 076d 3E       		.byte	0x3e
 1171 076e 96070000 		.4byte	0x796
 1172 0772 0C       		.byte	0xc
 1173 0773 00       		.byte	0
 1174 0774 06       		.uleb128 0x6
 1175 0775 04       		.byte	0x4
 1176 0776 43070000 		.4byte	0x743
 1177 077a 06       		.uleb128 0x6
 1178 077b 04       		.byte	0x4
 1179 077c 89040000 		.4byte	0x489
 1180 0780 06       		.uleb128 0x6
 1181 0781 04       		.byte	0x4
 1182 0782 35030000 		.4byte	0x335
 1183 0786 14       		.uleb128 0x14
 1184 0787 B2000000 		.4byte	0xb2
 1185 078b 03       		.uleb128 0x3
 1186 078c 56010000 		.4byte	.LASF104
 1187 0790 0E       		.byte	0xe
 1188 0791 34       		.byte	0x34
 1189 0792 43070000 		.4byte	0x743
 1190 0796 06       		.uleb128 0x6
 1191 0797 04       		.byte	0x4
 1192 0798 8B070000 		.4byte	0x78b
 1193 079c 04       		.uleb128 0x4
 1194 079d 01       		.byte	0x1
 1195 079e 02       		.byte	0x2
 1196 079f 22040000 		.4byte	.LASF105
 1197 07a3 06       		.uleb128 0x6
ARM GAS  /tmp/ccMz6Lp2.s 			page 22


 1198 07a4 04       		.byte	0x4
 1199 07a5 BD000000 		.4byte	0xbd
 1200 07a9 15       		.uleb128 0x15
 1201 07aa 2C000000 		.4byte	0x2c
 1202 07ae C2070000 		.4byte	0x7c2
 1203 07b2 0F       		.uleb128 0xf
 1204 07b3 A9000000 		.4byte	0xa9
 1205 07b7 0F       		.uleb128 0xf
 1206 07b8 C2070000 		.4byte	0x7c2
 1207 07bc 0F       		.uleb128 0xf
 1208 07bd 2C000000 		.4byte	0x2c
 1209 07c1 00       		.byte	0
 1210 07c2 06       		.uleb128 0x6
 1211 07c3 04       		.byte	0x4
 1212 07c4 C8070000 		.4byte	0x7c8
 1213 07c8 07       		.uleb128 0x7
 1214 07c9 BD000000 		.4byte	0xbd
 1215 07cd 06       		.uleb128 0x6
 1216 07ce 04       		.byte	0x4
 1217 07cf A9070000 		.4byte	0x7a9
 1218 07d3 15       		.uleb128 0x15
 1219 07d4 2C000000 		.4byte	0x2c
 1220 07d8 EC070000 		.4byte	0x7ec
 1221 07dc 0F       		.uleb128 0xf
 1222 07dd A9000000 		.4byte	0xa9
 1223 07e1 0F       		.uleb128 0xf
 1224 07e2 A3070000 		.4byte	0x7a3
 1225 07e6 0F       		.uleb128 0xf
 1226 07e7 2C000000 		.4byte	0x2c
 1227 07eb 00       		.byte	0
 1228 07ec 06       		.uleb128 0x6
 1229 07ed 04       		.byte	0x4
 1230 07ee D3070000 		.4byte	0x7d3
 1231 07f2 15       		.uleb128 0x15
 1232 07f3 2B010000 		.4byte	0x12b
 1233 07f7 06080000 		.4byte	0x806
 1234 07fb 0F       		.uleb128 0xf
 1235 07fc A9000000 		.4byte	0xa9
 1236 0800 0F       		.uleb128 0xf
 1237 0801 BD000000 		.4byte	0xbd
 1238 0805 00       		.byte	0
 1239 0806 06       		.uleb128 0x6
 1240 0807 04       		.byte	0x4
 1241 0808 F2070000 		.4byte	0x7f2
 1242 080c 15       		.uleb128 0x15
 1243 080d 2B010000 		.4byte	0x12b
 1244 0811 1B080000 		.4byte	0x81b
 1245 0815 0F       		.uleb128 0xf
 1246 0816 A9000000 		.4byte	0xa9
 1247 081a 00       		.byte	0
 1248 081b 06       		.uleb128 0x6
 1249 081c 04       		.byte	0x4
 1250 081d 0C080000 		.4byte	0x80c
 1251 0821 08       		.uleb128 0x8
 1252 0822 CC030000 		.4byte	.LASF106
 1253 0826 14       		.byte	0x14
 1254 0827 0F       		.byte	0xf
ARM GAS  /tmp/ccMz6Lp2.s 			page 23


 1255 0828 3D       		.byte	0x3d
 1256 0829 6A080000 		.4byte	0x86a
 1257 082d 09       		.uleb128 0x9
 1258 082e CA050000 		.4byte	.LASF107
 1259 0832 0F       		.byte	0xf
 1260 0833 3E       		.byte	0x3e
 1261 0834 2C000000 		.4byte	0x2c
 1262 0838 00       		.byte	0
 1263 0839 09       		.uleb128 0x9
 1264 083a 46030000 		.4byte	.LASF108
 1265 083e 0F       		.byte	0xf
 1266 083f 3E       		.byte	0x3e
 1267 0840 CD070000 		.4byte	0x7cd
 1268 0844 04       		.byte	0x4
 1269 0845 09       		.uleb128 0x9
 1270 0846 AD050000 		.4byte	.LASF109
 1271 084a 0F       		.byte	0xf
 1272 084b 3E       		.byte	0x3e
 1273 084c EC070000 		.4byte	0x7ec
 1274 0850 08       		.byte	0x8
 1275 0851 0A       		.uleb128 0xa
 1276 0852 70757400 		.ascii	"put\000"
 1277 0856 0F       		.byte	0xf
 1278 0857 3E       		.byte	0x3e
 1279 0858 06080000 		.4byte	0x806
 1280 085c 0C       		.byte	0xc
 1281 085d 0A       		.uleb128 0xa
 1282 085e 67657400 		.ascii	"get\000"
 1283 0862 0F       		.byte	0xf
 1284 0863 3E       		.byte	0x3e
 1285 0864 1B080000 		.4byte	0x81b
 1286 0868 10       		.byte	0x10
 1287 0869 00       		.byte	0
 1288 086a 10       		.uleb128 0x10
 1289 086b 14       		.byte	0x14
 1290 086c 0F       		.byte	0xf
 1291 086d 46       		.byte	0x46
 1292 086e AF080000 		.4byte	0x8af
 1293 0872 0A       		.uleb128 0xa
 1294 0873 766D7400 		.ascii	"vmt\000"
 1295 0877 0F       		.byte	0xf
 1296 0878 48       		.byte	0x48
 1297 0879 AF080000 		.4byte	0x8af
 1298 087d 00       		.byte	0
 1299 087e 09       		.uleb128 0x9
 1300 087f 20050000 		.4byte	.LASF110
 1301 0883 0F       		.byte	0xf
 1302 0884 49       		.byte	0x49
 1303 0885 A3070000 		.4byte	0x7a3
 1304 0889 04       		.byte	0x4
 1305 088a 09       		.uleb128 0x9
 1306 088b E2000000 		.4byte	.LASF111
 1307 088f 0F       		.byte	0xf
 1308 0890 49       		.byte	0x49
 1309 0891 2C000000 		.4byte	0x2c
 1310 0895 08       		.byte	0x8
 1311 0896 0A       		.uleb128 0xa
ARM GAS  /tmp/ccMz6Lp2.s 			page 24


 1312 0897 656F7300 		.ascii	"eos\000"
 1313 089b 0F       		.byte	0xf
 1314 089c 49       		.byte	0x49
 1315 089d 2C000000 		.4byte	0x2c
 1316 08a1 0C       		.byte	0xc
 1317 08a2 09       		.uleb128 0x9
 1318 08a3 31050000 		.4byte	.LASF81
 1319 08a7 0F       		.byte	0xf
 1320 08a8 49       		.byte	0x49
 1321 08a9 2C000000 		.4byte	0x2c
 1322 08ad 10       		.byte	0x10
 1323 08ae 00       		.byte	0
 1324 08af 06       		.uleb128 0x6
 1325 08b0 04       		.byte	0x4
 1326 08b1 B5080000 		.4byte	0x8b5
 1327 08b5 07       		.uleb128 0x7
 1328 08b6 21080000 		.4byte	0x821
 1329 08ba 03       		.uleb128 0x3
 1330 08bb 0C040000 		.4byte	.LASF112
 1331 08bf 0F       		.byte	0xf
 1332 08c0 4A       		.byte	0x4a
 1333 08c1 6A080000 		.4byte	0x86a
 1334 08c5 16       		.uleb128 0x16
 1335 08c6 ED050000 		.4byte	.LASF113
 1336 08ca 01       		.byte	0x1
 1337 08cb 43       		.byte	0x43
 1338 08cc 2B010000 		.4byte	0x12b
 1339 08d0 00000000 		.4byte	.LFB325
 1340 08d4 1C000000 		.4byte	.LFE325-.LFB325
 1341 08d8 01       		.uleb128 0x1
 1342 08d9 9C       		.byte	0x9c
 1343 08da 07090000 		.4byte	0x907
 1344 08de 17       		.uleb128 0x17
 1345 08df 697000   		.ascii	"ip\000"
 1346 08e2 01       		.byte	0x1
 1347 08e3 43       		.byte	0x43
 1348 08e4 A9000000 		.4byte	0xa9
 1349 08e8 00000000 		.4byte	.LLST0
 1350 08ec 18       		.uleb128 0x18
 1351 08ed 6200     		.ascii	"b\000"
 1352 08ef 01       		.byte	0x1
 1353 08f0 43       		.byte	0x43
 1354 08f1 BD000000 		.4byte	0xbd
 1355 08f5 01       		.uleb128 0x1
 1356 08f6 51       		.byte	0x51
 1357 08f7 19       		.uleb128 0x19
 1358 08f8 6D737000 		.ascii	"msp\000"
 1359 08fc 01       		.byte	0x1
 1360 08fd 44       		.byte	0x44
 1361 08fe 07090000 		.4byte	0x907
 1362 0902 00000000 		.4byte	.LLST0
 1363 0906 00       		.byte	0
 1364 0907 06       		.uleb128 0x6
 1365 0908 04       		.byte	0x4
 1366 0909 BA080000 		.4byte	0x8ba
 1367 090d 16       		.uleb128 0x16
 1368 090e 9F050000 		.4byte	.LASF114
ARM GAS  /tmp/ccMz6Lp2.s 			page 25


 1369 0912 01       		.byte	0x1
 1370 0913 4D       		.byte	0x4d
 1371 0914 2B010000 		.4byte	0x12b
 1372 0918 00000000 		.4byte	.LFB326
 1373 091c 1A000000 		.4byte	.LFE326-.LFB326
 1374 0920 01       		.uleb128 0x1
 1375 0921 9C       		.byte	0x9c
 1376 0922 4F090000 		.4byte	0x94f
 1377 0926 17       		.uleb128 0x17
 1378 0927 697000   		.ascii	"ip\000"
 1379 092a 01       		.byte	0x1
 1380 092b 4D       		.byte	0x4d
 1381 092c A9000000 		.4byte	0xa9
 1382 0930 21000000 		.4byte	.LLST2
 1383 0934 1A       		.uleb128 0x1a
 1384 0935 6200     		.ascii	"b\000"
 1385 0937 01       		.byte	0x1
 1386 0938 4E       		.byte	0x4e
 1387 0939 BD000000 		.4byte	0xbd
 1388 093d 01       		.uleb128 0x1
 1389 093e 52       		.byte	0x52
 1390 093f 19       		.uleb128 0x19
 1391 0940 6D737000 		.ascii	"msp\000"
 1392 0944 01       		.byte	0x1
 1393 0945 4F       		.byte	0x4f
 1394 0946 07090000 		.4byte	0x907
 1395 094a 21000000 		.4byte	.LLST2
 1396 094e 00       		.byte	0
 1397 094f 16       		.uleb128 0x16
 1398 0950 4C030000 		.4byte	.LASF115
 1399 0954 01       		.byte	0x1
 1400 0955 39       		.byte	0x39
 1401 0956 2C000000 		.4byte	0x2c
 1402 095a 00000000 		.4byte	.LFB324
 1403 095e 26000000 		.4byte	.LFE324-.LFB324
 1404 0962 01       		.uleb128 0x1
 1405 0963 9C       		.byte	0x9c
 1406 0964 B8090000 		.4byte	0x9b8
 1407 0968 17       		.uleb128 0x17
 1408 0969 697000   		.ascii	"ip\000"
 1409 096c 01       		.byte	0x1
 1410 096d 39       		.byte	0x39
 1411 096e A9000000 		.4byte	0xa9
 1412 0972 42000000 		.4byte	.LLST4
 1413 0976 17       		.uleb128 0x17
 1414 0977 627000   		.ascii	"bp\000"
 1415 097a 01       		.byte	0x1
 1416 097b 39       		.byte	0x39
 1417 097c A3070000 		.4byte	0x7a3
 1418 0980 60000000 		.4byte	.LLST5
 1419 0984 17       		.uleb128 0x17
 1420 0985 6E00     		.ascii	"n\000"
 1421 0987 01       		.byte	0x1
 1422 0988 39       		.byte	0x39
 1423 0989 2C000000 		.4byte	0x2c
 1424 098d 8C000000 		.4byte	.LLST6
 1425 0991 19       		.uleb128 0x19
ARM GAS  /tmp/ccMz6Lp2.s 			page 26


 1426 0992 6D737000 		.ascii	"msp\000"
 1427 0996 01       		.byte	0x1
 1428 0997 3A       		.byte	0x3a
 1429 0998 07090000 		.4byte	0x907
 1430 099c 42000000 		.4byte	.LLST4
 1431 09a0 1B       		.uleb128 0x1b
 1432 09a1 1C000000 		.4byte	.LVL9
 1433 09a5 9A0A0000 		.4byte	0xa9a
 1434 09a9 1C       		.uleb128 0x1c
 1435 09aa 01       		.uleb128 0x1
 1436 09ab 52       		.byte	0x52
 1437 09ac 02       		.uleb128 0x2
 1438 09ad 74       		.byte	0x74
 1439 09ae 00       		.sleb128 0
 1440 09af 1C       		.uleb128 0x1c
 1441 09b0 01       		.uleb128 0x1
 1442 09b1 50       		.byte	0x50
 1443 09b2 03       		.uleb128 0x3
 1444 09b3 F3       		.byte	0xf3
 1445 09b4 01       		.uleb128 0x1
 1446 09b5 51       		.byte	0x51
 1447 09b6 00       		.byte	0
 1448 09b7 00       		.byte	0
 1449 09b8 16       		.uleb128 0x16
 1450 09b9 64050000 		.4byte	.LASF116
 1451 09bd 01       		.byte	0x1
 1452 09be 2F       		.byte	0x2f
 1453 09bf 2C000000 		.4byte	0x2c
 1454 09c3 00000000 		.4byte	.LFB323
 1455 09c7 24000000 		.4byte	.LFE323-.LFB323
 1456 09cb 01       		.uleb128 0x1
 1457 09cc 9C       		.byte	0x9c
 1458 09cd 210A0000 		.4byte	0xa21
 1459 09d1 17       		.uleb128 0x17
 1460 09d2 697000   		.ascii	"ip\000"
 1461 09d5 01       		.byte	0x1
 1462 09d6 2F       		.byte	0x2f
 1463 09d7 A9000000 		.4byte	0xa9
 1464 09db AA000000 		.4byte	.LLST8
 1465 09df 17       		.uleb128 0x17
 1466 09e0 627000   		.ascii	"bp\000"
 1467 09e3 01       		.byte	0x1
 1468 09e4 2F       		.byte	0x2f
 1469 09e5 C2070000 		.4byte	0x7c2
 1470 09e9 C8000000 		.4byte	.LLST9
 1471 09ed 17       		.uleb128 0x17
 1472 09ee 6E00     		.ascii	"n\000"
 1473 09f0 01       		.byte	0x1
 1474 09f1 2F       		.byte	0x2f
 1475 09f2 2C000000 		.4byte	0x2c
 1476 09f6 E9000000 		.4byte	.LLST10
 1477 09fa 19       		.uleb128 0x19
 1478 09fb 6D737000 		.ascii	"msp\000"
 1479 09ff 01       		.byte	0x1
 1480 0a00 30       		.byte	0x30
 1481 0a01 07090000 		.4byte	0x907
 1482 0a05 AA000000 		.4byte	.LLST8
ARM GAS  /tmp/ccMz6Lp2.s 			page 27


 1483 0a09 1B       		.uleb128 0x1b
 1484 0a0a 1A000000 		.4byte	.LVL13
 1485 0a0e 9A0A0000 		.4byte	0xa9a
 1486 0a12 1C       		.uleb128 0x1c
 1487 0a13 01       		.uleb128 0x1
 1488 0a14 52       		.byte	0x52
 1489 0a15 02       		.uleb128 0x2
 1490 0a16 74       		.byte	0x74
 1491 0a17 00       		.sleb128 0
 1492 0a18 1C       		.uleb128 0x1c
 1493 0a19 01       		.uleb128 0x1
 1494 0a1a 51       		.byte	0x51
 1495 0a1b 03       		.uleb128 0x3
 1496 0a1c F3       		.byte	0xf3
 1497 0a1d 01       		.uleb128 0x1
 1498 0a1e 51       		.byte	0x51
 1499 0a1f 00       		.byte	0
 1500 0a20 00       		.byte	0
 1501 0a21 1D       		.uleb128 0x1d
 1502 0a22 94030000 		.4byte	.LASF121
 1503 0a26 01       		.byte	0x1
 1504 0a27 68       		.byte	0x68
 1505 0a28 00000000 		.4byte	.LFB327
 1506 0a2c 18000000 		.4byte	.LFE327-.LFB327
 1507 0a30 01       		.uleb128 0x1
 1508 0a31 9C       		.byte	0x9c
 1509 0a32 6D0A0000 		.4byte	0xa6d
 1510 0a36 18       		.uleb128 0x18
 1511 0a37 6D737000 		.ascii	"msp\000"
 1512 0a3b 01       		.byte	0x1
 1513 0a3c 68       		.byte	0x68
 1514 0a3d 07090000 		.4byte	0x907
 1515 0a41 01       		.uleb128 0x1
 1516 0a42 50       		.byte	0x50
 1517 0a43 1E       		.uleb128 0x1e
 1518 0a44 20050000 		.4byte	.LASF110
 1519 0a48 01       		.byte	0x1
 1520 0a49 68       		.byte	0x68
 1521 0a4a A3070000 		.4byte	0x7a3
 1522 0a4e 01       		.uleb128 0x1
 1523 0a4f 51       		.byte	0x51
 1524 0a50 1E       		.uleb128 0x1e
 1525 0a51 E2000000 		.4byte	.LASF111
 1526 0a55 01       		.byte	0x1
 1527 0a56 69       		.byte	0x69
 1528 0a57 2C000000 		.4byte	0x2c
 1529 0a5b 01       		.uleb128 0x1
 1530 0a5c 52       		.byte	0x52
 1531 0a5d 17       		.uleb128 0x17
 1532 0a5e 656F7300 		.ascii	"eos\000"
 1533 0a62 01       		.byte	0x1
 1534 0a63 69       		.byte	0x69
 1535 0a64 2C000000 		.4byte	0x2c
 1536 0a68 07010000 		.4byte	.LLST12
 1537 0a6c 00       		.byte	0
 1538 0a6d 1A       		.uleb128 0x1a
 1539 0a6e 766D7400 		.ascii	"vmt\000"
ARM GAS  /tmp/ccMz6Lp2.s 			page 28


 1540 0a72 01       		.byte	0x1
 1541 0a73 58       		.byte	0x58
 1542 0a74 B5080000 		.4byte	0x8b5
 1543 0a78 05       		.uleb128 0x5
 1544 0a79 03       		.byte	0x3
 1545 0a7a 00000000 		.4byte	vmt
 1546 0a7e 1F       		.uleb128 0x1f
 1547 0a7f A5000000 		.4byte	.LASF117
 1548 0a83 10       		.byte	0x10
 1549 0a84 0408     		.2byte	0x804
 1550 0a86 8A0A0000 		.4byte	0xa8a
 1551 0a8a 14       		.uleb128 0x14
 1552 0a8b C8000000 		.4byte	0xc8
 1553 0a8f 20       		.uleb128 0x20
 1554 0a90 636800   		.ascii	"ch\000"
 1555 0a93 07       		.byte	0x7
 1556 0a94 C701     		.2byte	0x1c7
 1557 0a96 02040000 		.4byte	0x402
 1558 0a9a 21       		.uleb128 0x21
 1559 0a9b 14010000 		.4byte	.LASF122
 1560 0a9f A9000000 		.4byte	0xa9
 1561 0aa3 B70A0000 		.4byte	0xab7
 1562 0aa7 0F       		.uleb128 0xf
 1563 0aa8 A9000000 		.4byte	0xa9
 1564 0aac 0F       		.uleb128 0xf
 1565 0aad B70A0000 		.4byte	0xab7
 1566 0ab1 0F       		.uleb128 0xf
 1567 0ab2 A2000000 		.4byte	0xa2
 1568 0ab6 00       		.byte	0
 1569 0ab7 06       		.uleb128 0x6
 1570 0ab8 04       		.byte	0x4
 1571 0ab9 BD0A0000 		.4byte	0xabd
 1572 0abd 22       		.uleb128 0x22
 1573 0abe 00       		.byte	0
 1574              		.section	.debug_abbrev,"",%progbits
 1575              	.Ldebug_abbrev0:
 1576 0000 01       		.uleb128 0x1
 1577 0001 11       		.uleb128 0x11
 1578 0002 01       		.byte	0x1
 1579 0003 25       		.uleb128 0x25
 1580 0004 0E       		.uleb128 0xe
 1581 0005 13       		.uleb128 0x13
 1582 0006 0B       		.uleb128 0xb
 1583 0007 03       		.uleb128 0x3
 1584 0008 0E       		.uleb128 0xe
 1585 0009 1B       		.uleb128 0x1b
 1586 000a 0E       		.uleb128 0xe
 1587 000b 55       		.uleb128 0x55
 1588 000c 17       		.uleb128 0x17
 1589 000d 11       		.uleb128 0x11
 1590 000e 01       		.uleb128 0x1
 1591 000f 10       		.uleb128 0x10
 1592 0010 17       		.uleb128 0x17
 1593 0011 00       		.byte	0
 1594 0012 00       		.byte	0
 1595 0013 02       		.uleb128 0x2
 1596 0014 24       		.uleb128 0x24
ARM GAS  /tmp/ccMz6Lp2.s 			page 29


 1597 0015 00       		.byte	0
 1598 0016 0B       		.uleb128 0xb
 1599 0017 0B       		.uleb128 0xb
 1600 0018 3E       		.uleb128 0x3e
 1601 0019 0B       		.uleb128 0xb
 1602 001a 03       		.uleb128 0x3
 1603 001b 08       		.uleb128 0x8
 1604 001c 00       		.byte	0
 1605 001d 00       		.byte	0
 1606 001e 03       		.uleb128 0x3
 1607 001f 16       		.uleb128 0x16
 1608 0020 00       		.byte	0
 1609 0021 03       		.uleb128 0x3
 1610 0022 0E       		.uleb128 0xe
 1611 0023 3A       		.uleb128 0x3a
 1612 0024 0B       		.uleb128 0xb
 1613 0025 3B       		.uleb128 0x3b
 1614 0026 0B       		.uleb128 0xb
 1615 0027 49       		.uleb128 0x49
 1616 0028 13       		.uleb128 0x13
 1617 0029 00       		.byte	0
 1618 002a 00       		.byte	0
 1619 002b 04       		.uleb128 0x4
 1620 002c 24       		.uleb128 0x24
 1621 002d 00       		.byte	0
 1622 002e 0B       		.uleb128 0xb
 1623 002f 0B       		.uleb128 0xb
 1624 0030 3E       		.uleb128 0x3e
 1625 0031 0B       		.uleb128 0xb
 1626 0032 03       		.uleb128 0x3
 1627 0033 0E       		.uleb128 0xe
 1628 0034 00       		.byte	0
 1629 0035 00       		.byte	0
 1630 0036 05       		.uleb128 0x5
 1631 0037 0F       		.uleb128 0xf
 1632 0038 00       		.byte	0
 1633 0039 0B       		.uleb128 0xb
 1634 003a 0B       		.uleb128 0xb
 1635 003b 00       		.byte	0
 1636 003c 00       		.byte	0
 1637 003d 06       		.uleb128 0x6
 1638 003e 0F       		.uleb128 0xf
 1639 003f 00       		.byte	0
 1640 0040 0B       		.uleb128 0xb
 1641 0041 0B       		.uleb128 0xb
 1642 0042 49       		.uleb128 0x49
 1643 0043 13       		.uleb128 0x13
 1644 0044 00       		.byte	0
 1645 0045 00       		.byte	0
 1646 0046 07       		.uleb128 0x7
 1647 0047 26       		.uleb128 0x26
 1648 0048 00       		.byte	0
 1649 0049 49       		.uleb128 0x49
 1650 004a 13       		.uleb128 0x13
 1651 004b 00       		.byte	0
 1652 004c 00       		.byte	0
 1653 004d 08       		.uleb128 0x8
ARM GAS  /tmp/ccMz6Lp2.s 			page 30


 1654 004e 13       		.uleb128 0x13
 1655 004f 01       		.byte	0x1
 1656 0050 03       		.uleb128 0x3
 1657 0051 0E       		.uleb128 0xe
 1658 0052 0B       		.uleb128 0xb
 1659 0053 0B       		.uleb128 0xb
 1660 0054 3A       		.uleb128 0x3a
 1661 0055 0B       		.uleb128 0xb
 1662 0056 3B       		.uleb128 0x3b
 1663 0057 0B       		.uleb128 0xb
 1664 0058 01       		.uleb128 0x1
 1665 0059 13       		.uleb128 0x13
 1666 005a 00       		.byte	0
 1667 005b 00       		.byte	0
 1668 005c 09       		.uleb128 0x9
 1669 005d 0D       		.uleb128 0xd
 1670 005e 00       		.byte	0
 1671 005f 03       		.uleb128 0x3
 1672 0060 0E       		.uleb128 0xe
 1673 0061 3A       		.uleb128 0x3a
 1674 0062 0B       		.uleb128 0xb
 1675 0063 3B       		.uleb128 0x3b
 1676 0064 0B       		.uleb128 0xb
 1677 0065 49       		.uleb128 0x49
 1678 0066 13       		.uleb128 0x13
 1679 0067 38       		.uleb128 0x38
 1680 0068 0B       		.uleb128 0xb
 1681 0069 00       		.byte	0
 1682 006a 00       		.byte	0
 1683 006b 0A       		.uleb128 0xa
 1684 006c 0D       		.uleb128 0xd
 1685 006d 00       		.byte	0
 1686 006e 03       		.uleb128 0x3
 1687 006f 08       		.uleb128 0x8
 1688 0070 3A       		.uleb128 0x3a
 1689 0071 0B       		.uleb128 0xb
 1690 0072 3B       		.uleb128 0x3b
 1691 0073 0B       		.uleb128 0xb
 1692 0074 49       		.uleb128 0x49
 1693 0075 13       		.uleb128 0x13
 1694 0076 38       		.uleb128 0x38
 1695 0077 0B       		.uleb128 0xb
 1696 0078 00       		.byte	0
 1697 0079 00       		.byte	0
 1698 007a 0B       		.uleb128 0xb
 1699 007b 0D       		.uleb128 0xd
 1700 007c 00       		.byte	0
 1701 007d 03       		.uleb128 0x3
 1702 007e 08       		.uleb128 0x8
 1703 007f 3A       		.uleb128 0x3a
 1704 0080 0B       		.uleb128 0xb
 1705 0081 3B       		.uleb128 0x3b
 1706 0082 05       		.uleb128 0x5
 1707 0083 49       		.uleb128 0x49
 1708 0084 13       		.uleb128 0x13
 1709 0085 38       		.uleb128 0x38
 1710 0086 0B       		.uleb128 0xb
ARM GAS  /tmp/ccMz6Lp2.s 			page 31


 1711 0087 00       		.byte	0
 1712 0088 00       		.byte	0
 1713 0089 0C       		.uleb128 0xc
 1714 008a 0D       		.uleb128 0xd
 1715 008b 00       		.byte	0
 1716 008c 03       		.uleb128 0x3
 1717 008d 0E       		.uleb128 0xe
 1718 008e 3A       		.uleb128 0x3a
 1719 008f 0B       		.uleb128 0xb
 1720 0090 3B       		.uleb128 0x3b
 1721 0091 05       		.uleb128 0x5
 1722 0092 49       		.uleb128 0x49
 1723 0093 13       		.uleb128 0x13
 1724 0094 38       		.uleb128 0x38
 1725 0095 0B       		.uleb128 0xb
 1726 0096 00       		.byte	0
 1727 0097 00       		.byte	0
 1728 0098 0D       		.uleb128 0xd
 1729 0099 13       		.uleb128 0x13
 1730 009a 01       		.byte	0x1
 1731 009b 03       		.uleb128 0x3
 1732 009c 0E       		.uleb128 0xe
 1733 009d 0B       		.uleb128 0xb
 1734 009e 0B       		.uleb128 0xb
 1735 009f 3A       		.uleb128 0x3a
 1736 00a0 0B       		.uleb128 0xb
 1737 00a1 3B       		.uleb128 0x3b
 1738 00a2 05       		.uleb128 0x5
 1739 00a3 01       		.uleb128 0x1
 1740 00a4 13       		.uleb128 0x13
 1741 00a5 00       		.byte	0
 1742 00a6 00       		.byte	0
 1743 00a7 0E       		.uleb128 0xe
 1744 00a8 15       		.uleb128 0x15
 1745 00a9 01       		.byte	0x1
 1746 00aa 27       		.uleb128 0x27
 1747 00ab 19       		.uleb128 0x19
 1748 00ac 01       		.uleb128 0x1
 1749 00ad 13       		.uleb128 0x13
 1750 00ae 00       		.byte	0
 1751 00af 00       		.byte	0
 1752 00b0 0F       		.uleb128 0xf
 1753 00b1 05       		.uleb128 0x5
 1754 00b2 00       		.byte	0
 1755 00b3 49       		.uleb128 0x49
 1756 00b4 13       		.uleb128 0x13
 1757 00b5 00       		.byte	0
 1758 00b6 00       		.byte	0
 1759 00b7 10       		.uleb128 0x10
 1760 00b8 13       		.uleb128 0x13
 1761 00b9 01       		.byte	0x1
 1762 00ba 0B       		.uleb128 0xb
 1763 00bb 0B       		.uleb128 0xb
 1764 00bc 3A       		.uleb128 0x3a
 1765 00bd 0B       		.uleb128 0xb
 1766 00be 3B       		.uleb128 0x3b
 1767 00bf 0B       		.uleb128 0xb
ARM GAS  /tmp/ccMz6Lp2.s 			page 32


 1768 00c0 01       		.uleb128 0x1
 1769 00c1 13       		.uleb128 0x13
 1770 00c2 00       		.byte	0
 1771 00c3 00       		.byte	0
 1772 00c4 11       		.uleb128 0x11
 1773 00c5 17       		.uleb128 0x17
 1774 00c6 01       		.byte	0x1
 1775 00c7 0B       		.uleb128 0xb
 1776 00c8 0B       		.uleb128 0xb
 1777 00c9 3A       		.uleb128 0x3a
 1778 00ca 0B       		.uleb128 0xb
 1779 00cb 3B       		.uleb128 0x3b
 1780 00cc 0B       		.uleb128 0xb
 1781 00cd 01       		.uleb128 0x1
 1782 00ce 13       		.uleb128 0x13
 1783 00cf 00       		.byte	0
 1784 00d0 00       		.byte	0
 1785 00d1 12       		.uleb128 0x12
 1786 00d2 0D       		.uleb128 0xd
 1787 00d3 00       		.byte	0
 1788 00d4 03       		.uleb128 0x3
 1789 00d5 0E       		.uleb128 0xe
 1790 00d6 3A       		.uleb128 0x3a
 1791 00d7 0B       		.uleb128 0xb
 1792 00d8 3B       		.uleb128 0x3b
 1793 00d9 0B       		.uleb128 0xb
 1794 00da 49       		.uleb128 0x49
 1795 00db 13       		.uleb128 0x13
 1796 00dc 00       		.byte	0
 1797 00dd 00       		.byte	0
 1798 00de 13       		.uleb128 0x13
 1799 00df 0D       		.uleb128 0xd
 1800 00e0 00       		.byte	0
 1801 00e1 03       		.uleb128 0x3
 1802 00e2 0E       		.uleb128 0xe
 1803 00e3 3A       		.uleb128 0x3a
 1804 00e4 0B       		.uleb128 0xb
 1805 00e5 3B       		.uleb128 0x3b
 1806 00e6 05       		.uleb128 0x5
 1807 00e7 49       		.uleb128 0x49
 1808 00e8 13       		.uleb128 0x13
 1809 00e9 00       		.byte	0
 1810 00ea 00       		.byte	0
 1811 00eb 14       		.uleb128 0x14
 1812 00ec 35       		.uleb128 0x35
 1813 00ed 00       		.byte	0
 1814 00ee 49       		.uleb128 0x49
 1815 00ef 13       		.uleb128 0x13
 1816 00f0 00       		.byte	0
 1817 00f1 00       		.byte	0
 1818 00f2 15       		.uleb128 0x15
 1819 00f3 15       		.uleb128 0x15
 1820 00f4 01       		.byte	0x1
 1821 00f5 27       		.uleb128 0x27
 1822 00f6 19       		.uleb128 0x19
 1823 00f7 49       		.uleb128 0x49
 1824 00f8 13       		.uleb128 0x13
ARM GAS  /tmp/ccMz6Lp2.s 			page 33


 1825 00f9 01       		.uleb128 0x1
 1826 00fa 13       		.uleb128 0x13
 1827 00fb 00       		.byte	0
 1828 00fc 00       		.byte	0
 1829 00fd 16       		.uleb128 0x16
 1830 00fe 2E       		.uleb128 0x2e
 1831 00ff 01       		.byte	0x1
 1832 0100 03       		.uleb128 0x3
 1833 0101 0E       		.uleb128 0xe
 1834 0102 3A       		.uleb128 0x3a
 1835 0103 0B       		.uleb128 0xb
 1836 0104 3B       		.uleb128 0x3b
 1837 0105 0B       		.uleb128 0xb
 1838 0106 27       		.uleb128 0x27
 1839 0107 19       		.uleb128 0x19
 1840 0108 49       		.uleb128 0x49
 1841 0109 13       		.uleb128 0x13
 1842 010a 11       		.uleb128 0x11
 1843 010b 01       		.uleb128 0x1
 1844 010c 12       		.uleb128 0x12
 1845 010d 06       		.uleb128 0x6
 1846 010e 40       		.uleb128 0x40
 1847 010f 18       		.uleb128 0x18
 1848 0110 9742     		.uleb128 0x2117
 1849 0112 19       		.uleb128 0x19
 1850 0113 01       		.uleb128 0x1
 1851 0114 13       		.uleb128 0x13
 1852 0115 00       		.byte	0
 1853 0116 00       		.byte	0
 1854 0117 17       		.uleb128 0x17
 1855 0118 05       		.uleb128 0x5
 1856 0119 00       		.byte	0
 1857 011a 03       		.uleb128 0x3
 1858 011b 08       		.uleb128 0x8
 1859 011c 3A       		.uleb128 0x3a
 1860 011d 0B       		.uleb128 0xb
 1861 011e 3B       		.uleb128 0x3b
 1862 011f 0B       		.uleb128 0xb
 1863 0120 49       		.uleb128 0x49
 1864 0121 13       		.uleb128 0x13
 1865 0122 02       		.uleb128 0x2
 1866 0123 17       		.uleb128 0x17
 1867 0124 00       		.byte	0
 1868 0125 00       		.byte	0
 1869 0126 18       		.uleb128 0x18
 1870 0127 05       		.uleb128 0x5
 1871 0128 00       		.byte	0
 1872 0129 03       		.uleb128 0x3
 1873 012a 08       		.uleb128 0x8
 1874 012b 3A       		.uleb128 0x3a
 1875 012c 0B       		.uleb128 0xb
 1876 012d 3B       		.uleb128 0x3b
 1877 012e 0B       		.uleb128 0xb
 1878 012f 49       		.uleb128 0x49
 1879 0130 13       		.uleb128 0x13
 1880 0131 02       		.uleb128 0x2
 1881 0132 18       		.uleb128 0x18
ARM GAS  /tmp/ccMz6Lp2.s 			page 34


 1882 0133 00       		.byte	0
 1883 0134 00       		.byte	0
 1884 0135 19       		.uleb128 0x19
 1885 0136 34       		.uleb128 0x34
 1886 0137 00       		.byte	0
 1887 0138 03       		.uleb128 0x3
 1888 0139 08       		.uleb128 0x8
 1889 013a 3A       		.uleb128 0x3a
 1890 013b 0B       		.uleb128 0xb
 1891 013c 3B       		.uleb128 0x3b
 1892 013d 0B       		.uleb128 0xb
 1893 013e 49       		.uleb128 0x49
 1894 013f 13       		.uleb128 0x13
 1895 0140 02       		.uleb128 0x2
 1896 0141 17       		.uleb128 0x17
 1897 0142 00       		.byte	0
 1898 0143 00       		.byte	0
 1899 0144 1A       		.uleb128 0x1a
 1900 0145 34       		.uleb128 0x34
 1901 0146 00       		.byte	0
 1902 0147 03       		.uleb128 0x3
 1903 0148 08       		.uleb128 0x8
 1904 0149 3A       		.uleb128 0x3a
 1905 014a 0B       		.uleb128 0xb
 1906 014b 3B       		.uleb128 0x3b
 1907 014c 0B       		.uleb128 0xb
 1908 014d 49       		.uleb128 0x49
 1909 014e 13       		.uleb128 0x13
 1910 014f 02       		.uleb128 0x2
 1911 0150 18       		.uleb128 0x18
 1912 0151 00       		.byte	0
 1913 0152 00       		.byte	0
 1914 0153 1B       		.uleb128 0x1b
 1915 0154 898201   		.uleb128 0x4109
 1916 0157 01       		.byte	0x1
 1917 0158 11       		.uleb128 0x11
 1918 0159 01       		.uleb128 0x1
 1919 015a 31       		.uleb128 0x31
 1920 015b 13       		.uleb128 0x13
 1921 015c 00       		.byte	0
 1922 015d 00       		.byte	0
 1923 015e 1C       		.uleb128 0x1c
 1924 015f 8A8201   		.uleb128 0x410a
 1925 0162 00       		.byte	0
 1926 0163 02       		.uleb128 0x2
 1927 0164 18       		.uleb128 0x18
 1928 0165 9142     		.uleb128 0x2111
 1929 0167 18       		.uleb128 0x18
 1930 0168 00       		.byte	0
 1931 0169 00       		.byte	0
 1932 016a 1D       		.uleb128 0x1d
 1933 016b 2E       		.uleb128 0x2e
 1934 016c 01       		.byte	0x1
 1935 016d 3F       		.uleb128 0x3f
 1936 016e 19       		.uleb128 0x19
 1937 016f 03       		.uleb128 0x3
 1938 0170 0E       		.uleb128 0xe
ARM GAS  /tmp/ccMz6Lp2.s 			page 35


 1939 0171 3A       		.uleb128 0x3a
 1940 0172 0B       		.uleb128 0xb
 1941 0173 3B       		.uleb128 0x3b
 1942 0174 0B       		.uleb128 0xb
 1943 0175 27       		.uleb128 0x27
 1944 0176 19       		.uleb128 0x19
 1945 0177 11       		.uleb128 0x11
 1946 0178 01       		.uleb128 0x1
 1947 0179 12       		.uleb128 0x12
 1948 017a 06       		.uleb128 0x6
 1949 017b 40       		.uleb128 0x40
 1950 017c 18       		.uleb128 0x18
 1951 017d 9742     		.uleb128 0x2117
 1952 017f 19       		.uleb128 0x19
 1953 0180 01       		.uleb128 0x1
 1954 0181 13       		.uleb128 0x13
 1955 0182 00       		.byte	0
 1956 0183 00       		.byte	0
 1957 0184 1E       		.uleb128 0x1e
 1958 0185 05       		.uleb128 0x5
 1959 0186 00       		.byte	0
 1960 0187 03       		.uleb128 0x3
 1961 0188 0E       		.uleb128 0xe
 1962 0189 3A       		.uleb128 0x3a
 1963 018a 0B       		.uleb128 0xb
 1964 018b 3B       		.uleb128 0x3b
 1965 018c 0B       		.uleb128 0xb
 1966 018d 49       		.uleb128 0x49
 1967 018e 13       		.uleb128 0x13
 1968 018f 02       		.uleb128 0x2
 1969 0190 18       		.uleb128 0x18
 1970 0191 00       		.byte	0
 1971 0192 00       		.byte	0
 1972 0193 1F       		.uleb128 0x1f
 1973 0194 34       		.uleb128 0x34
 1974 0195 00       		.byte	0
 1975 0196 03       		.uleb128 0x3
 1976 0197 0E       		.uleb128 0xe
 1977 0198 3A       		.uleb128 0x3a
 1978 0199 0B       		.uleb128 0xb
 1979 019a 3B       		.uleb128 0x3b
 1980 019b 05       		.uleb128 0x5
 1981 019c 49       		.uleb128 0x49
 1982 019d 13       		.uleb128 0x13
 1983 019e 3F       		.uleb128 0x3f
 1984 019f 19       		.uleb128 0x19
 1985 01a0 3C       		.uleb128 0x3c
 1986 01a1 19       		.uleb128 0x19
 1987 01a2 00       		.byte	0
 1988 01a3 00       		.byte	0
 1989 01a4 20       		.uleb128 0x20
 1990 01a5 34       		.uleb128 0x34
 1991 01a6 00       		.byte	0
 1992 01a7 03       		.uleb128 0x3
 1993 01a8 08       		.uleb128 0x8
 1994 01a9 3A       		.uleb128 0x3a
 1995 01aa 0B       		.uleb128 0xb
ARM GAS  /tmp/ccMz6Lp2.s 			page 36


 1996 01ab 3B       		.uleb128 0x3b
 1997 01ac 05       		.uleb128 0x5
 1998 01ad 49       		.uleb128 0x49
 1999 01ae 13       		.uleb128 0x13
 2000 01af 3F       		.uleb128 0x3f
 2001 01b0 19       		.uleb128 0x19
 2002 01b1 3C       		.uleb128 0x3c
 2003 01b2 19       		.uleb128 0x19
 2004 01b3 00       		.byte	0
 2005 01b4 00       		.byte	0
 2006 01b5 21       		.uleb128 0x21
 2007 01b6 2E       		.uleb128 0x2e
 2008 01b7 01       		.byte	0x1
 2009 01b8 3F       		.uleb128 0x3f
 2010 01b9 19       		.uleb128 0x19
 2011 01ba 03       		.uleb128 0x3
 2012 01bb 0E       		.uleb128 0xe
 2013 01bc 27       		.uleb128 0x27
 2014 01bd 19       		.uleb128 0x19
 2015 01be 49       		.uleb128 0x49
 2016 01bf 13       		.uleb128 0x13
 2017 01c0 34       		.uleb128 0x34
 2018 01c1 19       		.uleb128 0x19
 2019 01c2 3C       		.uleb128 0x3c
 2020 01c3 19       		.uleb128 0x19
 2021 01c4 01       		.uleb128 0x1
 2022 01c5 13       		.uleb128 0x13
 2023 01c6 00       		.byte	0
 2024 01c7 00       		.byte	0
 2025 01c8 22       		.uleb128 0x22
 2026 01c9 26       		.uleb128 0x26
 2027 01ca 00       		.byte	0
 2028 01cb 00       		.byte	0
 2029 01cc 00       		.byte	0
 2030 01cd 00       		.byte	0
 2031              		.section	.debug_loc,"",%progbits
 2032              	.Ldebug_loc0:
 2033              	.LLST0:
 2034 0000 00000000 		.4byte	.LVL0
 2035 0004 16000000 		.4byte	.LVL1
 2036 0008 0100     		.2byte	0x1
 2037 000a 50       		.byte	0x50
 2038 000b 16000000 		.4byte	.LVL1
 2039 000f 1C000000 		.4byte	.LFE325
 2040 0013 0400     		.2byte	0x4
 2041 0015 F3       		.byte	0xf3
 2042 0016 01       		.uleb128 0x1
 2043 0017 50       		.byte	0x50
 2044 0018 9F       		.byte	0x9f
 2045 0019 00000000 		.4byte	0
 2046 001d 00000000 		.4byte	0
 2047              	.LLST2:
 2048 0021 00000000 		.4byte	.LVL2
 2049 0025 14000000 		.4byte	.LVL4
 2050 0029 0100     		.2byte	0x1
 2051 002b 50       		.byte	0x50
 2052 002c 14000000 		.4byte	.LVL4
ARM GAS  /tmp/ccMz6Lp2.s 			page 37


 2053 0030 1A000000 		.4byte	.LFE326
 2054 0034 0400     		.2byte	0x4
 2055 0036 F3       		.byte	0xf3
 2056 0037 01       		.uleb128 0x1
 2057 0038 50       		.byte	0x50
 2058 0039 9F       		.byte	0x9f
 2059 003a 00000000 		.4byte	0
 2060 003e 00000000 		.4byte	0
 2061              	.LLST4:
 2062 0042 00000000 		.4byte	.LVL5
 2063 0046 14000000 		.4byte	.LVL7
 2064 004a 0100     		.2byte	0x1
 2065 004c 50       		.byte	0x50
 2066 004d 14000000 		.4byte	.LVL7
 2067 0051 26000000 		.4byte	.LFE324
 2068 0055 0100     		.2byte	0x1
 2069 0057 55       		.byte	0x55
 2070 0058 00000000 		.4byte	0
 2071 005c 00000000 		.4byte	0
 2072              	.LLST5:
 2073 0060 00000000 		.4byte	.LVL5
 2074 0064 16000000 		.4byte	.LVL8
 2075 0068 0100     		.2byte	0x1
 2076 006a 51       		.byte	0x51
 2077 006b 16000000 		.4byte	.LVL8
 2078 006f 1B000000 		.4byte	.LVL9-1
 2079 0073 0100     		.2byte	0x1
 2080 0075 50       		.byte	0x50
 2081 0076 1B000000 		.4byte	.LVL9-1
 2082 007a 26000000 		.4byte	.LFE324
 2083 007e 0400     		.2byte	0x4
 2084 0080 F3       		.byte	0xf3
 2085 0081 01       		.uleb128 0x1
 2086 0082 51       		.byte	0x51
 2087 0083 9F       		.byte	0x9f
 2088 0084 00000000 		.4byte	0
 2089 0088 00000000 		.4byte	0
 2090              	.LLST6:
 2091 008c 00000000 		.4byte	.LVL5
 2092 0090 0E000000 		.4byte	.LVL6
 2093 0094 0100     		.2byte	0x1
 2094 0096 52       		.byte	0x52
 2095 0097 0E000000 		.4byte	.LVL6
 2096 009b 26000000 		.4byte	.LFE324
 2097 009f 0100     		.2byte	0x1
 2098 00a1 54       		.byte	0x54
 2099 00a2 00000000 		.4byte	0
 2100 00a6 00000000 		.4byte	0
 2101              	.LLST8:
 2102 00aa 00000000 		.4byte	.LVL10
 2103 00ae 0E000000 		.4byte	.LVL11
 2104 00b2 0100     		.2byte	0x1
 2105 00b4 50       		.byte	0x50
 2106 00b5 0E000000 		.4byte	.LVL11
 2107 00b9 24000000 		.4byte	.LFE323
 2108 00bd 0100     		.2byte	0x1
 2109 00bf 55       		.byte	0x55
ARM GAS  /tmp/ccMz6Lp2.s 			page 38


 2110 00c0 00000000 		.4byte	0
 2111 00c4 00000000 		.4byte	0
 2112              	.LLST9:
 2113 00c8 00000000 		.4byte	.LVL10
 2114 00cc 19000000 		.4byte	.LVL13-1
 2115 00d0 0100     		.2byte	0x1
 2116 00d2 51       		.byte	0x51
 2117 00d3 19000000 		.4byte	.LVL13-1
 2118 00d7 24000000 		.4byte	.LFE323
 2119 00db 0400     		.2byte	0x4
 2120 00dd F3       		.byte	0xf3
 2121 00de 01       		.uleb128 0x1
 2122 00df 51       		.byte	0x51
 2123 00e0 9F       		.byte	0x9f
 2124 00e1 00000000 		.4byte	0
 2125 00e5 00000000 		.4byte	0
 2126              	.LLST10:
 2127 00e9 00000000 		.4byte	.LVL10
 2128 00ed 12000000 		.4byte	.LVL12
 2129 00f1 0100     		.2byte	0x1
 2130 00f3 52       		.byte	0x52
 2131 00f4 12000000 		.4byte	.LVL12
 2132 00f8 24000000 		.4byte	.LFE323
 2133 00fc 0100     		.2byte	0x1
 2134 00fe 54       		.byte	0x54
 2135 00ff 00000000 		.4byte	0
 2136 0103 00000000 		.4byte	0
 2137              	.LLST12:
 2138 0107 00000000 		.4byte	.LVL14
 2139 010b 0A000000 		.4byte	.LVL15
 2140 010f 0100     		.2byte	0x1
 2141 0111 53       		.byte	0x53
 2142 0112 0A000000 		.4byte	.LVL15
 2143 0116 18000000 		.4byte	.LFE327
 2144 011a 0200     		.2byte	0x2
 2145 011c 70       		.byte	0x70
 2146 011d 0C       		.sleb128 12
 2147 011e 00000000 		.4byte	0
 2148 0122 00000000 		.4byte	0
 2149              		.section	.debug_aranges,"",%progbits
 2150 0000 3C000000 		.4byte	0x3c
 2151 0004 0200     		.2byte	0x2
 2152 0006 00000000 		.4byte	.Ldebug_info0
 2153 000a 04       		.byte	0x4
 2154 000b 00       		.byte	0
 2155 000c 0000     		.2byte	0
 2156 000e 0000     		.2byte	0
 2157 0010 00000000 		.4byte	.LFB325
 2158 0014 1C000000 		.4byte	.LFE325-.LFB325
 2159 0018 00000000 		.4byte	.LFB326
 2160 001c 1A000000 		.4byte	.LFE326-.LFB326
 2161 0020 00000000 		.4byte	.LFB324
 2162 0024 26000000 		.4byte	.LFE324-.LFB324
 2163 0028 00000000 		.4byte	.LFB323
 2164 002c 24000000 		.4byte	.LFE323-.LFB323
 2165 0030 00000000 		.4byte	.LFB327
 2166 0034 18000000 		.4byte	.LFE327-.LFB327
ARM GAS  /tmp/ccMz6Lp2.s 			page 39


 2167 0038 00000000 		.4byte	0
 2168 003c 00000000 		.4byte	0
 2169              		.section	.debug_ranges,"",%progbits
 2170              	.Ldebug_ranges0:
 2171 0000 00000000 		.4byte	.LFB325
 2172 0004 1C000000 		.4byte	.LFE325
 2173 0008 00000000 		.4byte	.LFB326
 2174 000c 1A000000 		.4byte	.LFE326
 2175 0010 00000000 		.4byte	.LFB324
 2176 0014 26000000 		.4byte	.LFE324
 2177 0018 00000000 		.4byte	.LFB323
 2178 001c 24000000 		.4byte	.LFE323
 2179 0020 00000000 		.4byte	.LFB327
 2180 0024 18000000 		.4byte	.LFE327
 2181 0028 00000000 		.4byte	0
 2182 002c 00000000 		.4byte	0
 2183              		.section	.debug_line,"",%progbits
 2184              	.Ldebug_line0:
 2185 0000 AA020000 		.section	.debug_str,"MS",%progbits,1
 2185      02003902 
 2185      00000201 
 2185      FB0E0D00 
 2185      01010101 
 2186              	.LASF21:
 2187 0000 72747469 		.ascii	"rttime_t\000"
 2187      6D655F74 
 2187      00
 2188              	.LASF55:
 2189 0009 72656164 		.ascii	"ready_list_t\000"
 2189      795F6C69 
 2189      73745F74 
 2189      00
 2190              	.LASF2:
 2191 0016 73697A65 		.ascii	"size_t\000"
 2191      5F7400
 2192              	.LASF93:
 2193 001d 7264796D 		.ascii	"rdymsg\000"
 2193      736700
 2194              	.LASF19:
 2195 0024 75696E74 		.ascii	"uint64_t\000"
 2195      36345F74 
 2195      00
 2196              	.LASF74:
 2197 002d 6B65726E 		.ascii	"kernel_stats\000"
 2197      656C5F73 
 2197      74617473 
 2197      00
 2198              	.LASF3:
 2199 003a 5F5F7569 		.ascii	"__uint8_t\000"
 2199      6E74385F 
 2199      7400
 2200              	.LASF54:
 2201 0044 70726576 		.ascii	"prev\000"
 2201      00
 2202              	.LASF80:
 2203 0049 706F7274 		.ascii	"port_intctx\000"
 2203      5F696E74 
ARM GAS  /tmp/ccMz6Lp2.s 			page 40


 2203      63747800 
 2204              	.LASF72:
 2205 0055 76746C69 		.ascii	"vtlist\000"
 2205      737400
 2206              	.LASF84:
 2207 005c 776F7273 		.ascii	"worst\000"
 2207      7400
 2208              	.LASF87:
 2209 0062 74696D65 		.ascii	"time_measurement_t\000"
 2209      5F6D6561 
 2209      73757265 
 2209      6D656E74 
 2209      5F7400
 2210              	.LASF13:
 2211 0075 6C6F6E67 		.ascii	"long long unsigned int\000"
 2211      206C6F6E 
 2211      6720756E 
 2211      7369676E 
 2211      65642069 
 2212              	.LASF73:
 2213 008c 6D61696E 		.ascii	"mainthread\000"
 2213      74687265 
 2213      616400
 2214              	.LASF97:
 2215 0097 73656E74 		.ascii	"sentmsg\000"
 2215      6D736700 
 2216              	.LASF61:
 2217 009f 64656C74 		.ascii	"delta\000"
 2217      6100
 2218              	.LASF117:
 2219 00a5 49544D5F 		.ascii	"ITM_RxBuffer\000"
 2219      52784275 
 2219      66666572 
 2219      00
 2220              	.LASF51:
 2221 00b2 6E657874 		.ascii	"next\000"
 2221      00
 2222              	.LASF53:
 2223 00b7 63685F74 		.ascii	"ch_threads_queue\000"
 2223      68726561 
 2223      64735F71 
 2223      75657565 
 2223      00
 2224              	.LASF11:
 2225 00c8 6C6F6E67 		.ascii	"long long int\000"
 2225      206C6F6E 
 2225      6720696E 
 2225      7400
 2226              	.LASF1:
 2227 00d6 7369676E 		.ascii	"signed char\000"
 2227      65642063 
 2227      68617200 
 2228              	.LASF111:
 2229 00e2 73697A65 		.ascii	"size\000"
 2229      00
 2230              	.LASF95:
 2231 00e7 77746F62 		.ascii	"wtobjp\000"
ARM GAS  /tmp/ccMz6Lp2.s 			page 41


 2231      6A7000
 2232              	.LASF41:
 2233 00ee 6D736771 		.ascii	"msgqueue\000"
 2233      75657565 
 2233      00
 2234              	.LASF37:
 2235 00f7 73746174 		.ascii	"state\000"
 2235      6500
 2236              	.LASF8:
 2237 00fd 6C6F6E67 		.ascii	"long int\000"
 2237      20696E74 
 2237      00
 2238              	.LASF23:
 2239 0106 74737461 		.ascii	"tstate_t\000"
 2239      74655F74 
 2239      00
 2240              	.LASF62:
 2241 010f 66756E63 		.ascii	"func\000"
 2241      00
 2242              	.LASF122:
 2243 0114 6D656D63 		.ascii	"memcpy\000"
 2243      707900
 2244              	.LASF46:
 2245 011b 73746174 		.ascii	"stats\000"
 2245      7300
 2246              	.LASF94:
 2247 0121 65786974 		.ascii	"exitcode\000"
 2247      636F6465 
 2247      00
 2248              	.LASF9:
 2249 012a 5F5F7569 		.ascii	"__uint32_t\000"
 2249      6E743332 
 2249      5F7400
 2250              	.LASF77:
 2251 0135 72656761 		.ascii	"regarm_t\000"
 2251      726D5F74 
 2251      00
 2252              	.LASF67:
 2253 013e 63685F73 		.ascii	"ch_system_debug\000"
 2253      79737465 
 2253      6D5F6465 
 2253      62756700 
 2254              	.LASF40:
 2255 014e 77616974 		.ascii	"waiting\000"
 2255      696E6700 
 2256              	.LASF104:
 2257 0156 6D757465 		.ascii	"mutex_t\000"
 2257      785F7400 
 2258              	.LASF76:
 2259 015e 73797369 		.ascii	"sysinterval_t\000"
 2259      6E746572 
 2259      76616C5F 
 2259      7400
 2260              	.LASF28:
 2261 016c 636E745F 		.ascii	"cnt_t\000"
 2261      7400
 2262              	.LASF0:
ARM GAS  /tmp/ccMz6Lp2.s 			page 42


 2263 0172 756E7369 		.ascii	"unsigned int\000"
 2263      676E6564 
 2263      20696E74 
 2263      00
 2264              	.LASF118:
 2265 017f 474E5520 		.ascii	"GNU C 4.9.3 20150529 (prerelease) -mcpu=cortex-m4 -"
 2265      4320342E 
 2265      392E3320 
 2265      32303135 
 2265      30353239 
 2266 01b2 6D666C6F 		.ascii	"mfloat-abi=hard -mfpu=fpv4-sp-d16 -mno-thumb-interw"
 2266      61742D61 
 2266      62693D68 
 2266      61726420 
 2266      2D6D6670 
 2267 01e5 6F726B20 		.ascii	"ork -mthumb -g -Os -fomit-frame-pointer -falign-fun"
 2267      2D6D7468 
 2267      756D6220 
 2267      2D67202D 
 2267      4F73202D 
 2268 0218 6374696F 		.ascii	"ctions=16 -ffunction-sections -fdata-sections -fno-"
 2268      6E733D31 
 2268      36202D66 
 2268      66756E63 
 2268      74696F6E 
 2269 024b 636F6D6D 		.ascii	"common -fsingle-precision-constant\000"
 2269      6F6E202D 
 2269      6673696E 
 2269      676C652D 
 2269      70726563 
 2270              	.LASF98:
 2271 026e 77747365 		.ascii	"wtsemp\000"
 2271      6D7000
 2272              	.LASF66:
 2273 0275 73797374 		.ascii	"system_debug_t\000"
 2273      656D5F64 
 2273      65627567 
 2273      5F7400
 2274              	.LASF88:
 2275 0284 6E5F6972 		.ascii	"n_irq\000"
 2275      7100
 2276              	.LASF31:
 2277 028a 71756575 		.ascii	"queue\000"
 2277      6500
 2278              	.LASF35:
 2279 0290 6E616D65 		.ascii	"name\000"
 2279      00
 2280              	.LASF6:
 2281 0295 73686F72 		.ascii	"short unsigned int\000"
 2281      7420756E 
 2281      7369676E 
 2281      65642069 
 2281      6E7400
 2282              	.LASF92:
 2283 02a8 6B65726E 		.ascii	"kernel_stats_t\000"
 2283      656C5F73 
 2283      74617473 
ARM GAS  /tmp/ccMz6Lp2.s 			page 43


 2283      5F7400
 2284              	.LASF49:
 2285 02b7 63685F74 		.ascii	"ch_thread\000"
 2285      68726561 
 2285      6400
 2286              	.LASF26:
 2287 02c1 6D73675F 		.ascii	"msg_t\000"
 2287      7400
 2288              	.LASF85:
 2289 02c7 6C617374 		.ascii	"last\000"
 2289      00
 2290              	.LASF29:
 2291 02cc 75636E74 		.ascii	"ucnt_t\000"
 2291      5F7400
 2292              	.LASF42:
 2293 02d3 6570656E 		.ascii	"epending\000"
 2293      64696E67 
 2293      00
 2294              	.LASF69:
 2295 02dc 63685F73 		.ascii	"ch_system_t\000"
 2295      79737465 
 2295      6D5F7400 
 2296              	.LASF22:
 2297 02e8 746D6F64 		.ascii	"tmode_t\000"
 2297      655F7400 
 2298              	.LASF91:
 2299 02f0 6D5F6372 		.ascii	"m_crit_isr\000"
 2299      69745F69 
 2299      737200
 2300              	.LASF56:
 2301 02fb 63685F72 		.ascii	"ch_ready_list\000"
 2301      65616479 
 2301      5F6C6973 
 2301      7400
 2302              	.LASF27:
 2303 0309 6576656E 		.ascii	"eventmask_t\000"
 2303      746D6173 
 2303      6B5F7400 
 2304              	.LASF7:
 2305 0315 5F5F696E 		.ascii	"__int32_t\000"
 2305      7433325F 
 2305      7400
 2306              	.LASF63:
 2307 031f 76697274 		.ascii	"virtual_timers_list_t\000"
 2307      75616C5F 
 2307      74696D65 
 2307      72735F6C 
 2307      6973745F 
 2308              	.LASF78:
 2309 0335 73746B61 		.ascii	"stkalign_t\000"
 2309      6C69676E 
 2309      5F7400
 2310              	.LASF33:
 2311 0340 6E657765 		.ascii	"newer\000"
 2311      7200
 2312              	.LASF108:
 2313 0346 77726974 		.ascii	"write\000"
ARM GAS  /tmp/ccMz6Lp2.s 			page 44


 2313      6500
 2314              	.LASF115:
 2315 034c 5F726561 		.ascii	"_reads\000"
 2315      647300
 2316              	.LASF44:
 2317 0353 7265616C 		.ascii	"realprio\000"
 2317      7072696F 
 2317      00
 2318              	.LASF20:
 2319 035c 7274636E 		.ascii	"rtcnt_t\000"
 2319      745F7400 
 2320              	.LASF47:
 2321 0364 74687265 		.ascii	"thread_reference_t\000"
 2321      61645F72 
 2321      65666572 
 2321      656E6365 
 2321      5F7400
 2322              	.LASF64:
 2323 0377 63685F76 		.ascii	"ch_virtual_timers_list\000"
 2323      69727475 
 2323      616C5F74 
 2323      696D6572 
 2323      735F6C69 
 2324              	.LASF96:
 2325 038e 77747472 		.ascii	"wttrp\000"
 2325      7000
 2326              	.LASF121:
 2327 0394 6D734F62 		.ascii	"msObjectInit\000"
 2327      6A656374 
 2327      496E6974 
 2327      00
 2328              	.LASF79:
 2329 03a1 706F7274 		.ascii	"port_context\000"
 2329      5F636F6E 
 2329      74657874 
 2329      00
 2330              	.LASF82:
 2331 03ae 746D5F63 		.ascii	"tm_calibration_t\000"
 2331      616C6962 
 2331      72617469 
 2331      6F6E5F74 
 2331      00
 2332              	.LASF32:
 2333 03bf 7072696F 		.ascii	"prio\000"
 2333      00
 2334              	.LASF57:
 2335 03c4 63757272 		.ascii	"current\000"
 2335      656E7400 
 2336              	.LASF106:
 2337 03cc 4D656D53 		.ascii	"MemStreamVMT\000"
 2337      74726561 
 2337      6D564D54 
 2337      00
 2338              	.LASF12:
 2339 03d9 5F5F7569 		.ascii	"__uint64_t\000"
 2339      6E743634 
 2339      5F7400
ARM GAS  /tmp/ccMz6Lp2.s 			page 45


 2340              	.LASF86:
 2341 03e4 63756D75 		.ascii	"cumulative\000"
 2341      6C617469 
 2341      766500
 2342              	.LASF39:
 2343 03ef 72656673 		.ascii	"refs\000"
 2343      00
 2344              	.LASF59:
 2345 03f4 76697274 		.ascii	"virtual_timer_t\000"
 2345      75616C5F 
 2345      74696D65 
 2345      725F7400 
 2346              	.LASF25:
 2347 0404 74707269 		.ascii	"tprio_t\000"
 2347      6F5F7400 
 2348              	.LASF112:
 2349 040c 4D656D6F 		.ascii	"MemoryStream\000"
 2349      72795374 
 2349      7265616D 
 2349      00
 2350              	.LASF89:
 2351 0419 6E5F6374 		.ascii	"n_ctxswc\000"
 2351      78737763 
 2351      00
 2352              	.LASF105:
 2353 0422 5F426F6F 		.ascii	"_Bool\000"
 2353      6C00
 2354              	.LASF17:
 2355 0428 696E7433 		.ascii	"int32_t\000"
 2355      325F7400 
 2356              	.LASF4:
 2357 0430 756E7369 		.ascii	"unsigned char\000"
 2357      676E6564 
 2357      20636861 
 2357      7200
 2358              	.LASF5:
 2359 043e 73686F72 		.ascii	"short int\000"
 2359      7420696E 
 2359      7400
 2360              	.LASF65:
 2361 0448 6C617374 		.ascii	"lasttime\000"
 2361      74696D65 
 2361      00
 2362              	.LASF100:
 2363 0451 65776D61 		.ascii	"ewmask\000"
 2363      736B00
 2364              	.LASF70:
 2365 0458 63685F73 		.ascii	"ch_system\000"
 2365      79737465 
 2365      6D00
 2366              	.LASF60:
 2367 0462 63685F76 		.ascii	"ch_virtual_timer\000"
 2367      69727475 
 2367      616C5F74 
 2367      696D6572 
 2367      00
 2368              	.LASF101:
ARM GAS  /tmp/ccMz6Lp2.s 			page 46


 2369 0473 63685F73 		.ascii	"ch_semaphore\000"
 2369      656D6170 
 2369      686F7265 
 2369      00
 2370              	.LASF18:
 2371 0480 75696E74 		.ascii	"uint32_t\000"
 2371      33325F74 
 2371      00
 2372              	.LASF99:
 2373 0489 77746D74 		.ascii	"wtmtxp\000"
 2373      787000
 2374              	.LASF24:
 2375 0490 74726566 		.ascii	"trefs_t\000"
 2375      735F7400 
 2376              	.LASF50:
 2377 0498 63685F74 		.ascii	"ch_threads_list\000"
 2377      68726561 
 2377      64735F6C 
 2377      69737400 
 2378              	.LASF103:
 2379 04a8 6F776E65 		.ascii	"owner\000"
 2379      7200
 2380              	.LASF10:
 2381 04ae 6C6F6E67 		.ascii	"long unsigned int\000"
 2381      20756E73 
 2381      69676E65 
 2381      6420696E 
 2381      7400
 2382              	.LASF36:
 2383 04c0 77616261 		.ascii	"wabase\000"
 2383      736500
 2384              	.LASF15:
 2385 04c7 63686172 		.ascii	"char\000"
 2385      00
 2386              	.LASF34:
 2387 04cc 6F6C6465 		.ascii	"older\000"
 2387      7200
 2388              	.LASF119:
 2389 04d2 2E2E2F2E 		.ascii	"../../modules/ChibiOS/os/hal/lib/streams/memstreams"
 2389      2E2F6D6F 
 2389      64756C65 
 2389      732F4368 
 2389      6962694F 
 2390 0505 2E6300   		.ascii	".c\000"
 2391              	.LASF30:
 2392 0508 74687265 		.ascii	"thread_t\000"
 2392      61645F74 
 2392      00
 2393              	.LASF83:
 2394 0511 62657374 		.ascii	"best\000"
 2394      00
 2395              	.LASF75:
 2396 0516 73797374 		.ascii	"systime_t\000"
 2396      696D655F 
 2396      7400
 2397              	.LASF110:
 2398 0520 62756666 		.ascii	"buffer\000"
ARM GAS  /tmp/ccMz6Lp2.s 			page 47


 2398      657200
 2399              	.LASF68:
 2400 0527 70616E69 		.ascii	"panic_msg\000"
 2400      635F6D73 
 2400      6700
 2401              	.LASF81:
 2402 0531 6F666673 		.ascii	"offset\000"
 2402      657400
 2403              	.LASF120:
 2404 0538 2F686F6D 		.ascii	"/home/kozinalexey/f4by/ardupilot/build/F4BY\000"
 2404      652F6B6F 
 2404      7A696E61 
 2404      6C657865 
 2404      792F6634 
 2405              	.LASF116:
 2406 0564 5F777269 		.ascii	"_writes\000"
 2406      74657300 
 2407              	.LASF45:
 2408 056c 6D706F6F 		.ascii	"mpool\000"
 2408      6C00
 2409              	.LASF52:
 2410 0572 74687265 		.ascii	"threads_queue_t\000"
 2410      6164735F 
 2410      71756575 
 2410      655F7400 
 2411              	.LASF102:
 2412 0582 63685F6D 		.ascii	"ch_mutex\000"
 2412      75746578 
 2412      00
 2413              	.LASF71:
 2414 058b 726C6973 		.ascii	"rlist\000"
 2414      7400
 2415              	.LASF16:
 2416 0591 75696E74 		.ascii	"uint8_t\000"
 2416      385F7400 
 2417              	.LASF38:
 2418 0599 666C6167 		.ascii	"flags\000"
 2418      7300
 2419              	.LASF114:
 2420 059f 5F676574 		.ascii	"_get\000"
 2420      00
 2421              	.LASF14:
 2422 05a4 73697A65 		.ascii	"sizetype\000"
 2422      74797065 
 2422      00
 2423              	.LASF109:
 2424 05ad 72656164 		.ascii	"read\000"
 2424      00
 2425              	.LASF48:
 2426 05b2 74687265 		.ascii	"threads_list_t\000"
 2426      6164735F 
 2426      6C697374 
 2426      5F7400
 2427              	.LASF58:
 2428 05c1 76746675 		.ascii	"vtfunc_t\000"
 2428      6E635F74 
 2428      00
ARM GAS  /tmp/ccMz6Lp2.s 			page 48


 2429              	.LASF107:
 2430 05ca 696E7374 		.ascii	"instance_offset\000"
 2430      616E6365 
 2430      5F6F6666 
 2430      73657400 
 2431              	.LASF43:
 2432 05da 6D74786C 		.ascii	"mtxlist\000"
 2432      69737400 
 2433              	.LASF90:
 2434 05e2 6D5F6372 		.ascii	"m_crit_thd\000"
 2434      69745F74 
 2434      686400
 2435              	.LASF113:
 2436 05ed 5F707574 		.ascii	"_put\000"
 2436      00
 2437              		.ident	"GCC: (15:4.9.3+svn231177-1) 4.9.3 20150529 (prerelease)"
ARM GAS  /tmp/ccMz6Lp2.s 			page 49


DEFINED SYMBOLS
                            *ABS*:0000000000000000 memstreams.c
     /tmp/ccMz6Lp2.s:21     .text._put:0000000000000000 $t
     /tmp/ccMz6Lp2.s:25     .text._put:0000000000000000 _put
     /tmp/ccMz6Lp2.s:58     .text._get:0000000000000000 $t
     /tmp/ccMz6Lp2.s:62     .text._get:0000000000000000 _get
     /tmp/ccMz6Lp2.s:94     .text._reads:0000000000000000 $t
     /tmp/ccMz6Lp2.s:98     .text._reads:0000000000000000 _reads
     /tmp/ccMz6Lp2.s:142    .text._writes:0000000000000000 $t
     /tmp/ccMz6Lp2.s:146    .text._writes:0000000000000000 _writes
     /tmp/ccMz6Lp2.s:187    .text.msObjectInit:0000000000000000 $t
     /tmp/ccMz6Lp2.s:192    .text.msObjectInit:0000000000000000 msObjectInit
     /tmp/ccMz6Lp2.s:221    .text.msObjectInit:0000000000000014 $d
     /tmp/ccMz6Lp2.s:226    .rodata.vmt:0000000000000000 $d
     /tmp/ccMz6Lp2.s:230    .rodata.vmt:0000000000000000 vmt
                     .debug_frame:0000000000000010 $d

UNDEFINED SYMBOLS
memcpy
