ARM GAS  /tmp/ccMz6Lp2.s 			page 1


   1              		.syntax unified
   2              		.cpu cortex-m4
   3              		.eabi_attribute 27, 1
   4              		.eabi_attribute 28, 1
   5              		.fpu fpv4-sp-d16
   6              		.eabi_attribute 20, 1
   7              		.eabi_attribute 21, 1
   8              		.eabi_attribute 23, 3
   9              		.eabi_attribute 24, 1
  10              		.eabi_attribute 25, 1
  11              		.eabi_attribute 26, 1
  12              		.eabi_attribute 30, 4
  13              		.eabi_attribute 34, 1
  14              		.eabi_attribute 18, 4
  15              		.thumb
  16              		.file	"memstreams.c"
  17              		.text
  18              	.Ltext0:
  19              		.cfi_sections	.debug_frame
  20              		.section	.text._put,"ax",%progbits
  21              		.align	1
  22              		.thumb
  23              		.thumb_func
  24              		.type	_put, %function
  25              	_put:
  26              	.LFB325:
  27              		.file 1 "../../modules/ChibiOS/os/hal/lib/streams/memstreams.c"
  28              		.loc 1 67 0
  29              		.cfi_startproc
  30              		@ args = 0, pretend = 0, frame = 0
  31              		@ frame_needed = 0, uses_anonymous_args = 0
  32              		@ link register save eliminated.
  33              	.LVL0:
  34              		.loc 1 70 0
  35 0000 C368     		ldr	r3, [r0, #12]
  36 0002 8268     		ldr	r2, [r0, #8]
  37 0004 9A42     		cmp	r2, r3
  38              		.loc 1 72 0
  39 0006 1FBF     		itttt	ne
  40 0008 4268     		ldrne	r2, [r0, #4]
  41 000a D154     		strbne	r1, [r2, r3]
  42              		.loc 1 73 0
  43 000c C368     		ldrne	r3, [r0, #12]
  44 000e 0133     		addne	r3, r3, #1
  45 0010 1ABF     		itte	ne
  46 0012 C360     		strne	r3, [r0, #12]
  47              		.loc 1 74 0
  48 0014 0020     		movne	r0, #0
  49              	.LVL1:
  50              		.loc 1 71 0
  51 0016 6FF00100 		mvneq	r0, #1
  52              		.loc 1 75 0
  53 001a 7047     		bx	lr
  54              		.cfi_endproc
  55              	.LFE325:
  56              		.size	_put, .-_put
  57              		.section	.text._get,"ax",%progbits
ARM GAS  /tmp/ccMz6Lp2.s 			page 2


  58              		.align	1
  59              		.thumb
  60              		.thumb_func
  61              		.type	_get, %function
  62              	_get:
  63              	.LFB326:
  64              		.loc 1 77 0
  65              		.cfi_startproc
  66              		@ args = 0, pretend = 0, frame = 0
  67              		@ frame_needed = 0, uses_anonymous_args = 0
  68              		@ link register save eliminated.
  69              	.LVL2:
  70              		.loc 1 81 0
  71 0000 0369     		ldr	r3, [r0, #16]
  72 0002 C268     		ldr	r2, [r0, #12]
  73 0004 9A42     		cmp	r2, r3
  74              		.loc 1 83 0
  75 0006 1FBF     		itttt	ne
  76 0008 4268     		ldrne	r2, [r0, #4]
  77 000a D25C     		ldrbne	r2, [r2, r3]	@ zero_extendqisi2
  78              	.LVL3:
  79              		.loc 1 84 0
  80 000c 0133     		addne	r3, r3, #1
  81 000e 0361     		strne	r3, [r0, #16]
  82              		.loc 1 85 0
  83 0010 14BF     		ite	ne
  84 0012 1046     		movne	r0, r2
  85              	.LVL4:
  86              		.loc 1 82 0
  87 0014 6FF00100 		mvneq	r0, #1
  88              		.loc 1 86 0
  89 0018 7047     		bx	lr
  90              		.cfi_endproc
  91              	.LFE326:
  92              		.size	_get, .-_get
  93              		.section	.text._reads,"ax",%progbits
  94              		.align	1
  95              		.thumb
  96              		.thumb_func
  97              		.type	_reads, %function
  98              	_reads:
  99              	.LFB324:
 100              		.loc 1 57 0
 101              		.cfi_startproc
 102              		@ args = 0, pretend = 0, frame = 0
 103              		@ frame_needed = 0, uses_anonymous_args = 0
 104              	.LVL5:
 105 0000 38B5     		push	{r3, r4, r5, lr}
 106              		.cfi_def_cfa_offset 16
 107              		.cfi_offset 3, -16
 108              		.cfi_offset 4, -12
 109              		.cfi_offset 5, -8
 110              		.cfi_offset 14, -4
 111              		.loc 1 60 0
 112 0002 0369     		ldr	r3, [r0, #16]
 113 0004 C468     		ldr	r4, [r0, #12]
 114 0006 E41A     		subs	r4, r4, r3
ARM GAS  /tmp/ccMz6Lp2.s 			page 3


 115 0008 9442     		cmp	r4, r2
 116 000a 28BF     		it	cs
 117 000c 1446     		movcs	r4, r2
 118              	.LVL6:
 119              		.loc 1 62 0
 120 000e 4268     		ldr	r2, [r0, #4]
 121              		.loc 1 57 0
 122 0010 0546     		mov	r5, r0
 123              		.loc 1 62 0
 124 0012 0846     		mov	r0, r1
 125              	.LVL7:
 126 0014 D118     		adds	r1, r2, r3
 127              	.LVL8:
 128 0016 2246     		mov	r2, r4
 129 0018 FFF7FEFF 		bl	memcpy
 130              	.LVL9:
 131              		.loc 1 63 0
 132 001c 2B69     		ldr	r3, [r5, #16]
 133 001e 2344     		add	r3, r3, r4
 134 0020 2B61     		str	r3, [r5, #16]
 135              		.loc 1 65 0
 136 0022 2046     		mov	r0, r4
 137 0024 38BD     		pop	{r3, r4, r5, pc}
 138              		.cfi_endproc
 139              	.LFE324:
 140              		.size	_reads, .-_reads
 141              		.section	.text._writes,"ax",%progbits
 142              		.align	1
 143              		.thumb
 144              		.thumb_func
 145              		.type	_writes, %function
 146              	_writes:
 147              	.LFB323:
 148              		.loc 1 47 0
 149              		.cfi_startproc
 150              		@ args = 0, pretend = 0, frame = 0
 151              		@ frame_needed = 0, uses_anonymous_args = 0
 152              	.LVL10:
 153 0000 38B5     		push	{r3, r4, r5, lr}
 154              		.cfi_def_cfa_offset 16
 155              		.cfi_offset 3, -16
 156              		.cfi_offset 4, -12
 157              		.cfi_offset 5, -8
 158              		.cfi_offset 14, -4
 159              		.loc 1 50 0
 160 0002 C368     		ldr	r3, [r0, #12]
 161 0004 8468     		ldr	r4, [r0, #8]
 162 0006 E41A     		subs	r4, r4, r3
 163              		.loc 1 47 0
 164 0008 0546     		mov	r5, r0
 165 000a 9442     		cmp	r4, r2
 166              		.loc 1 52 0
 167 000c 4068     		ldr	r0, [r0, #4]
 168              	.LVL11:
 169 000e 28BF     		it	cs
 170 0010 1446     		movcs	r4, r2
 171              	.LVL12:
ARM GAS  /tmp/ccMz6Lp2.s 			page 4


 172 0012 1844     		add	r0, r0, r3
 173 0014 2246     		mov	r2, r4
 174 0016 FFF7FEFF 		bl	memcpy
 175              	.LVL13:
 176              		.loc 1 53 0
 177 001a EB68     		ldr	r3, [r5, #12]
 178 001c 2344     		add	r3, r3, r4
 179 001e EB60     		str	r3, [r5, #12]
 180              		.loc 1 55 0
 181 0020 2046     		mov	r0, r4
 182 0022 38BD     		pop	{r3, r4, r5, pc}
 183              		.cfi_endproc
 184              	.LFE323:
 185              		.size	_writes, .-_writes
 186              		.section	.text.msObjectInit,"ax",%progbits
 187              		.align	1
 188              		.global	msObjectInit
 189              		.thumb
 190              		.thumb_func
 191              		.type	msObjectInit, %function
 192              	msObjectInit:
 193              	.LFB327:
 194              		.loc 1 105 0
 195              		.cfi_startproc
 196              		@ args = 0, pretend = 0, frame = 0
 197              		@ frame_needed = 0, uses_anonymous_args = 0
 198              	.LVL14:
 199 0000 10B5     		push	{r4, lr}
 200              		.cfi_def_cfa_offset 8
 201              		.cfi_offset 4, -8
 202              		.cfi_offset 14, -4
 203              		.loc 1 110 0
 204 0002 C360     		str	r3, [r0, #12]
 205              		.loc 1 107 0
 206 0004 034C     		ldr	r4, .L10
 207 0006 0460     		str	r4, [r0]
 208              		.loc 1 111 0
 209 0008 0023     		movs	r3, #0
 210              	.LVL15:
 211              		.loc 1 108 0
 212 000a 4160     		str	r1, [r0, #4]
 213              		.loc 1 109 0
 214 000c 8260     		str	r2, [r0, #8]
 215              		.loc 1 111 0
 216 000e 0361     		str	r3, [r0, #16]
 217 0010 10BD     		pop	{r4, pc}
 218              	.L11:
 219 0012 00BF     		.align	2
 220              	.L10:
 221 0014 00000000 		.word	.LANCHOR0
 222              		.cfi_endproc
 223              	.LFE327:
 224              		.size	msObjectInit, .-msObjectInit
 225              		.section	.rodata.vmt,"a",%progbits
 226              		.align	2
 227              		.set	.LANCHOR0,. + 0
 228              		.type	vmt, %object
ARM GAS  /tmp/ccMz6Lp2.s 			page 5


 229              		.size	vmt, 20
 230              	vmt:
 231 0000 00000000 		.word	0
 232 0004 00000000 		.word	_writes
 233 0008 00000000 		.word	_reads
 234 000c 00000000 		.word	_put
 235 0010 00000000 		.word	_get
 236              		.text
 237              	.Letext0:
 238              		.file 2 "/usr/lib/gcc/arm-none-eabi/4.9.3/include/stddef.h"
 239              		.file 3 "/usr/include/newlib/machine/_default_types.h"
 240              		.file 4 "/usr/include/newlib/sys/_stdint.h"
 241              		.file 5 "../../modules/ChibiOS/os/common/ports/ARMCMx/compilers/GCC/chtypes.h"
 242              		.file 6 "../../modules/ChibiOS/os/rt/include/chsystypes.h"
 243              		.file 7 "../../modules/ChibiOS/os/rt/include/chschd.h"
 244              		.file 8 "../../modules/ChibiOS/os/rt/include/chtime.h"
 245              		.file 9 "../../modules/ChibiOS/os/common/ports/ARMCMx/chcore.h"
 246              		.file 10 "../../modules/ChibiOS/os/common/ports/ARMCMx/chcore_v7m.h"
 247              		.file 11 "../../modules/ChibiOS/os/rt/include/chtm.h"
 248              		.file 12 "../../modules/ChibiOS/os/rt/include/chstats.h"
 249              		.file 13 "../../modules/ChibiOS/os/rt/include/chsem.h"
 250              		.file 14 "../../modules/ChibiOS/os/rt/include/chmtx.h"
 251              		.file 15 "../../modules/ChibiOS/os/hal/lib/streams/memstreams.h"
 252              		.file 16 "../../modules/ChibiOS/os/common/ext/ARM/CMSIS/Core/Include/core_cm4.h"