ARM GAS  /tmp/ccWOP6oI.s 			page 1


   1              		.syntax unified
   2              		.cpu cortex-m4
   3              		.eabi_attribute 27, 1
   4              		.eabi_attribute 28, 1
   5              		.fpu fpv4-sp-d16
   6              		.eabi_attribute 20, 1
   7              		.eabi_attribute 21, 1
   8              		.eabi_attribute 23, 3
   9              		.eabi_attribute 24, 1
  10              		.eabi_attribute 25, 1
  11              		.eabi_attribute 26, 1
  12              		.eabi_attribute 30, 4
  13              		.eabi_attribute 34, 1
  14              		.eabi_attribute 18, 4
  15              		.thumb
  16              		.file	"nvic.c"
  17              		.text
  18              	.Ltext0:
  19              		.cfi_sections	.debug_frame
  20              		.section	.text.nvicEnableVector,"ax",%progbits
  21              		.align	1
  22              		.global	nvicEnableVector
  23              		.thumb
  24              		.thumb_func
  25              		.type	nvicEnableVector, %function
  26              	nvicEnableVector:
  27              	.LFB323:
  28              		.file 1 "../../modules/ChibiOS/os/hal/ports/common/ARMCMx/nvic.c"
  29              		.loc 1 57 0
  30              		.cfi_startproc
  31              		@ args = 0, pretend = 0, frame = 0
  32              		@ frame_needed = 0, uses_anonymous_args = 0
  33              		@ link register save eliminated.
  34              	.LVL0:
  35              		.loc 1 63 0
  36 0000 00F16043 		add	r3, r0, #-536870912
  37              		.loc 1 65 0
  38 0004 00F01F02 		and	r2, r0, #31
  39 0008 4009     		lsrs	r0, r0, #5
  40              	.LVL1:
  41              		.loc 1 63 0
  42 000a 03F56143 		add	r3, r3, #57600
  43              	.LVL2:
  44 000e 0901     		lsls	r1, r1, #4
  45              	.LVL3:
  46 0010 8000     		lsls	r0, r0, #2
  47 0012 C9B2     		uxtb	r1, r1
  48 0014 00F16040 		add	r0, r0, #-536870912
  49 0018 83F80013 		strb	r1, [r3, #768]
  50 001c 00F56140 		add	r0, r0, #57600
  51              		.loc 1 65 0
  52 0020 0123     		movs	r3, #1
  53              	.LVL4:
  54 0022 9340     		lsls	r3, r3, r2
  55 0024 C0F88031 		str	r3, [r0, #384]
  56              		.loc 1 66 0
  57 0028 0360     		str	r3, [r0]
ARM GAS  /tmp/ccWOP6oI.s 			page 2


  58 002a 7047     		bx	lr
  59              		.cfi_endproc
  60              	.LFE323:
  61              		.size	nvicEnableVector, .-nvicEnableVector
  62              		.section	.text.nvicDisableVector,"ax",%progbits
  63              		.align	1
  64              		.global	nvicDisableVector
  65              		.thumb
  66              		.thumb_func
  67              		.type	nvicDisableVector, %function
  68              	nvicDisableVector:
  69              	.LFB324:
  70              		.loc 1 74 0
  71              		.cfi_startproc
  72              		@ args = 0, pretend = 0, frame = 0
  73              		@ frame_needed = 0, uses_anonymous_args = 0
  74              		@ link register save eliminated.
  75              	.LVL5:
  76              		.loc 1 76 0
  77 0000 00F01F01 		and	r1, r0, #31
  78 0004 0122     		movs	r2, #1
  79 0006 4309     		lsrs	r3, r0, #5
  80 0008 8A40     		lsls	r2, r2, r1
  81 000a 0449     		ldr	r1, .L3
  82 000c 2033     		adds	r3, r3, #32
  83              		.loc 1 80 0
  84 000e 0844     		add	r0, r0, r1
  85              	.LVL6:
  86              		.loc 1 76 0
  87 0010 41F82320 		str	r2, [r1, r3, lsl #2]
  88              		.loc 1 80 0
  89 0014 0023     		movs	r3, #0
  90 0016 80F80033 		strb	r3, [r0, #768]
  91 001a 7047     		bx	lr
  92              	.L4:
  93              		.align	2
  94              	.L3:
  95 001c 00E100E0 		.word	-536813312
  96              		.cfi_endproc
  97              	.LFE324:
  98              		.size	nvicDisableVector, .-nvicDisableVector
  99              		.section	.text.nvicSetSystemHandlerPriority,"ax",%progbits
 100              		.align	1
 101              		.global	nvicSetSystemHandlerPriority
 102              		.thumb
 103              		.thumb_func
 104              		.type	nvicSetSystemHandlerPriority, %function
 105              	nvicSetSystemHandlerPriority:
 106              	.LFB325:
 107              		.loc 1 90 0
 108              		.cfi_startproc
 109              		@ args = 0, pretend = 0, frame = 0
 110              		@ frame_needed = 0, uses_anonymous_args = 0
 111              		@ link register save eliminated.
 112              	.LVL7:
 113              		.loc 1 100 0
 114 0000 00F16040 		add	r0, r0, #-536870912
ARM GAS  /tmp/ccWOP6oI.s 			page 3


 115              	.LVL8:
 116 0004 0901     		lsls	r1, r1, #4
 117              	.LVL9:
 118 0006 00F56D40 		add	r0, r0, #60672
 119              	.LVL10:
 120 000a C9B2     		uxtb	r1, r1
 121 000c 0176     		strb	r1, [r0, #24]
 122 000e 7047     		bx	lr
 123              		.cfi_endproc
 124              	.LFE325:
 125              		.size	nvicSetSystemHandlerPriority, .-nvicSetSystemHandlerPriority
 126              		.section	.text.nvicClearPending,"ax",%progbits
 127              		.align	1
 128              		.global	nvicClearPending
 129              		.thumb
 130              		.thumb_func
 131              		.type	nvicClearPending, %function
 132              	nvicClearPending:
 133              	.LFB326:
 134              		.loc 1 109 0
 135              		.cfi_startproc
 136              		@ args = 0, pretend = 0, frame = 0
 137              		@ frame_needed = 0, uses_anonymous_args = 0
 138              		@ link register save eliminated.
 139              	.LVL11:
 140              		.loc 1 111 0
 141 0000 4309     		lsrs	r3, r0, #5
 142 0002 0122     		movs	r2, #1
 143 0004 00F01F00 		and	r0, r0, #31
 144              	.LVL12:
 145 0008 6033     		adds	r3, r3, #96
 146 000a 0249     		ldr	r1, .L7
 147 000c 8240     		lsls	r2, r2, r0
 148 000e 41F82320 		str	r2, [r1, r3, lsl #2]
 149 0012 7047     		bx	lr
 150              	.L8:
 151              		.align	2
 152              	.L7:
 153 0014 00E100E0 		.word	-536813312
 154              		.cfi_endproc
 155              	.LFE326:
 156              		.size	nvicClearPending, .-nvicClearPending
 157              		.text
 158              	.Letext0:
 159              		.file 2 "/usr/include/newlib/machine/_default_types.h"
 160              		.file 3 "/usr/include/newlib/sys/_stdint.h"
 161              		.file 4 "../../modules/ChibiOS/os/common/ports/ARMCMx/compilers/GCC/chtypes.h"
 162              		.file 5 "../../modules/ChibiOS/os/rt/include/chsystypes.h"
 163              		.file 6 "../../modules/ChibiOS/os/rt/include/chschd.h"
 164              		.file 7 "../../modules/ChibiOS/os/rt/include/chtime.h"
 165              		.file 8 "../../modules/ChibiOS/os/common/ext/ARM/CMSIS/Core/Include/core_cm4.h"
 166              		.file 9 "../../modules/ChibiOS/os/common/ports/ARMCMx/chcore.h"
 167              		.file 10 "../../modules/ChibiOS/os/common/ports/ARMCMx/chcore_v7m.h"
 168              		.file 11 "../../modules/ChibiOS/os/rt/include/chtm.h"
 169              		.file 12 "../../modules/ChibiOS/os/rt/include/chstats.h"
 170              		.file 13 "../../modules/ChibiOS/os/rt/include/chsem.h"
 171              		.file 14 "../../modules/ChibiOS/os/rt/include/chmtx.h"
ARM GAS  /tmp/ccWOP6oI.s 			page 4


 172              		.section	.debug_info,"",%progbits
 173              	.Ldebug_info0:
 174 0000 460B0000 		.4byte	0xb46
 175 0004 0400     		.2byte	0x4
 176 0006 00000000 		.4byte	.Ldebug_abbrev0
 177 000a 04       		.byte	0x4
 178 000b 01       		.uleb128 0x1
 179 000c D2010000 		.4byte	.LASF139
 180 0010 01       		.byte	0x1
 181 0011 FB050000 		.4byte	.LASF140
 182 0015 C1050000 		.4byte	.LASF141
 183 0019 00000000 		.4byte	.Ldebug_ranges0+0
 184 001d 00000000 		.4byte	0
 185 0021 00000000 		.4byte	.Ldebug_line0
 186 0025 02       		.uleb128 0x2
 187 0026 04       		.byte	0x4
 188 0027 05       		.byte	0x5
 189 0028 696E7400 		.ascii	"int\000"
 190 002c 03       		.uleb128 0x3
 191 002d 04       		.byte	0x4
 192 002e 07       		.byte	0x7
 193 002f C5010000 		.4byte	.LASF0
 194 0033 03       		.uleb128 0x3
 195 0034 01       		.byte	0x1
 196 0035 06       		.byte	0x6
 197 0036 24010000 		.4byte	.LASF1
 198 003a 04       		.uleb128 0x4
 199 003b 45000000 		.4byte	.LASF5
 200 003f 02       		.byte	0x2
 201 0040 1D       		.byte	0x1d
 202 0041 45000000 		.4byte	0x45
 203 0045 03       		.uleb128 0x3
 204 0046 01       		.byte	0x1
 205 0047 08       		.byte	0x8
 206 0048 9A040000 		.4byte	.LASF2
 207 004c 03       		.uleb128 0x3
 208 004d 02       		.byte	0x2
 209 004e 05       		.byte	0x5
 210 004f BB040000 		.4byte	.LASF3
 211 0053 03       		.uleb128 0x3
 212 0054 02       		.byte	0x2
 213 0055 07       		.byte	0x7
 214 0056 AE050000 		.4byte	.LASF4
 215 005a 04       		.uleb128 0x4
 216 005b 78030000 		.4byte	.LASF6
 217 005f 02       		.byte	0x2
 218 0060 3F       		.byte	0x3f
 219 0061 65000000 		.4byte	0x65
 220 0065 03       		.uleb128 0x3
 221 0066 04       		.byte	0x4
 222 0067 05       		.byte	0x5
 223 0068 57010000 		.4byte	.LASF7
 224 006c 04       		.uleb128 0x4
 225 006d 74010000 		.4byte	.LASF8
 226 0071 02       		.byte	0x2
 227 0072 41       		.byte	0x41
 228 0073 77000000 		.4byte	0x77
ARM GAS  /tmp/ccWOP6oI.s 			page 5


 229 0077 03       		.uleb128 0x3
 230 0078 04       		.byte	0x4
 231 0079 07       		.byte	0x7
 232 007a 53050000 		.4byte	.LASF9
 233 007e 03       		.uleb128 0x3
 234 007f 08       		.byte	0x8
 235 0080 05       		.byte	0x5
 236 0081 16010000 		.4byte	.LASF10
 237 0085 04       		.uleb128 0x4
 238 0086 2B040000 		.4byte	.LASF11
 239 008a 02       		.byte	0x2
 240 008b 5B       		.byte	0x5b
 241 008c 90000000 		.4byte	0x90
 242 0090 03       		.uleb128 0x3
 243 0091 08       		.byte	0x8
 244 0092 07       		.byte	0x7
 245 0093 99000000 		.4byte	.LASF12
 246 0097 04       		.uleb128 0x4
 247 0098 57060000 		.4byte	.LASF13
 248 009c 03       		.byte	0x3
 249 009d 14       		.byte	0x14
 250 009e 3A000000 		.4byte	0x3a
 251 00a2 04       		.uleb128 0x4
 252 00a3 92040000 		.4byte	.LASF14
 253 00a7 03       		.byte	0x3
 254 00a8 1F       		.byte	0x1f
 255 00a9 5A000000 		.4byte	0x5a
 256 00ad 04       		.uleb128 0x4
 257 00ae 28050000 		.4byte	.LASF15
 258 00b2 03       		.byte	0x3
 259 00b3 20       		.byte	0x20
 260 00b4 6C000000 		.4byte	0x6c
 261 00b8 04       		.uleb128 0x4
 262 00b9 2F000000 		.4byte	.LASF16
 263 00bd 03       		.byte	0x3
 264 00be 26       		.byte	0x26
 265 00bf 85000000 		.4byte	0x85
 266 00c3 04       		.uleb128 0x4
 267 00c4 ED050000 		.4byte	.LASF17
 268 00c8 04       		.byte	0x4
 269 00c9 27       		.byte	0x27
 270 00ca AD000000 		.4byte	0xad
 271 00ce 04       		.uleb128 0x4
 272 00cf ED000000 		.4byte	.LASF18
 273 00d3 04       		.byte	0x4
 274 00d4 28       		.byte	0x28
 275 00d5 B8000000 		.4byte	0xb8
 276 00d9 04       		.uleb128 0x4
 277 00da 4B030000 		.4byte	.LASF19
 278 00de 04       		.byte	0x4
 279 00df 2A       		.byte	0x2a
 280 00e0 97000000 		.4byte	0x97
 281 00e4 04       		.uleb128 0x4
 282 00e5 60010000 		.4byte	.LASF20
 283 00e9 04       		.byte	0x4
 284 00ea 2B       		.byte	0x2b
 285 00eb 97000000 		.4byte	0x97
ARM GAS  /tmp/ccWOP6oI.s 			page 6


 286 00ef 04       		.uleb128 0x4
 287 00f0 41040000 		.4byte	.LASF21
 288 00f4 04       		.byte	0x4
 289 00f5 2C       		.byte	0x2c
 290 00f6 97000000 		.4byte	0x97
 291 00fa 04       		.uleb128 0x4
 292 00fb 7B040000 		.4byte	.LASF22
 293 00ff 04       		.byte	0x4
 294 0100 2E       		.byte	0x2e
 295 0101 AD000000 		.4byte	0xad
 296 0105 04       		.uleb128 0x4
 297 0106 18030000 		.4byte	.LASF23
 298 010a 04       		.byte	0x4
 299 010b 2F       		.byte	0x2f
 300 010c A2000000 		.4byte	0xa2
 301 0110 04       		.uleb128 0x4
 302 0111 6C030000 		.4byte	.LASF24
 303 0115 04       		.byte	0x4
 304 0116 31       		.byte	0x31
 305 0117 AD000000 		.4byte	0xad
 306 011b 04       		.uleb128 0x4
 307 011c BF010000 		.4byte	.LASF25
 308 0120 04       		.byte	0x4
 309 0121 33       		.byte	0x33
 310 0122 A2000000 		.4byte	0xa2
 311 0126 04       		.uleb128 0x4
 312 0127 29030000 		.4byte	.LASF26
 313 012b 04       		.byte	0x4
 314 012c 34       		.byte	0x34
 315 012d AD000000 		.4byte	0xad
 316 0131 04       		.uleb128 0x4
 317 0132 77050000 		.4byte	.LASF27
 318 0136 05       		.byte	0x5
 319 0137 34       		.byte	0x34
 320 0138 3C010000 		.4byte	0x13c
 321 013c 05       		.uleb128 0x5
 322 013d 04030000 		.4byte	.LASF46
 323 0141 60       		.byte	0x60
 324 0142 06       		.byte	0x6
 325 0143 8E       		.byte	0x8e
 326 0144 27020000 		.4byte	0x227
 327 0148 06       		.uleb128 0x6
 328 0149 EB030000 		.4byte	.LASF28
 329 014d 06       		.byte	0x6
 330 014e 8F       		.byte	0x8f
 331 014f 5C020000 		.4byte	0x25c
 332 0153 00       		.byte	0
 333 0154 06       		.uleb128 0x6
 334 0155 1E040000 		.4byte	.LASF29
 335 0159 06       		.byte	0x6
 336 015a 90       		.byte	0x90
 337 015b FA000000 		.4byte	0xfa
 338 015f 08       		.byte	0x8
 339 0160 07       		.uleb128 0x7
 340 0161 63747800 		.ascii	"ctx\000"
 341 0165 06       		.byte	0x6
 342 0166 91       		.byte	0x91
ARM GAS  /tmp/ccWOP6oI.s 			page 7


 343 0167 42070000 		.4byte	0x742
 344 016b 0C       		.byte	0xc
 345 016c 06       		.uleb128 0x6
 346 016d F5050000 		.4byte	.LASF30
 347 0171 06       		.byte	0x6
 348 0172 93       		.byte	0x93
 349 0173 32020000 		.4byte	0x232
 350 0177 10       		.byte	0x10
 351 0178 06       		.uleb128 0x6
 352 0179 71050000 		.4byte	.LASF31
 353 017d 06       		.byte	0x6
 354 017e 94       		.byte	0x94
 355 017f 32020000 		.4byte	0x232
 356 0183 14       		.byte	0x14
 357 0184 06       		.uleb128 0x6
 358 0185 FF020000 		.4byte	.LASF32
 359 0189 06       		.byte	0x6
 360 018a 9B       		.byte	0x9b
 361 018b 280A0000 		.4byte	0xa28
 362 018f 18       		.byte	0x18
 363 0190 06       		.uleb128 0x6
 364 0191 65050000 		.4byte	.LASF33
 365 0195 06       		.byte	0x6
 366 0196 A4       		.byte	0xa4
 367 0197 3A0A0000 		.4byte	0xa3a
 368 019b 1C       		.byte	0x1c
 369 019c 06       		.uleb128 0x6
 370 019d 51010000 		.4byte	.LASF34
 371 01a1 06       		.byte	0x6
 372 01a2 A9       		.byte	0xa9
 373 01a3 E4000000 		.4byte	0xe4
 374 01a7 20       		.byte	0x20
 375 01a8 06       		.uleb128 0x6
 376 01a9 5F060000 		.4byte	.LASF35
 377 01ad 06       		.byte	0x6
 378 01ae AD       		.byte	0xad
 379 01af D9000000 		.4byte	0xd9
 380 01b3 21       		.byte	0x21
 381 01b4 06       		.uleb128 0x6
 382 01b5 0C010000 		.4byte	.LASF36
 383 01b9 06       		.byte	0x6
 384 01ba B2       		.byte	0xb2
 385 01bb EF000000 		.4byte	0xef
 386 01bf 22       		.byte	0x22
 387 01c0 08       		.uleb128 0x8
 388 01c1 7500     		.ascii	"u\000"
 389 01c3 06       		.byte	0x6
 390 01c4 0301     		.2byte	0x103
 391 01c6 5E090000 		.4byte	0x95e
 392 01ca 24       		.byte	0x24
 393 01cb 09       		.uleb128 0x9
 394 01cc A1010000 		.4byte	.LASF37
 395 01d0 06       		.byte	0x6
 396 01d1 0801     		.2byte	0x108
 397 01d3 38020000 		.4byte	0x238
 398 01d7 28       		.byte	0x28
 399 01d8 09       		.uleb128 0x9
ARM GAS  /tmp/ccWOP6oI.s 			page 8


 400 01d9 48010000 		.4byte	.LASF38
 401 01dd 06       		.byte	0x6
 402 01de 0E01     		.2byte	0x10e
 403 01e0 5C020000 		.4byte	0x25c
 404 01e4 2C       		.byte	0x2c
 405 01e5 09       		.uleb128 0x9
 406 01e6 30030000 		.4byte	.LASF39
 407 01ea 06       		.byte	0x6
 408 01eb 1401     		.2byte	0x114
 409 01ed 10010000 		.4byte	0x110
 410 01f1 34       		.byte	0x34
 411 01f2 09       		.uleb128 0x9
 412 01f3 85060000 		.4byte	.LASF40
 413 01f7 06       		.byte	0x6
 414 01f8 1B01     		.2byte	0x11b
 415 01fa 220A0000 		.4byte	0xa22
 416 01fe 38       		.byte	0x38
 417 01ff 09       		.uleb128 0x9
 418 0200 AF030000 		.4byte	.LASF41
 419 0204 06       		.byte	0x6
 420 0205 1F01     		.2byte	0x11f
 421 0207 FA000000 		.4byte	0xfa
 422 020b 3C       		.byte	0x3c
 423 020c 09       		.uleb128 0x9
 424 020d EA020000 		.4byte	.LASF42
 425 0211 06       		.byte	0x6
 426 0212 2601     		.2byte	0x126
 427 0214 0F030000 		.4byte	0x30f
 428 0218 40       		.byte	0x40
 429 0219 09       		.uleb128 0x9
 430 021a 6E010000 		.4byte	.LASF43
 431 021e 06       		.byte	0x6
 432 021f 2C01     		.2byte	0x12c
 433 0221 0F090000 		.4byte	0x90f
 434 0225 48       		.byte	0x48
 435 0226 00       		.byte	0
 436 0227 04       		.uleb128 0x4
 437 0228 C1030000 		.4byte	.LASF44
 438 022c 05       		.byte	0x5
 439 022d 39       		.byte	0x39
 440 022e 32020000 		.4byte	0x232
 441 0232 0A       		.uleb128 0xa
 442 0233 04       		.byte	0x4
 443 0234 31010000 		.4byte	0x131
 444 0238 04       		.uleb128 0x4
 445 0239 00000000 		.4byte	.LASF45
 446 023d 05       		.byte	0x5
 447 023e 3E       		.byte	0x3e
 448 023f 43020000 		.4byte	0x243
 449 0243 05       		.uleb128 0x5
 450 0244 3D050000 		.4byte	.LASF47
 451 0248 04       		.byte	0x4
 452 0249 06       		.byte	0x6
 453 024a 7C       		.byte	0x7c
 454 024b 5C020000 		.4byte	0x25c
 455 024f 06       		.uleb128 0x6
 456 0250 E8000000 		.4byte	.LASF48
ARM GAS  /tmp/ccWOP6oI.s 			page 9


 457 0254 06       		.byte	0x6
 458 0255 7D       		.byte	0x7d
 459 0256 32020000 		.4byte	0x232
 460 025a 00       		.byte	0
 461 025b 00       		.byte	0
 462 025c 04       		.uleb128 0x4
 463 025d 33060000 		.4byte	.LASF49
 464 0261 05       		.byte	0x5
 465 0262 45       		.byte	0x45
 466 0263 67020000 		.4byte	0x267
 467 0267 05       		.uleb128 0x5
 468 0268 60000000 		.4byte	.LASF50
 469 026c 08       		.byte	0x8
 470 026d 06       		.byte	0x6
 471 026e 83       		.byte	0x83
 472 026f 8C020000 		.4byte	0x28c
 473 0273 06       		.uleb128 0x6
 474 0274 E8000000 		.4byte	.LASF48
 475 0278 06       		.byte	0x6
 476 0279 84       		.byte	0x84
 477 027a 32020000 		.4byte	0x232
 478 027e 00       		.byte	0
 479 027f 06       		.uleb128 0x6
 480 0280 4F000000 		.4byte	.LASF51
 481 0284 06       		.byte	0x6
 482 0285 85       		.byte	0x85
 483 0286 32020000 		.4byte	0x232
 484 028a 04       		.byte	0x4
 485 028b 00       		.byte	0
 486 028c 04       		.uleb128 0x4
 487 028d 0F000000 		.4byte	.LASF52
 488 0291 05       		.byte	0x5
 489 0292 4C       		.byte	0x4c
 490 0293 97020000 		.4byte	0x297
 491 0297 0B       		.uleb128 0xb
 492 0298 5E030000 		.4byte	.LASF53
 493 029c 1C       		.byte	0x1c
 494 029d 06       		.byte	0x6
 495 029e 5E01     		.2byte	0x15e
 496 02a0 F3020000 		.4byte	0x2f3
 497 02a4 09       		.uleb128 0x9
 498 02a5 EB030000 		.4byte	.LASF28
 499 02a9 06       		.byte	0x6
 500 02aa 5F01     		.2byte	0x15f
 501 02ac 5C020000 		.4byte	0x25c
 502 02b0 00       		.byte	0
 503 02b1 09       		.uleb128 0x9
 504 02b2 1E040000 		.4byte	.LASF29
 505 02b6 06       		.byte	0x6
 506 02b7 6001     		.2byte	0x160
 507 02b9 FA000000 		.4byte	0xfa
 508 02bd 08       		.byte	0x8
 509 02be 08       		.uleb128 0x8
 510 02bf 63747800 		.ascii	"ctx\000"
 511 02c3 06       		.byte	0x6
 512 02c4 6201     		.2byte	0x162
 513 02c6 42070000 		.4byte	0x742
ARM GAS  /tmp/ccWOP6oI.s 			page 10


 514 02ca 0C       		.byte	0xc
 515 02cb 09       		.uleb128 0x9
 516 02cc F5050000 		.4byte	.LASF30
 517 02d0 06       		.byte	0x6
 518 02d1 6501     		.2byte	0x165
 519 02d3 32020000 		.4byte	0x232
 520 02d7 10       		.byte	0x10
 521 02d8 09       		.uleb128 0x9
 522 02d9 71050000 		.4byte	.LASF31
 523 02dd 06       		.byte	0x6
 524 02de 6601     		.2byte	0x166
 525 02e0 32020000 		.4byte	0x232
 526 02e4 14       		.byte	0x14
 527 02e5 09       		.uleb128 0x9
 528 02e6 23040000 		.4byte	.LASF54
 529 02ea 06       		.byte	0x6
 530 02eb 6901     		.2byte	0x169
 531 02ed 32020000 		.4byte	0x232
 532 02f1 18       		.byte	0x18
 533 02f2 00       		.byte	0
 534 02f3 04       		.uleb128 0x4
 535 02f4 8F050000 		.4byte	.LASF55
 536 02f8 05       		.byte	0x5
 537 02f9 51       		.byte	0x51
 538 02fa FE020000 		.4byte	0x2fe
 539 02fe 0A       		.uleb128 0xa
 540 02ff 04       		.byte	0x4
 541 0300 04030000 		.4byte	0x304
 542 0304 0C       		.uleb128 0xc
 543 0305 0F030000 		.4byte	0x30f
 544 0309 0D       		.uleb128 0xd
 545 030a 0F030000 		.4byte	0x30f
 546 030e 00       		.byte	0
 547 030f 0E       		.uleb128 0xe
 548 0310 04       		.byte	0x4
 549 0311 04       		.uleb128 0x4
 550 0312 9F030000 		.4byte	.LASF56
 551 0316 05       		.byte	0x5
 552 0317 56       		.byte	0x56
 553 0318 1C030000 		.4byte	0x31c
 554 031c 0B       		.uleb128 0xb
 555 031d 0A050000 		.4byte	.LASF57
 556 0321 14       		.byte	0x14
 557 0322 06       		.byte	0x6
 558 0323 3901     		.2byte	0x139
 559 0325 6B030000 		.4byte	0x36b
 560 0329 09       		.uleb128 0x9
 561 032a E8000000 		.4byte	.LASF48
 562 032e 06       		.byte	0x6
 563 032f 3A01     		.2byte	0x13a
 564 0331 400A0000 		.4byte	0xa40
 565 0335 00       		.byte	0
 566 0336 09       		.uleb128 0x9
 567 0337 4F000000 		.4byte	.LASF51
 568 033b 06       		.byte	0x6
 569 033c 3B01     		.2byte	0x13b
 570 033e 400A0000 		.4byte	0xa40
ARM GAS  /tmp/ccWOP6oI.s 			page 11


 571 0342 04       		.byte	0x4
 572 0343 09       		.uleb128 0x9
 573 0344 22000000 		.4byte	.LASF58
 574 0348 06       		.byte	0x6
 575 0349 3C01     		.2byte	0x13c
 576 034b 4F040000 		.4byte	0x44f
 577 034f 08       		.byte	0x8
 578 0350 09       		.uleb128 0x9
 579 0351 69010000 		.4byte	.LASF59
 580 0355 06       		.byte	0x6
 581 0356 3D01     		.2byte	0x13d
 582 0358 F3020000 		.4byte	0x2f3
 583 035c 0C       		.byte	0xc
 584 035d 08       		.uleb128 0x8
 585 035e 70617200 		.ascii	"par\000"
 586 0362 06       		.byte	0x6
 587 0363 3F01     		.2byte	0x13f
 588 0365 0F030000 		.4byte	0x30f
 589 0369 10       		.byte	0x10
 590 036a 00       		.byte	0
 591 036b 04       		.uleb128 0x4
 592 036c CC000000 		.4byte	.LASF60
 593 0370 05       		.byte	0x5
 594 0371 5B       		.byte	0x5b
 595 0372 76030000 		.4byte	0x376
 596 0376 0B       		.uleb128 0xb
 597 0377 D4030000 		.4byte	.LASF61
 598 037b 10       		.byte	0x10
 599 037c 06       		.byte	0x6
 600 037d 4901     		.2byte	0x149
 601 037f B8030000 		.4byte	0x3b8
 602 0383 09       		.uleb128 0x9
 603 0384 E8000000 		.4byte	.LASF48
 604 0388 06       		.byte	0x6
 605 0389 4A01     		.2byte	0x14a
 606 038b 400A0000 		.4byte	0xa40
 607 038f 00       		.byte	0
 608 0390 09       		.uleb128 0x9
 609 0391 4F000000 		.4byte	.LASF51
 610 0395 06       		.byte	0x6
 611 0396 4C01     		.2byte	0x14c
 612 0398 400A0000 		.4byte	0xa40
 613 039c 04       		.byte	0x4
 614 039d 09       		.uleb128 0x9
 615 039e 22000000 		.4byte	.LASF58
 616 03a2 06       		.byte	0x6
 617 03a3 4E01     		.2byte	0x14e
 618 03a5 4F040000 		.4byte	0x44f
 619 03a9 08       		.byte	0x8
 620 03aa 09       		.uleb128 0x9
 621 03ab CA040000 		.4byte	.LASF62
 622 03af 06       		.byte	0x6
 623 03b0 5601     		.2byte	0x156
 624 03b2 44040000 		.4byte	0x444
 625 03b6 0C       		.byte	0xc
 626 03b7 00       		.byte	0
 627 03b8 04       		.uleb128 0x4
ARM GAS  /tmp/ccWOP6oI.s 			page 12


 628 03b9 71000000 		.4byte	.LASF63
 629 03bd 05       		.byte	0x5
 630 03be 60       		.byte	0x60
 631 03bf C3030000 		.4byte	0x3c3
 632 03c3 0B       		.uleb128 0xb
 633 03c4 91010000 		.4byte	.LASF64
 634 03c8 04       		.byte	0x4
 635 03c9 06       		.byte	0x6
 636 03ca 7001     		.2byte	0x170
 637 03cc DE030000 		.4byte	0x3de
 638 03d0 09       		.uleb128 0x9
 639 03d1 9D050000 		.4byte	.LASF65
 640 03d5 06       		.byte	0x6
 641 03d6 7801     		.2byte	0x178
 642 03d8 460A0000 		.4byte	0xa46
 643 03dc 00       		.byte	0
 644 03dd 00       		.byte	0
 645 03de 04       		.uleb128 0x4
 646 03df 3F030000 		.4byte	.LASF66
 647 03e3 05       		.byte	0x5
 648 03e4 65       		.byte	0x65
 649 03e5 E9030000 		.4byte	0x3e9
 650 03e9 0B       		.uleb128 0xb
 651 03ea F7040000 		.4byte	.LASF67
 652 03ee D0       		.byte	0xd0
 653 03ef 06       		.byte	0x6
 654 03f0 9001     		.2byte	0x190
 655 03f2 44040000 		.4byte	0x444
 656 03f6 09       		.uleb128 0x9
 657 03f7 51060000 		.4byte	.LASF68
 658 03fb 06       		.byte	0x6
 659 03fc 9401     		.2byte	0x194
 660 03fe 8C020000 		.4byte	0x28c
 661 0402 00       		.byte	0
 662 0403 09       		.uleb128 0x9
 663 0404 41010000 		.4byte	.LASF69
 664 0408 06       		.byte	0x6
 665 0409 9801     		.2byte	0x198
 666 040b 6B030000 		.4byte	0x36b
 667 040f 1C       		.byte	0x1c
 668 0410 08       		.uleb128 0x8
 669 0411 64626700 		.ascii	"dbg\000"
 670 0415 06       		.byte	0x6
 671 0416 9C01     		.2byte	0x19c
 672 0418 B8030000 		.4byte	0x3b8
 673 041c 2C       		.byte	0x2c
 674 041d 09       		.uleb128 0x9
 675 041e B9000000 		.4byte	.LASF70
 676 0422 06       		.byte	0x6
 677 0423 A001     		.2byte	0x1a0
 678 0425 31010000 		.4byte	0x131
 679 0429 30       		.byte	0x30
 680 042a 08       		.uleb128 0x8
 681 042b 746D00   		.ascii	"tm\000"
 682 042e 06       		.byte	0x6
 683 042f A501     		.2byte	0x1a5
 684 0431 C1080000 		.4byte	0x8c1
ARM GAS  /tmp/ccWOP6oI.s 			page 13


 685 0435 90       		.byte	0x90
 686 0436 09       		.uleb128 0x9
 687 0437 38000000 		.4byte	.LASF71
 688 043b 06       		.byte	0x6
 689 043c AB01     		.2byte	0x1ab
 690 043e 53090000 		.4byte	0x953
 691 0442 98       		.byte	0x98
 692 0443 00       		.byte	0
 693 0444 04       		.uleb128 0x4
 694 0445 85050000 		.4byte	.LASF72
 695 0449 07       		.byte	0x7
 696 044a 6D       		.byte	0x6d
 697 044b AD000000 		.4byte	0xad
 698 044f 04       		.uleb128 0x4
 699 0450 B1010000 		.4byte	.LASF73
 700 0454 07       		.byte	0x7
 701 0455 79       		.byte	0x79
 702 0456 AD000000 		.4byte	0xad
 703 045a 0F       		.uleb128 0xf
 704 045b 040E     		.2byte	0xe04
 705 045d 08       		.byte	0x8
 706 045e 9601     		.2byte	0x196
 707 0460 16050000 		.4byte	0x516
 708 0464 09       		.uleb128 0x9
 709 0465 C5040000 		.4byte	.LASF74
 710 0469 08       		.byte	0x8
 711 046a 9801     		.2byte	0x198
 712 046c 2D050000 		.4byte	0x52d
 713 0470 00       		.byte	0
 714 0471 09       		.uleb128 0x9
 715 0472 49040000 		.4byte	.LASF75
 716 0476 08       		.byte	0x8
 717 0477 9901     		.2byte	0x199
 718 0479 32050000 		.4byte	0x532
 719 047d 20       		.byte	0x20
 720 047e 09       		.uleb128 0x9
 721 047f 19040000 		.4byte	.LASF76
 722 0483 08       		.byte	0x8
 723 0484 9A01     		.2byte	0x19a
 724 0486 42050000 		.4byte	0x542
 725 048a 80       		.byte	0x80
 726 048b 09       		.uleb128 0x9
 727 048c 65060000 		.4byte	.LASF77
 728 0490 08       		.byte	0x8
 729 0491 9B01     		.2byte	0x19b
 730 0493 32050000 		.4byte	0x532
 731 0497 A0       		.byte	0xa0
 732 0498 10       		.uleb128 0x10
 733 0499 F6000000 		.4byte	.LASF78
 734 049d 08       		.byte	0x8
 735 049e 9C01     		.2byte	0x19c
 736 04a0 47050000 		.4byte	0x547
 737 04a4 0001     		.2byte	0x100
 738 04a6 10       		.uleb128 0x10
 739 04a7 53040000 		.4byte	.LASF79
 740 04ab 08       		.byte	0x8
 741 04ac 9D01     		.2byte	0x19d
ARM GAS  /tmp/ccWOP6oI.s 			page 14


 742 04ae 32050000 		.4byte	0x532
 743 04b2 2001     		.2byte	0x120
 744 04b4 10       		.uleb128 0x10
 745 04b5 DA020000 		.4byte	.LASF80
 746 04b9 08       		.byte	0x8
 747 04ba 9E01     		.2byte	0x19e
 748 04bc 4C050000 		.4byte	0x54c
 749 04c0 8001     		.2byte	0x180
 750 04c2 10       		.uleb128 0x10
 751 04c3 5D040000 		.4byte	.LASF81
 752 04c7 08       		.byte	0x8
 753 04c8 9F01     		.2byte	0x19f
 754 04ca 32050000 		.4byte	0x532
 755 04ce A001     		.2byte	0x1a0
 756 04d0 10       		.uleb128 0x10
 757 04d1 F6030000 		.4byte	.LASF82
 758 04d5 08       		.byte	0x8
 759 04d6 A001     		.2byte	0x1a0
 760 04d8 51050000 		.4byte	0x551
 761 04dc 0002     		.2byte	0x200
 762 04de 10       		.uleb128 0x10
 763 04df 67040000 		.4byte	.LASF83
 764 04e3 08       		.byte	0x8
 765 04e4 A101     		.2byte	0x1a1
 766 04e6 56050000 		.4byte	0x556
 767 04ea 2002     		.2byte	0x220
 768 04ec 11       		.uleb128 0x11
 769 04ed 495000   		.ascii	"IP\000"
 770 04f0 08       		.byte	0x8
 771 04f1 A201     		.2byte	0x1a2
 772 04f3 76050000 		.4byte	0x576
 773 04f7 0003     		.2byte	0x300
 774 04f9 10       		.uleb128 0x10
 775 04fa 71040000 		.4byte	.LASF84
 776 04fe 08       		.byte	0x8
 777 04ff A301     		.2byte	0x1a3
 778 0501 7B050000 		.4byte	0x57b
 779 0505 F003     		.2byte	0x3f0
 780 0507 10       		.uleb128 0x10
 781 0508 6E060000 		.4byte	.LASF85
 782 050c 08       		.byte	0x8
 783 050d A401     		.2byte	0x1a4
 784 050f 8C050000 		.4byte	0x58c
 785 0513 000E     		.2byte	0xe00
 786 0515 00       		.byte	0
 787 0516 12       		.uleb128 0x12
 788 0517 AD000000 		.4byte	0xad
 789 051b 26050000 		.4byte	0x526
 790 051f 13       		.uleb128 0x13
 791 0520 26050000 		.4byte	0x526
 792 0524 07       		.byte	0x7
 793 0525 00       		.byte	0
 794 0526 03       		.uleb128 0x3
 795 0527 04       		.byte	0x4
 796 0528 07       		.byte	0x7
 797 0529 B8030000 		.4byte	.LASF86
 798 052d 14       		.uleb128 0x14
ARM GAS  /tmp/ccWOP6oI.s 			page 15


 799 052e 16050000 		.4byte	0x516
 800 0532 12       		.uleb128 0x12
 801 0533 AD000000 		.4byte	0xad
 802 0537 42050000 		.4byte	0x542
 803 053b 13       		.uleb128 0x13
 804 053c 26050000 		.4byte	0x526
 805 0540 17       		.byte	0x17
 806 0541 00       		.byte	0
 807 0542 14       		.uleb128 0x14
 808 0543 16050000 		.4byte	0x516
 809 0547 14       		.uleb128 0x14
 810 0548 16050000 		.4byte	0x516
 811 054c 14       		.uleb128 0x14
 812 054d 16050000 		.4byte	0x516
 813 0551 14       		.uleb128 0x14
 814 0552 16050000 		.4byte	0x516
 815 0556 12       		.uleb128 0x12
 816 0557 AD000000 		.4byte	0xad
 817 055b 66050000 		.4byte	0x566
 818 055f 13       		.uleb128 0x13
 819 0560 26050000 		.4byte	0x526
 820 0564 37       		.byte	0x37
 821 0565 00       		.byte	0
 822 0566 12       		.uleb128 0x12
 823 0567 97000000 		.4byte	0x97
 824 056b 76050000 		.4byte	0x576
 825 056f 13       		.uleb128 0x13
 826 0570 26050000 		.4byte	0x526
 827 0574 EF       		.byte	0xef
 828 0575 00       		.byte	0
 829 0576 14       		.uleb128 0x14
 830 0577 66050000 		.4byte	0x566
 831 057b 12       		.uleb128 0x12
 832 057c AD000000 		.4byte	0xad
 833 0580 8C050000 		.4byte	0x58c
 834 0584 15       		.uleb128 0x15
 835 0585 26050000 		.4byte	0x526
 836 0589 8302     		.2byte	0x283
 837 058b 00       		.byte	0
 838 058c 14       		.uleb128 0x14
 839 058d AD000000 		.4byte	0xad
 840 0591 16       		.uleb128 0x16
 841 0592 8D030000 		.4byte	.LASF87
 842 0596 08       		.byte	0x8
 843 0597 A501     		.2byte	0x1a5
 844 0599 5A040000 		.4byte	0x45a
 845 059d 17       		.uleb128 0x17
 846 059e 8C       		.byte	0x8c
 847 059f 08       		.byte	0x8
 848 05a0 B801     		.2byte	0x1b8
 849 05a2 B8060000 		.4byte	0x6b8
 850 05a6 09       		.uleb128 0x9
 851 05a7 E2000000 		.4byte	.LASF88
 852 05ab 08       		.byte	0x8
 853 05ac BA01     		.2byte	0x1ba
 854 05ae B8060000 		.4byte	0x6b8
 855 05b2 00       		.byte	0
ARM GAS  /tmp/ccWOP6oI.s 			page 16


 856 05b3 09       		.uleb128 0x9
 857 05b4 13030000 		.4byte	.LASF89
 858 05b8 08       		.byte	0x8
 859 05b9 BB01     		.2byte	0x1bb
 860 05bb 8C050000 		.4byte	0x58c
 861 05bf 04       		.byte	0x4
 862 05c0 09       		.uleb128 0x9
 863 05c1 E5020000 		.4byte	.LASF90
 864 05c5 08       		.byte	0x8
 865 05c6 BC01     		.2byte	0x1bc
 866 05c8 8C050000 		.4byte	0x58c
 867 05cc 08       		.byte	0x8
 868 05cd 09       		.uleb128 0x9
 869 05ce 1E030000 		.4byte	.LASF91
 870 05d2 08       		.byte	0x8
 871 05d3 BD01     		.2byte	0x1bd
 872 05d5 8C050000 		.4byte	0x58c
 873 05d9 0C       		.byte	0xc
 874 05da 08       		.uleb128 0x8
 875 05db 53435200 		.ascii	"SCR\000"
 876 05df 08       		.byte	0x8
 877 05e0 BE01     		.2byte	0x1be
 878 05e2 8C050000 		.4byte	0x58c
 879 05e6 10       		.byte	0x10
 880 05e7 08       		.uleb128 0x8
 881 05e8 43435200 		.ascii	"CCR\000"
 882 05ec 08       		.byte	0x8
 883 05ed BF01     		.2byte	0x1bf
 884 05ef 8C050000 		.4byte	0x58c
 885 05f3 14       		.byte	0x14
 886 05f4 08       		.uleb128 0x8
 887 05f5 53485000 		.ascii	"SHP\000"
 888 05f9 08       		.byte	0x8
 889 05fa C001     		.2byte	0x1c0
 890 05fc CD060000 		.4byte	0x6cd
 891 0600 18       		.byte	0x18
 892 0601 09       		.uleb128 0x9
 893 0602 A8040000 		.4byte	.LASF92
 894 0606 08       		.byte	0x8
 895 0607 C101     		.2byte	0x1c1
 896 0609 8C050000 		.4byte	0x58c
 897 060d 24       		.byte	0x24
 898 060e 09       		.uleb128 0x9
 899 060f F1030000 		.4byte	.LASF93
 900 0613 08       		.byte	0x8
 901 0614 C201     		.2byte	0x1c2
 902 0616 8C050000 		.4byte	0x58c
 903 061a 28       		.byte	0x28
 904 061b 09       		.uleb128 0x9
 905 061c 80060000 		.4byte	.LASF94
 906 0620 08       		.byte	0x8
 907 0621 C301     		.2byte	0x1c3
 908 0623 8C050000 		.4byte	0x58c
 909 0627 2C       		.byte	0x2c
 910 0628 09       		.uleb128 0x9
 911 0629 24030000 		.4byte	.LASF95
 912 062d 08       		.byte	0x8
ARM GAS  /tmp/ccWOP6oI.s 			page 17


 913 062e C401     		.2byte	0x1c4
 914 0630 8C050000 		.4byte	0x58c
 915 0634 30       		.byte	0x30
 916 0635 09       		.uleb128 0x9
 917 0636 39030000 		.4byte	.LASF96
 918 063a 08       		.byte	0x8
 919 063b C501     		.2byte	0x1c5
 920 063d 8C050000 		.4byte	0x58c
 921 0641 34       		.byte	0x34
 922 0642 09       		.uleb128 0x9
 923 0643 0E030000 		.4byte	.LASF97
 924 0647 08       		.byte	0x8
 925 0648 C601     		.2byte	0x1c6
 926 064a 8C050000 		.4byte	0x58c
 927 064e 38       		.byte	0x38
 928 064f 09       		.uleb128 0x9
 929 0650 38050000 		.4byte	.LASF98
 930 0654 08       		.byte	0x8
 931 0655 C701     		.2byte	0x1c7
 932 0657 8C050000 		.4byte	0x58c
 933 065b 3C       		.byte	0x3c
 934 065c 08       		.uleb128 0x8
 935 065d 50465200 		.ascii	"PFR\000"
 936 0661 08       		.byte	0x8
 937 0662 C801     		.2byte	0x1c8
 938 0664 E2060000 		.4byte	0x6e2
 939 0668 40       		.byte	0x40
 940 0669 08       		.uleb128 0x8
 941 066a 44465200 		.ascii	"DFR\000"
 942 066e 08       		.byte	0x8
 943 066f C901     		.2byte	0x1c9
 944 0671 B8060000 		.4byte	0x6b8
 945 0675 48       		.byte	0x48
 946 0676 08       		.uleb128 0x8
 947 0677 41445200 		.ascii	"ADR\000"
 948 067b 08       		.byte	0x8
 949 067c CA01     		.2byte	0x1ca
 950 067e B8060000 		.4byte	0x6b8
 951 0682 4C       		.byte	0x4c
 952 0683 09       		.uleb128 0x9
 953 0684 4C060000 		.4byte	.LASF99
 954 0688 08       		.byte	0x8
 955 0689 CB01     		.2byte	0x1cb
 956 068b FC060000 		.4byte	0x6fc
 957 068f 50       		.byte	0x50
 958 0690 09       		.uleb128 0x9
 959 0691 11010000 		.4byte	.LASF100
 960 0695 08       		.byte	0x8
 961 0696 CC01     		.2byte	0x1cc
 962 0698 16070000 		.4byte	0x716
 963 069c 60       		.byte	0x60
 964 069d 09       		.uleb128 0x9
 965 069e 49040000 		.4byte	.LASF75
 966 06a2 08       		.byte	0x8
 967 06a3 CD01     		.2byte	0x1cd
 968 06a5 06070000 		.4byte	0x706
 969 06a9 74       		.byte	0x74
ARM GAS  /tmp/ccWOP6oI.s 			page 18


 970 06aa 09       		.uleb128 0x9
 971 06ab 7A060000 		.4byte	.LASF101
 972 06af 08       		.byte	0x8
 973 06b0 CE01     		.2byte	0x1ce
 974 06b2 8C050000 		.4byte	0x58c
 975 06b6 88       		.byte	0x88
 976 06b7 00       		.byte	0
 977 06b8 18       		.uleb128 0x18
 978 06b9 8C050000 		.4byte	0x58c
 979 06bd 12       		.uleb128 0x12
 980 06be 97000000 		.4byte	0x97
 981 06c2 CD060000 		.4byte	0x6cd
 982 06c6 13       		.uleb128 0x13
 983 06c7 26050000 		.4byte	0x526
 984 06cb 0B       		.byte	0xb
 985 06cc 00       		.byte	0
 986 06cd 14       		.uleb128 0x14
 987 06ce BD060000 		.4byte	0x6bd
 988 06d2 12       		.uleb128 0x12
 989 06d3 AD000000 		.4byte	0xad
 990 06d7 E2060000 		.4byte	0x6e2
 991 06db 13       		.uleb128 0x13
 992 06dc 26050000 		.4byte	0x526
 993 06e0 01       		.byte	0x1
 994 06e1 00       		.byte	0
 995 06e2 18       		.uleb128 0x18
 996 06e3 E7060000 		.4byte	0x6e7
 997 06e7 14       		.uleb128 0x14
 998 06e8 D2060000 		.4byte	0x6d2
 999 06ec 12       		.uleb128 0x12
 1000 06ed AD000000 		.4byte	0xad
 1001 06f1 FC060000 		.4byte	0x6fc
 1002 06f5 13       		.uleb128 0x13
 1003 06f6 26050000 		.4byte	0x526
 1004 06fa 03       		.byte	0x3
 1005 06fb 00       		.byte	0
 1006 06fc 18       		.uleb128 0x18
 1007 06fd 01070000 		.4byte	0x701
 1008 0701 14       		.uleb128 0x14
 1009 0702 EC060000 		.4byte	0x6ec
 1010 0706 12       		.uleb128 0x12
 1011 0707 AD000000 		.4byte	0xad
 1012 070b 16070000 		.4byte	0x716
 1013 070f 13       		.uleb128 0x13
 1014 0710 26050000 		.4byte	0x526
 1015 0714 04       		.byte	0x4
 1016 0715 00       		.byte	0
 1017 0716 18       		.uleb128 0x18
 1018 0717 1B070000 		.4byte	0x71b
 1019 071b 14       		.uleb128 0x14
 1020 071c 06070000 		.4byte	0x706
 1021 0720 16       		.uleb128 0x16
 1022 0721 88010000 		.4byte	.LASF102
 1023 0725 08       		.byte	0x8
 1024 0726 CF01     		.2byte	0x1cf
 1025 0728 9D050000 		.4byte	0x59d
 1026 072c 04       		.uleb128 0x4
ARM GAS  /tmp/ccWOP6oI.s 			page 19


 1027 072d 7F010000 		.4byte	.LASF103
 1028 0731 09       		.byte	0x9
 1029 0732 65       		.byte	0x65
 1030 0733 0F030000 		.4byte	0x30f
 1031 0737 04       		.uleb128 0x4
 1032 0738 82030000 		.4byte	.LASF104
 1033 073c 09       		.byte	0x9
 1034 073d 6D       		.byte	0x6d
 1035 073e B8000000 		.4byte	0xb8
 1036 0742 05       		.uleb128 0x5
 1037 0743 FB030000 		.4byte	.LASF105
 1038 0747 04       		.byte	0x4
 1039 0748 09       		.byte	0x9
 1040 0749 89       		.byte	0x89
 1041 074a 5A070000 		.4byte	0x75a
 1042 074e 07       		.uleb128 0x7
 1043 074f 737000   		.ascii	"sp\000"
 1044 0752 09       		.byte	0x9
 1045 0753 8A       		.byte	0x8a
 1046 0754 A6080000 		.4byte	0x8a6
 1047 0758 00       		.byte	0
 1048 0759 00       		.byte	0
 1049 075a 0B       		.uleb128 0xb
 1050 075b 54000000 		.4byte	.LASF106
 1051 075f 64       		.byte	0x64
 1052 0760 0A       		.byte	0xa
 1053 0761 5901     		.2byte	0x159
 1054 0763 A6080000 		.4byte	0x8a6
 1055 0767 08       		.uleb128 0x8
 1056 0768 73313600 		.ascii	"s16\000"
 1057 076c 0A       		.byte	0xa
 1058 076d 5B01     		.2byte	0x15b
 1059 076f 2C070000 		.4byte	0x72c
 1060 0773 00       		.byte	0
 1061 0774 08       		.uleb128 0x8
 1062 0775 73313700 		.ascii	"s17\000"
 1063 0779 0A       		.byte	0xa
 1064 077a 5C01     		.2byte	0x15c
 1065 077c 2C070000 		.4byte	0x72c
 1066 0780 04       		.byte	0x4
 1067 0781 08       		.uleb128 0x8
 1068 0782 73313800 		.ascii	"s18\000"
 1069 0786 0A       		.byte	0xa
 1070 0787 5D01     		.2byte	0x15d
 1071 0789 2C070000 		.4byte	0x72c
 1072 078d 08       		.byte	0x8
 1073 078e 08       		.uleb128 0x8
 1074 078f 73313900 		.ascii	"s19\000"
 1075 0793 0A       		.byte	0xa
 1076 0794 5E01     		.2byte	0x15e
 1077 0796 2C070000 		.4byte	0x72c
 1078 079a 0C       		.byte	0xc
 1079 079b 08       		.uleb128 0x8
 1080 079c 73323000 		.ascii	"s20\000"
 1081 07a0 0A       		.byte	0xa
 1082 07a1 5F01     		.2byte	0x15f
 1083 07a3 2C070000 		.4byte	0x72c
ARM GAS  /tmp/ccWOP6oI.s 			page 20


 1084 07a7 10       		.byte	0x10
 1085 07a8 08       		.uleb128 0x8
 1086 07a9 73323100 		.ascii	"s21\000"
 1087 07ad 0A       		.byte	0xa
 1088 07ae 6001     		.2byte	0x160
 1089 07b0 2C070000 		.4byte	0x72c
 1090 07b4 14       		.byte	0x14
 1091 07b5 08       		.uleb128 0x8
 1092 07b6 73323200 		.ascii	"s22\000"
 1093 07ba 0A       		.byte	0xa
 1094 07bb 6101     		.2byte	0x161
 1095 07bd 2C070000 		.4byte	0x72c
 1096 07c1 18       		.byte	0x18
 1097 07c2 08       		.uleb128 0x8
 1098 07c3 73323300 		.ascii	"s23\000"
 1099 07c7 0A       		.byte	0xa
 1100 07c8 6201     		.2byte	0x162
 1101 07ca 2C070000 		.4byte	0x72c
 1102 07ce 1C       		.byte	0x1c
 1103 07cf 08       		.uleb128 0x8
 1104 07d0 73323400 		.ascii	"s24\000"
 1105 07d4 0A       		.byte	0xa
 1106 07d5 6301     		.2byte	0x163
 1107 07d7 2C070000 		.4byte	0x72c
 1108 07db 20       		.byte	0x20
 1109 07dc 08       		.uleb128 0x8
 1110 07dd 73323500 		.ascii	"s25\000"
 1111 07e1 0A       		.byte	0xa
 1112 07e2 6401     		.2byte	0x164
 1113 07e4 2C070000 		.4byte	0x72c
 1114 07e8 24       		.byte	0x24
 1115 07e9 08       		.uleb128 0x8
 1116 07ea 73323600 		.ascii	"s26\000"
 1117 07ee 0A       		.byte	0xa
 1118 07ef 6501     		.2byte	0x165
 1119 07f1 2C070000 		.4byte	0x72c
 1120 07f5 28       		.byte	0x28
 1121 07f6 08       		.uleb128 0x8
 1122 07f7 73323700 		.ascii	"s27\000"
 1123 07fb 0A       		.byte	0xa
 1124 07fc 6601     		.2byte	0x166
 1125 07fe 2C070000 		.4byte	0x72c
 1126 0802 2C       		.byte	0x2c
 1127 0803 08       		.uleb128 0x8
 1128 0804 73323800 		.ascii	"s28\000"
 1129 0808 0A       		.byte	0xa
 1130 0809 6701     		.2byte	0x167
 1131 080b 2C070000 		.4byte	0x72c
 1132 080f 30       		.byte	0x30
 1133 0810 08       		.uleb128 0x8
 1134 0811 73323900 		.ascii	"s29\000"
 1135 0815 0A       		.byte	0xa
 1136 0816 6801     		.2byte	0x168
 1137 0818 2C070000 		.4byte	0x72c
 1138 081c 34       		.byte	0x34
 1139 081d 08       		.uleb128 0x8
 1140 081e 73333000 		.ascii	"s30\000"
ARM GAS  /tmp/ccWOP6oI.s 			page 21


 1141 0822 0A       		.byte	0xa
 1142 0823 6901     		.2byte	0x169
 1143 0825 2C070000 		.4byte	0x72c
 1144 0829 38       		.byte	0x38
 1145 082a 08       		.uleb128 0x8
 1146 082b 73333100 		.ascii	"s31\000"
 1147 082f 0A       		.byte	0xa
 1148 0830 6A01     		.2byte	0x16a
 1149 0832 2C070000 		.4byte	0x72c
 1150 0836 3C       		.byte	0x3c
 1151 0837 08       		.uleb128 0x8
 1152 0838 723400   		.ascii	"r4\000"
 1153 083b 0A       		.byte	0xa
 1154 083c 6C01     		.2byte	0x16c
 1155 083e 2C070000 		.4byte	0x72c
 1156 0842 40       		.byte	0x40
 1157 0843 08       		.uleb128 0x8
 1158 0844 723500   		.ascii	"r5\000"
 1159 0847 0A       		.byte	0xa
 1160 0848 6D01     		.2byte	0x16d
 1161 084a 2C070000 		.4byte	0x72c
 1162 084e 44       		.byte	0x44
 1163 084f 08       		.uleb128 0x8
 1164 0850 723600   		.ascii	"r6\000"
 1165 0853 0A       		.byte	0xa
 1166 0854 6E01     		.2byte	0x16e
 1167 0856 2C070000 		.4byte	0x72c
 1168 085a 48       		.byte	0x48
 1169 085b 08       		.uleb128 0x8
 1170 085c 723700   		.ascii	"r7\000"
 1171 085f 0A       		.byte	0xa
 1172 0860 6F01     		.2byte	0x16f
 1173 0862 2C070000 		.4byte	0x72c
 1174 0866 4C       		.byte	0x4c
 1175 0867 08       		.uleb128 0x8
 1176 0868 723800   		.ascii	"r8\000"
 1177 086b 0A       		.byte	0xa
 1178 086c 7001     		.2byte	0x170
 1179 086e 2C070000 		.4byte	0x72c
 1180 0872 50       		.byte	0x50
 1181 0873 08       		.uleb128 0x8
 1182 0874 723900   		.ascii	"r9\000"
 1183 0877 0A       		.byte	0xa
 1184 0878 7101     		.2byte	0x171
 1185 087a 2C070000 		.4byte	0x72c
 1186 087e 54       		.byte	0x54
 1187 087f 08       		.uleb128 0x8
 1188 0880 72313000 		.ascii	"r10\000"
 1189 0884 0A       		.byte	0xa
 1190 0885 7201     		.2byte	0x172
 1191 0887 2C070000 		.4byte	0x72c
 1192 088b 58       		.byte	0x58
 1193 088c 08       		.uleb128 0x8
 1194 088d 72313100 		.ascii	"r11\000"
 1195 0891 0A       		.byte	0xa
 1196 0892 7301     		.2byte	0x173
 1197 0894 2C070000 		.4byte	0x72c
ARM GAS  /tmp/ccWOP6oI.s 			page 22


 1198 0898 5C       		.byte	0x5c
 1199 0899 08       		.uleb128 0x8
 1200 089a 6C7200   		.ascii	"lr\000"
 1201 089d 0A       		.byte	0xa
 1202 089e 7401     		.2byte	0x174
 1203 08a0 2C070000 		.4byte	0x72c
 1204 08a4 60       		.byte	0x60
 1205 08a5 00       		.byte	0
 1206 08a6 0A       		.uleb128 0xa
 1207 08a7 04       		.byte	0x4
 1208 08a8 5A070000 		.4byte	0x75a
 1209 08ac 19       		.uleb128 0x19
 1210 08ad 04       		.byte	0x4
 1211 08ae 0B       		.byte	0xb
 1212 08af 38       		.byte	0x38
 1213 08b0 C1080000 		.4byte	0x8c1
 1214 08b4 06       		.uleb128 0x6
 1215 08b5 A7050000 		.4byte	.LASF107
 1216 08b9 0B       		.byte	0xb
 1217 08ba 3C       		.byte	0x3c
 1218 08bb C3000000 		.4byte	0xc3
 1219 08bf 00       		.byte	0
 1220 08c0 00       		.byte	0
 1221 08c1 04       		.uleb128 0x4
 1222 08c2 08040000 		.4byte	.LASF108
 1223 08c6 0B       		.byte	0xb
 1224 08c7 3D       		.byte	0x3d
 1225 08c8 AC080000 		.4byte	0x8ac
 1226 08cc 19       		.uleb128 0x19
 1227 08cd 18       		.byte	0x18
 1228 08ce 0B       		.byte	0xb
 1229 08cf 48       		.byte	0x48
 1230 08d0 0F090000 		.4byte	0x90f
 1231 08d4 06       		.uleb128 0x6
 1232 08d5 80050000 		.4byte	.LASF109
 1233 08d9 0B       		.byte	0xb
 1234 08da 49       		.byte	0x49
 1235 08db C3000000 		.4byte	0xc3
 1236 08df 00       		.byte	0
 1237 08e0 06       		.uleb128 0x6
 1238 08e1 80000000 		.4byte	.LASF110
 1239 08e5 0B       		.byte	0xb
 1240 08e6 4A       		.byte	0x4a
 1241 08e7 C3000000 		.4byte	0xc3
 1242 08eb 04       		.byte	0x4
 1243 08ec 06       		.uleb128 0x6
 1244 08ed 98050000 		.4byte	.LASF111
 1245 08f1 0B       		.byte	0xb
 1246 08f2 4B       		.byte	0x4b
 1247 08f3 C3000000 		.4byte	0xc3
 1248 08f7 08       		.byte	0x8
 1249 08f8 07       		.uleb128 0x7
 1250 08f9 6E00     		.ascii	"n\000"
 1251 08fb 0B       		.byte	0xb
 1252 08fc 4C       		.byte	0x4c
 1253 08fd 26010000 		.4byte	0x126
 1254 0901 0C       		.byte	0xc
ARM GAS  /tmp/ccWOP6oI.s 			page 23


 1255 0902 06       		.uleb128 0x6
 1256 0903 36040000 		.4byte	.LASF112
 1257 0907 0B       		.byte	0xb
 1258 0908 4D       		.byte	0x4d
 1259 0909 CE000000 		.4byte	0xce
 1260 090d 10       		.byte	0x10
 1261 090e 00       		.byte	0
 1262 090f 04       		.uleb128 0x4
 1263 0910 86000000 		.4byte	.LASF113
 1264 0914 0B       		.byte	0xb
 1265 0915 4E       		.byte	0x4e
 1266 0916 CC080000 		.4byte	0x8cc
 1267 091a 19       		.uleb128 0x19
 1268 091b 38       		.byte	0x38
 1269 091c 0C       		.byte	0xc
 1270 091d 38       		.byte	0x38
 1271 091e 53090000 		.4byte	0x953
 1272 0922 06       		.uleb128 0x6
 1273 0923 DF020000 		.4byte	.LASF114
 1274 0927 0C       		.byte	0xc
 1275 0928 39       		.byte	0x39
 1276 0929 26010000 		.4byte	0x126
 1277 092d 00       		.byte	0
 1278 092e 06       		.uleb128 0x6
 1279 092f 83040000 		.4byte	.LASF115
 1280 0933 0C       		.byte	0xc
 1281 0934 3A       		.byte	0x3a
 1282 0935 26010000 		.4byte	0x126
 1283 0939 04       		.byte	0x4
 1284 093a 06       		.uleb128 0x6
 1285 093b 8D060000 		.4byte	.LASF116
 1286 093f 0C       		.byte	0xc
 1287 0940 3B       		.byte	0x3b
 1288 0941 0F090000 		.4byte	0x90f
 1289 0945 08       		.byte	0x8
 1290 0946 06       		.uleb128 0x6
 1291 0947 53030000 		.4byte	.LASF117
 1292 094b 0C       		.byte	0xc
 1293 094c 3D       		.byte	0x3d
 1294 094d 0F090000 		.4byte	0x90f
 1295 0951 20       		.byte	0x20
 1296 0952 00       		.byte	0
 1297 0953 04       		.uleb128 0x4
 1298 0954 F0020000 		.4byte	.LASF118
 1299 0958 0C       		.byte	0xc
 1300 0959 3F       		.byte	0x3f
 1301 095a 1A090000 		.4byte	0x91a
 1302 095e 1A       		.uleb128 0x1a
 1303 095f 04       		.byte	0x4
 1304 0960 06       		.byte	0x6
 1305 0961 C6       		.byte	0xc6
 1306 0962 C0090000 		.4byte	0x9c0
 1307 0966 1B       		.uleb128 0x1b
 1308 0967 28000000 		.4byte	.LASF119
 1309 096b 06       		.byte	0x6
 1310 096c CD       		.byte	0xcd
 1311 096d 05010000 		.4byte	0x105
ARM GAS  /tmp/ccWOP6oI.s 			page 24


 1312 0971 1B       		.uleb128 0x1b
 1313 0972 B0000000 		.4byte	.LASF120
 1314 0976 06       		.byte	0x6
 1315 0977 D4       		.byte	0xd4
 1316 0978 05010000 		.4byte	0x105
 1317 097c 1B       		.uleb128 0x1b
 1318 097d 73060000 		.4byte	.LASF121
 1319 0981 06       		.byte	0x6
 1320 0982 DB       		.byte	0xdb
 1321 0983 0F030000 		.4byte	0x30f
 1322 0987 1B       		.uleb128 0x1b
 1323 0988 1C000000 		.4byte	.LASF122
 1324 098c 06       		.byte	0x6
 1325 098d E2       		.byte	0xe2
 1326 098e C0090000 		.4byte	0x9c0
 1327 0992 1B       		.uleb128 0x1b
 1328 0993 C4000000 		.4byte	.LASF123
 1329 0997 06       		.byte	0x6
 1330 0998 E7       		.byte	0xe7
 1331 0999 05010000 		.4byte	0x105
 1332 099d 1B       		.uleb128 0x1b
 1333 099e D3020000 		.4byte	.LASF124
 1334 09a2 06       		.byte	0x6
 1335 09a3 F0       		.byte	0xf0
 1336 09a4 EB090000 		.4byte	0x9eb
 1337 09a8 1B       		.uleb128 0x1b
 1338 09a9 31050000 		.4byte	.LASF125
 1339 09ad 06       		.byte	0x6
 1340 09ae F9       		.byte	0xf9
 1341 09af 220A0000 		.4byte	0xa22
 1342 09b3 1C       		.uleb128 0x1c
 1343 09b4 F0040000 		.4byte	.LASF126
 1344 09b8 06       		.byte	0x6
 1345 09b9 0101     		.2byte	0x101
 1346 09bb 10010000 		.4byte	0x110
 1347 09bf 00       		.byte	0
 1348 09c0 0A       		.uleb128 0xa
 1349 09c1 04       		.byte	0x4
 1350 09c2 27020000 		.4byte	0x227
 1351 09c6 05       		.uleb128 0x5
 1352 09c7 1B050000 		.4byte	.LASF127
 1353 09cb 0C       		.byte	0xc
 1354 09cc 0D       		.byte	0xd
 1355 09cd 34       		.byte	0x34
 1356 09ce EB090000 		.4byte	0x9eb
 1357 09d2 06       		.uleb128 0x6
 1358 09d3 EB030000 		.4byte	.LASF28
 1359 09d7 0D       		.byte	0xd
 1360 09d8 35       		.byte	0x35
 1361 09d9 5C020000 		.4byte	0x25c
 1362 09dd 00       		.byte	0
 1363 09de 07       		.uleb128 0x7
 1364 09df 636E7400 		.ascii	"cnt\000"
 1365 09e3 0D       		.byte	0xd
 1366 09e4 37       		.byte	0x37
 1367 09e5 1B010000 		.4byte	0x11b
 1368 09e9 08       		.byte	0x8
ARM GAS  /tmp/ccWOP6oI.s 			page 25


 1369 09ea 00       		.byte	0
 1370 09eb 0A       		.uleb128 0xa
 1371 09ec 04       		.byte	0x4
 1372 09ed C6090000 		.4byte	0x9c6
 1373 09f1 05       		.uleb128 0x5
 1374 09f2 43060000 		.4byte	.LASF128
 1375 09f6 10       		.byte	0x10
 1376 09f7 0E       		.byte	0xe
 1377 09f8 39       		.byte	0x39
 1378 09f9 220A0000 		.4byte	0xa22
 1379 09fd 06       		.uleb128 0x6
 1380 09fe EB030000 		.4byte	.LASF28
 1381 0a02 0E       		.byte	0xe
 1382 0a03 3A       		.byte	0x3a
 1383 0a04 5C020000 		.4byte	0x25c
 1384 0a08 00       		.byte	0
 1385 0a09 06       		.uleb128 0x6
 1386 0a0a 4D050000 		.4byte	.LASF129
 1387 0a0e 0E       		.byte	0xe
 1388 0a0f 3C       		.byte	0x3c
 1389 0a10 32020000 		.4byte	0x232
 1390 0a14 08       		.byte	0x8
 1391 0a15 06       		.uleb128 0x6
 1392 0a16 E8000000 		.4byte	.LASF48
 1393 0a1a 0E       		.byte	0xe
 1394 0a1b 3E       		.byte	0x3e
 1395 0a1c 560A0000 		.4byte	0xa56
 1396 0a20 0C       		.byte	0xc
 1397 0a21 00       		.byte	0
 1398 0a22 0A       		.uleb128 0xa
 1399 0a23 04       		.byte	0x4
 1400 0a24 F1090000 		.4byte	0x9f1
 1401 0a28 0A       		.uleb128 0xa
 1402 0a29 04       		.byte	0x4
 1403 0a2a 2E0A0000 		.4byte	0xa2e
 1404 0a2e 18       		.uleb128 0x18
 1405 0a2f 330A0000 		.4byte	0xa33
 1406 0a33 03       		.uleb128 0x3
 1407 0a34 01       		.byte	0x1
 1408 0a35 08       		.byte	0x8
 1409 0a36 6C050000 		.4byte	.LASF130
 1410 0a3a 0A       		.uleb128 0xa
 1411 0a3b 04       		.byte	0x4
 1412 0a3c 37070000 		.4byte	0x737
 1413 0a40 0A       		.uleb128 0xa
 1414 0a41 04       		.byte	0x4
 1415 0a42 11030000 		.4byte	0x311
 1416 0a46 14       		.uleb128 0x14
 1417 0a47 280A0000 		.4byte	0xa28
 1418 0a4b 04       		.uleb128 0x4
 1419 0a4c A9010000 		.4byte	.LASF131
 1420 0a50 0E       		.byte	0xe
 1421 0a51 34       		.byte	0x34
 1422 0a52 F1090000 		.4byte	0x9f1
 1423 0a56 0A       		.uleb128 0xa
 1424 0a57 04       		.byte	0x4
 1425 0a58 4B0A0000 		.4byte	0xa4b
ARM GAS  /tmp/ccWOP6oI.s 			page 26


 1426 0a5c 03       		.uleb128 0x3
 1427 0a5d 01       		.byte	0x1
 1428 0a5e 02       		.byte	0x2
 1429 0a5f 8C040000 		.4byte	.LASF132
 1430 0a63 1D       		.uleb128 0x1d
 1431 0a64 FB000000 		.4byte	.LASF133
 1432 0a68 01       		.byte	0x1
 1433 0a69 39       		.byte	0x39
 1434 0a6a 00000000 		.4byte	.LFB323
 1435 0a6e 2C000000 		.4byte	.LFE323-.LFB323
 1436 0a72 01       		.uleb128 0x1
 1437 0a73 9C       		.byte	0x9c
 1438 0a74 950A0000 		.4byte	0xa95
 1439 0a78 1E       		.uleb128 0x1e
 1440 0a79 6E00     		.ascii	"n\000"
 1441 0a7b 01       		.byte	0x1
 1442 0a7c 39       		.byte	0x39
 1443 0a7d AD000000 		.4byte	0xad
 1444 0a81 00000000 		.4byte	.LLST0
 1445 0a85 1F       		.uleb128 0x1f
 1446 0a86 1E040000 		.4byte	.LASF29
 1447 0a8a 01       		.byte	0x1
 1448 0a8b 39       		.byte	0x39
 1449 0a8c AD000000 		.4byte	0xad
 1450 0a90 43000000 		.4byte	.LLST1
 1451 0a94 00       		.byte	0
 1452 0a95 1D       		.uleb128 0x1d
 1453 0a96 C1020000 		.4byte	.LASF134
 1454 0a9a 01       		.byte	0x1
 1455 0a9b 4A       		.byte	0x4a
 1456 0a9c 00000000 		.4byte	.LFB324
 1457 0aa0 20000000 		.4byte	.LFE324-.LFB324
 1458 0aa4 01       		.uleb128 0x1
 1459 0aa5 9C       		.byte	0x9c
 1460 0aa6 B80A0000 		.4byte	0xab8
 1461 0aaa 1E       		.uleb128 0x1e
 1462 0aab 6E00     		.ascii	"n\000"
 1463 0aad 01       		.byte	0x1
 1464 0aae 4A       		.byte	0x4a
 1465 0aaf AD000000 		.4byte	0xad
 1466 0ab3 64000000 		.4byte	.LLST2
 1467 0ab7 00       		.byte	0
 1468 0ab8 1D       		.uleb128 0x1d
 1469 0ab9 D3040000 		.4byte	.LASF135
 1470 0abd 01       		.byte	0x1
 1471 0abe 5A       		.byte	0x5a
 1472 0abf 00000000 		.4byte	.LFB325
 1473 0ac3 10000000 		.4byte	.LFE325-.LFB325
 1474 0ac7 01       		.uleb128 0x1
 1475 0ac8 9C       		.byte	0x9c
 1476 0ac9 F50A0000 		.4byte	0xaf5
 1477 0acd 1F       		.uleb128 0x1f
 1478 0ace 97030000 		.4byte	.LASF136
 1479 0ad2 01       		.byte	0x1
 1480 0ad3 5A       		.byte	0x5a
 1481 0ad4 AD000000 		.4byte	0xad
 1482 0ad8 88000000 		.4byte	.LLST3
ARM GAS  /tmp/ccWOP6oI.s 			page 27


 1483 0adc 1F       		.uleb128 0x1f
 1484 0add 1E040000 		.4byte	.LASF29
 1485 0ae1 01       		.byte	0x1
 1486 0ae2 5A       		.byte	0x5a
 1487 0ae3 AD000000 		.4byte	0xad
 1488 0ae7 BD000000 		.4byte	.LLST4
 1489 0aeb 20       		.uleb128 0x20
 1490 0aec 01050000 		.4byte	.LASF142
 1491 0af0 050B0000 		.4byte	0xb05
 1492 0af4 00       		.byte	0
 1493 0af5 12       		.uleb128 0x12
 1494 0af6 330A0000 		.4byte	0xa33
 1495 0afa 050B0000 		.4byte	0xb05
 1496 0afe 13       		.uleb128 0x13
 1497 0aff 26050000 		.4byte	0x526
 1498 0b03 1C       		.byte	0x1c
 1499 0b04 00       		.byte	0
 1500 0b05 18       		.uleb128 0x18
 1501 0b06 F50A0000 		.4byte	0xaf5
 1502 0b0a 1D       		.uleb128 0x1d
 1503 0b0b 30010000 		.4byte	.LASF137
 1504 0b0f 01       		.byte	0x1
 1505 0b10 6D       		.byte	0x6d
 1506 0b11 00000000 		.4byte	.LFB326
 1507 0b15 18000000 		.4byte	.LFE326-.LFB326
 1508 0b19 01       		.uleb128 0x1
 1509 0b1a 9C       		.byte	0x9c
 1510 0b1b 2D0B0000 		.4byte	0xb2d
 1511 0b1f 1E       		.uleb128 0x1e
 1512 0b20 6E00     		.ascii	"n\000"
 1513 0b22 01       		.byte	0x1
 1514 0b23 6D       		.byte	0x6d
 1515 0b24 AD000000 		.4byte	0xad
 1516 0b28 DE000000 		.4byte	.LLST5
 1517 0b2c 00       		.byte	0
 1518 0b2d 21       		.uleb128 0x21
 1519 0b2e AE040000 		.4byte	.LASF138
 1520 0b32 08       		.byte	0x8
 1521 0b33 0408     		.2byte	0x804
 1522 0b35 390B0000 		.4byte	0xb39
 1523 0b39 14       		.uleb128 0x14
 1524 0b3a A2000000 		.4byte	0xa2
 1525 0b3e 22       		.uleb128 0x22
 1526 0b3f 636800   		.ascii	"ch\000"
 1527 0b42 06       		.byte	0x6
 1528 0b43 C701     		.2byte	0x1c7
 1529 0b45 DE030000 		.4byte	0x3de
 1530 0b49 00       		.byte	0
 1531              		.section	.debug_abbrev,"",%progbits
 1532              	.Ldebug_abbrev0:
 1533 0000 01       		.uleb128 0x1
 1534 0001 11       		.uleb128 0x11
 1535 0002 01       		.byte	0x1
 1536 0003 25       		.uleb128 0x25
 1537 0004 0E       		.uleb128 0xe
 1538 0005 13       		.uleb128 0x13
 1539 0006 0B       		.uleb128 0xb
ARM GAS  /tmp/ccWOP6oI.s 			page 28


 1540 0007 03       		.uleb128 0x3
 1541 0008 0E       		.uleb128 0xe
 1542 0009 1B       		.uleb128 0x1b
 1543 000a 0E       		.uleb128 0xe
 1544 000b 55       		.uleb128 0x55
 1545 000c 17       		.uleb128 0x17
 1546 000d 11       		.uleb128 0x11
 1547 000e 01       		.uleb128 0x1
 1548 000f 10       		.uleb128 0x10
 1549 0010 17       		.uleb128 0x17
 1550 0011 00       		.byte	0
 1551 0012 00       		.byte	0
 1552 0013 02       		.uleb128 0x2
 1553 0014 24       		.uleb128 0x24
 1554 0015 00       		.byte	0
 1555 0016 0B       		.uleb128 0xb
 1556 0017 0B       		.uleb128 0xb
 1557 0018 3E       		.uleb128 0x3e
 1558 0019 0B       		.uleb128 0xb
 1559 001a 03       		.uleb128 0x3
 1560 001b 08       		.uleb128 0x8
 1561 001c 00       		.byte	0
 1562 001d 00       		.byte	0
 1563 001e 03       		.uleb128 0x3
 1564 001f 24       		.uleb128 0x24
 1565 0020 00       		.byte	0
 1566 0021 0B       		.uleb128 0xb
 1567 0022 0B       		.uleb128 0xb
 1568 0023 3E       		.uleb128 0x3e
 1569 0024 0B       		.uleb128 0xb
 1570 0025 03       		.uleb128 0x3
 1571 0026 0E       		.uleb128 0xe
 1572 0027 00       		.byte	0
 1573 0028 00       		.byte	0
 1574 0029 04       		.uleb128 0x4
 1575 002a 16       		.uleb128 0x16
 1576 002b 00       		.byte	0
 1577 002c 03       		.uleb128 0x3
 1578 002d 0E       		.uleb128 0xe
 1579 002e 3A       		.uleb128 0x3a
 1580 002f 0B       		.uleb128 0xb
 1581 0030 3B       		.uleb128 0x3b
 1582 0031 0B       		.uleb128 0xb
 1583 0032 49       		.uleb128 0x49
 1584 0033 13       		.uleb128 0x13
 1585 0034 00       		.byte	0
 1586 0035 00       		.byte	0
 1587 0036 05       		.uleb128 0x5
 1588 0037 13       		.uleb128 0x13
 1589 0038 01       		.byte	0x1
 1590 0039 03       		.uleb128 0x3
 1591 003a 0E       		.uleb128 0xe
 1592 003b 0B       		.uleb128 0xb
 1593 003c 0B       		.uleb128 0xb
 1594 003d 3A       		.uleb128 0x3a
 1595 003e 0B       		.uleb128 0xb
 1596 003f 3B       		.uleb128 0x3b
ARM GAS  /tmp/ccWOP6oI.s 			page 29


 1597 0040 0B       		.uleb128 0xb
 1598 0041 01       		.uleb128 0x1
 1599 0042 13       		.uleb128 0x13
 1600 0043 00       		.byte	0
 1601 0044 00       		.byte	0
 1602 0045 06       		.uleb128 0x6
 1603 0046 0D       		.uleb128 0xd
 1604 0047 00       		.byte	0
 1605 0048 03       		.uleb128 0x3
 1606 0049 0E       		.uleb128 0xe
 1607 004a 3A       		.uleb128 0x3a
 1608 004b 0B       		.uleb128 0xb
 1609 004c 3B       		.uleb128 0x3b
 1610 004d 0B       		.uleb128 0xb
 1611 004e 49       		.uleb128 0x49
 1612 004f 13       		.uleb128 0x13
 1613 0050 38       		.uleb128 0x38
 1614 0051 0B       		.uleb128 0xb
 1615 0052 00       		.byte	0
 1616 0053 00       		.byte	0
 1617 0054 07       		.uleb128 0x7
 1618 0055 0D       		.uleb128 0xd
 1619 0056 00       		.byte	0
 1620 0057 03       		.uleb128 0x3
 1621 0058 08       		.uleb128 0x8
 1622 0059 3A       		.uleb128 0x3a
 1623 005a 0B       		.uleb128 0xb
 1624 005b 3B       		.uleb128 0x3b
 1625 005c 0B       		.uleb128 0xb
 1626 005d 49       		.uleb128 0x49
 1627 005e 13       		.uleb128 0x13
 1628 005f 38       		.uleb128 0x38
 1629 0060 0B       		.uleb128 0xb
 1630 0061 00       		.byte	0
 1631 0062 00       		.byte	0
 1632 0063 08       		.uleb128 0x8
 1633 0064 0D       		.uleb128 0xd
 1634 0065 00       		.byte	0
 1635 0066 03       		.uleb128 0x3
 1636 0067 08       		.uleb128 0x8
 1637 0068 3A       		.uleb128 0x3a
 1638 0069 0B       		.uleb128 0xb
 1639 006a 3B       		.uleb128 0x3b
 1640 006b 05       		.uleb128 0x5
 1641 006c 49       		.uleb128 0x49
 1642 006d 13       		.uleb128 0x13
 1643 006e 38       		.uleb128 0x38
 1644 006f 0B       		.uleb128 0xb
 1645 0070 00       		.byte	0
 1646 0071 00       		.byte	0
 1647 0072 09       		.uleb128 0x9
 1648 0073 0D       		.uleb128 0xd
 1649 0074 00       		.byte	0
 1650 0075 03       		.uleb128 0x3
 1651 0076 0E       		.uleb128 0xe
 1652 0077 3A       		.uleb128 0x3a
 1653 0078 0B       		.uleb128 0xb
ARM GAS  /tmp/ccWOP6oI.s 			page 30


 1654 0079 3B       		.uleb128 0x3b
 1655 007a 05       		.uleb128 0x5
 1656 007b 49       		.uleb128 0x49
 1657 007c 13       		.uleb128 0x13
 1658 007d 38       		.uleb128 0x38
 1659 007e 0B       		.uleb128 0xb
 1660 007f 00       		.byte	0
 1661 0080 00       		.byte	0
 1662 0081 0A       		.uleb128 0xa
 1663 0082 0F       		.uleb128 0xf
 1664 0083 00       		.byte	0
 1665 0084 0B       		.uleb128 0xb
 1666 0085 0B       		.uleb128 0xb
 1667 0086 49       		.uleb128 0x49
 1668 0087 13       		.uleb128 0x13
 1669 0088 00       		.byte	0
 1670 0089 00       		.byte	0
 1671 008a 0B       		.uleb128 0xb
 1672 008b 13       		.uleb128 0x13
 1673 008c 01       		.byte	0x1
 1674 008d 03       		.uleb128 0x3
 1675 008e 0E       		.uleb128 0xe
 1676 008f 0B       		.uleb128 0xb
 1677 0090 0B       		.uleb128 0xb
 1678 0091 3A       		.uleb128 0x3a
 1679 0092 0B       		.uleb128 0xb
 1680 0093 3B       		.uleb128 0x3b
 1681 0094 05       		.uleb128 0x5
 1682 0095 01       		.uleb128 0x1
 1683 0096 13       		.uleb128 0x13
 1684 0097 00       		.byte	0
 1685 0098 00       		.byte	0
 1686 0099 0C       		.uleb128 0xc
 1687 009a 15       		.uleb128 0x15
 1688 009b 01       		.byte	0x1
 1689 009c 27       		.uleb128 0x27
 1690 009d 19       		.uleb128 0x19
 1691 009e 01       		.uleb128 0x1
 1692 009f 13       		.uleb128 0x13
 1693 00a0 00       		.byte	0
 1694 00a1 00       		.byte	0
 1695 00a2 0D       		.uleb128 0xd
 1696 00a3 05       		.uleb128 0x5
 1697 00a4 00       		.byte	0
 1698 00a5 49       		.uleb128 0x49
 1699 00a6 13       		.uleb128 0x13
 1700 00a7 00       		.byte	0
 1701 00a8 00       		.byte	0
 1702 00a9 0E       		.uleb128 0xe
 1703 00aa 0F       		.uleb128 0xf
 1704 00ab 00       		.byte	0
 1705 00ac 0B       		.uleb128 0xb
 1706 00ad 0B       		.uleb128 0xb
 1707 00ae 00       		.byte	0
 1708 00af 00       		.byte	0
 1709 00b0 0F       		.uleb128 0xf
 1710 00b1 13       		.uleb128 0x13
ARM GAS  /tmp/ccWOP6oI.s 			page 31


 1711 00b2 01       		.byte	0x1
 1712 00b3 0B       		.uleb128 0xb
 1713 00b4 05       		.uleb128 0x5
 1714 00b5 3A       		.uleb128 0x3a
 1715 00b6 0B       		.uleb128 0xb
 1716 00b7 3B       		.uleb128 0x3b
 1717 00b8 05       		.uleb128 0x5
 1718 00b9 01       		.uleb128 0x1
 1719 00ba 13       		.uleb128 0x13
 1720 00bb 00       		.byte	0
 1721 00bc 00       		.byte	0
 1722 00bd 10       		.uleb128 0x10
 1723 00be 0D       		.uleb128 0xd
 1724 00bf 00       		.byte	0
 1725 00c0 03       		.uleb128 0x3
 1726 00c1 0E       		.uleb128 0xe
 1727 00c2 3A       		.uleb128 0x3a
 1728 00c3 0B       		.uleb128 0xb
 1729 00c4 3B       		.uleb128 0x3b
 1730 00c5 05       		.uleb128 0x5
 1731 00c6 49       		.uleb128 0x49
 1732 00c7 13       		.uleb128 0x13
 1733 00c8 38       		.uleb128 0x38
 1734 00c9 05       		.uleb128 0x5
 1735 00ca 00       		.byte	0
 1736 00cb 00       		.byte	0
 1737 00cc 11       		.uleb128 0x11
 1738 00cd 0D       		.uleb128 0xd
 1739 00ce 00       		.byte	0
 1740 00cf 03       		.uleb128 0x3
 1741 00d0 08       		.uleb128 0x8
 1742 00d1 3A       		.uleb128 0x3a
 1743 00d2 0B       		.uleb128 0xb
 1744 00d3 3B       		.uleb128 0x3b
 1745 00d4 05       		.uleb128 0x5
 1746 00d5 49       		.uleb128 0x49
 1747 00d6 13       		.uleb128 0x13
 1748 00d7 38       		.uleb128 0x38
 1749 00d8 05       		.uleb128 0x5
 1750 00d9 00       		.byte	0
 1751 00da 00       		.byte	0
 1752 00db 12       		.uleb128 0x12
 1753 00dc 01       		.uleb128 0x1
 1754 00dd 01       		.byte	0x1
 1755 00de 49       		.uleb128 0x49
 1756 00df 13       		.uleb128 0x13
 1757 00e0 01       		.uleb128 0x1
 1758 00e1 13       		.uleb128 0x13
 1759 00e2 00       		.byte	0
 1760 00e3 00       		.byte	0
 1761 00e4 13       		.uleb128 0x13
 1762 00e5 21       		.uleb128 0x21
 1763 00e6 00       		.byte	0
 1764 00e7 49       		.uleb128 0x49
 1765 00e8 13       		.uleb128 0x13
 1766 00e9 2F       		.uleb128 0x2f
 1767 00ea 0B       		.uleb128 0xb
ARM GAS  /tmp/ccWOP6oI.s 			page 32


 1768 00eb 00       		.byte	0
 1769 00ec 00       		.byte	0
 1770 00ed 14       		.uleb128 0x14
 1771 00ee 35       		.uleb128 0x35
 1772 00ef 00       		.byte	0
 1773 00f0 49       		.uleb128 0x49
 1774 00f1 13       		.uleb128 0x13
 1775 00f2 00       		.byte	0
 1776 00f3 00       		.byte	0
 1777 00f4 15       		.uleb128 0x15
 1778 00f5 21       		.uleb128 0x21
 1779 00f6 00       		.byte	0
 1780 00f7 49       		.uleb128 0x49
 1781 00f8 13       		.uleb128 0x13
 1782 00f9 2F       		.uleb128 0x2f
 1783 00fa 05       		.uleb128 0x5
 1784 00fb 00       		.byte	0
 1785 00fc 00       		.byte	0
 1786 00fd 16       		.uleb128 0x16
 1787 00fe 16       		.uleb128 0x16
 1788 00ff 00       		.byte	0
 1789 0100 03       		.uleb128 0x3
 1790 0101 0E       		.uleb128 0xe
 1791 0102 3A       		.uleb128 0x3a
 1792 0103 0B       		.uleb128 0xb
 1793 0104 3B       		.uleb128 0x3b
 1794 0105 05       		.uleb128 0x5
 1795 0106 49       		.uleb128 0x49
 1796 0107 13       		.uleb128 0x13
 1797 0108 00       		.byte	0
 1798 0109 00       		.byte	0
 1799 010a 17       		.uleb128 0x17
 1800 010b 13       		.uleb128 0x13
 1801 010c 01       		.byte	0x1
 1802 010d 0B       		.uleb128 0xb
 1803 010e 0B       		.uleb128 0xb
 1804 010f 3A       		.uleb128 0x3a
 1805 0110 0B       		.uleb128 0xb
 1806 0111 3B       		.uleb128 0x3b
 1807 0112 05       		.uleb128 0x5
 1808 0113 01       		.uleb128 0x1
 1809 0114 13       		.uleb128 0x13
 1810 0115 00       		.byte	0
 1811 0116 00       		.byte	0
 1812 0117 18       		.uleb128 0x18
 1813 0118 26       		.uleb128 0x26
 1814 0119 00       		.byte	0
 1815 011a 49       		.uleb128 0x49
 1816 011b 13       		.uleb128 0x13
 1817 011c 00       		.byte	0
 1818 011d 00       		.byte	0
 1819 011e 19       		.uleb128 0x19
 1820 011f 13       		.uleb128 0x13
 1821 0120 01       		.byte	0x1
 1822 0121 0B       		.uleb128 0xb
 1823 0122 0B       		.uleb128 0xb
 1824 0123 3A       		.uleb128 0x3a
ARM GAS  /tmp/ccWOP6oI.s 			page 33


 1825 0124 0B       		.uleb128 0xb
 1826 0125 3B       		.uleb128 0x3b
 1827 0126 0B       		.uleb128 0xb
 1828 0127 01       		.uleb128 0x1
 1829 0128 13       		.uleb128 0x13
 1830 0129 00       		.byte	0
 1831 012a 00       		.byte	0
 1832 012b 1A       		.uleb128 0x1a
 1833 012c 17       		.uleb128 0x17
 1834 012d 01       		.byte	0x1
 1835 012e 0B       		.uleb128 0xb
 1836 012f 0B       		.uleb128 0xb
 1837 0130 3A       		.uleb128 0x3a
 1838 0131 0B       		.uleb128 0xb
 1839 0132 3B       		.uleb128 0x3b
 1840 0133 0B       		.uleb128 0xb
 1841 0134 01       		.uleb128 0x1
 1842 0135 13       		.uleb128 0x13
 1843 0136 00       		.byte	0
 1844 0137 00       		.byte	0
 1845 0138 1B       		.uleb128 0x1b
 1846 0139 0D       		.uleb128 0xd
 1847 013a 00       		.byte	0
 1848 013b 03       		.uleb128 0x3
 1849 013c 0E       		.uleb128 0xe
 1850 013d 3A       		.uleb128 0x3a
 1851 013e 0B       		.uleb128 0xb
 1852 013f 3B       		.uleb128 0x3b
 1853 0140 0B       		.uleb128 0xb
 1854 0141 49       		.uleb128 0x49
 1855 0142 13       		.uleb128 0x13
 1856 0143 00       		.byte	0
 1857 0144 00       		.byte	0
 1858 0145 1C       		.uleb128 0x1c
 1859 0146 0D       		.uleb128 0xd
 1860 0147 00       		.byte	0
 1861 0148 03       		.uleb128 0x3
 1862 0149 0E       		.uleb128 0xe
 1863 014a 3A       		.uleb128 0x3a
 1864 014b 0B       		.uleb128 0xb
 1865 014c 3B       		.uleb128 0x3b
 1866 014d 05       		.uleb128 0x5
 1867 014e 49       		.uleb128 0x49
 1868 014f 13       		.uleb128 0x13
 1869 0150 00       		.byte	0
 1870 0151 00       		.byte	0
 1871 0152 1D       		.uleb128 0x1d
 1872 0153 2E       		.uleb128 0x2e
 1873 0154 01       		.byte	0x1
 1874 0155 3F       		.uleb128 0x3f
 1875 0156 19       		.uleb128 0x19
 1876 0157 03       		.uleb128 0x3
 1877 0158 0E       		.uleb128 0xe
 1878 0159 3A       		.uleb128 0x3a
 1879 015a 0B       		.uleb128 0xb
 1880 015b 3B       		.uleb128 0x3b
 1881 015c 0B       		.uleb128 0xb
ARM GAS  /tmp/ccWOP6oI.s 			page 34


 1882 015d 27       		.uleb128 0x27
 1883 015e 19       		.uleb128 0x19
 1884 015f 11       		.uleb128 0x11
 1885 0160 01       		.uleb128 0x1
 1886 0161 12       		.uleb128 0x12
 1887 0162 06       		.uleb128 0x6
 1888 0163 40       		.uleb128 0x40
 1889 0164 18       		.uleb128 0x18
 1890 0165 9742     		.uleb128 0x2117
 1891 0167 19       		.uleb128 0x19
 1892 0168 01       		.uleb128 0x1
 1893 0169 13       		.uleb128 0x13
 1894 016a 00       		.byte	0
 1895 016b 00       		.byte	0
 1896 016c 1E       		.uleb128 0x1e
 1897 016d 05       		.uleb128 0x5
 1898 016e 00       		.byte	0
 1899 016f 03       		.uleb128 0x3
 1900 0170 08       		.uleb128 0x8
 1901 0171 3A       		.uleb128 0x3a
 1902 0172 0B       		.uleb128 0xb
 1903 0173 3B       		.uleb128 0x3b
 1904 0174 0B       		.uleb128 0xb
 1905 0175 49       		.uleb128 0x49
 1906 0176 13       		.uleb128 0x13
 1907 0177 02       		.uleb128 0x2
 1908 0178 17       		.uleb128 0x17
 1909 0179 00       		.byte	0
 1910 017a 00       		.byte	0
 1911 017b 1F       		.uleb128 0x1f
 1912 017c 05       		.uleb128 0x5
 1913 017d 00       		.byte	0
 1914 017e 03       		.uleb128 0x3
 1915 017f 0E       		.uleb128 0xe
 1916 0180 3A       		.uleb128 0x3a
 1917 0181 0B       		.uleb128 0xb
 1918 0182 3B       		.uleb128 0x3b
 1919 0183 0B       		.uleb128 0xb
 1920 0184 49       		.uleb128 0x49
 1921 0185 13       		.uleb128 0x13
 1922 0186 02       		.uleb128 0x2
 1923 0187 17       		.uleb128 0x17
 1924 0188 00       		.byte	0
 1925 0189 00       		.byte	0
 1926 018a 20       		.uleb128 0x20
 1927 018b 34       		.uleb128 0x34
 1928 018c 00       		.byte	0
 1929 018d 03       		.uleb128 0x3
 1930 018e 0E       		.uleb128 0xe
 1931 018f 49       		.uleb128 0x49
 1932 0190 13       		.uleb128 0x13
 1933 0191 34       		.uleb128 0x34
 1934 0192 19       		.uleb128 0x19
 1935 0193 00       		.byte	0
 1936 0194 00       		.byte	0
 1937 0195 21       		.uleb128 0x21
 1938 0196 34       		.uleb128 0x34
ARM GAS  /tmp/ccWOP6oI.s 			page 35


 1939 0197 00       		.byte	0
 1940 0198 03       		.uleb128 0x3
 1941 0199 0E       		.uleb128 0xe
 1942 019a 3A       		.uleb128 0x3a
 1943 019b 0B       		.uleb128 0xb
 1944 019c 3B       		.uleb128 0x3b
 1945 019d 05       		.uleb128 0x5
 1946 019e 49       		.uleb128 0x49
 1947 019f 13       		.uleb128 0x13
 1948 01a0 3F       		.uleb128 0x3f
 1949 01a1 19       		.uleb128 0x19
 1950 01a2 3C       		.uleb128 0x3c
 1951 01a3 19       		.uleb128 0x19
 1952 01a4 00       		.byte	0
 1953 01a5 00       		.byte	0
 1954 01a6 22       		.uleb128 0x22
 1955 01a7 34       		.uleb128 0x34
 1956 01a8 00       		.byte	0
 1957 01a9 03       		.uleb128 0x3
 1958 01aa 08       		.uleb128 0x8
 1959 01ab 3A       		.uleb128 0x3a
 1960 01ac 0B       		.uleb128 0xb
 1961 01ad 3B       		.uleb128 0x3b
 1962 01ae 05       		.uleb128 0x5
 1963 01af 49       		.uleb128 0x49
 1964 01b0 13       		.uleb128 0x13
 1965 01b1 3F       		.uleb128 0x3f
 1966 01b2 19       		.uleb128 0x19
 1967 01b3 3C       		.uleb128 0x3c
 1968 01b4 19       		.uleb128 0x19
 1969 01b5 00       		.byte	0
 1970 01b6 00       		.byte	0
 1971 01b7 00       		.byte	0
 1972              		.section	.debug_loc,"",%progbits
 1973              	.Ldebug_loc0:
 1974              	.LLST0:
 1975 0000 00000000 		.4byte	.LVL0
 1976 0004 0A000000 		.4byte	.LVL1
 1977 0008 0100     		.2byte	0x1
 1978 000a 50       		.byte	0x50
 1979 000b 0A000000 		.4byte	.LVL1
 1980 000f 0E000000 		.4byte	.LVL2
 1981 0013 0700     		.2byte	0x7
 1982 0015 73       		.byte	0x73
 1983 0016 80808080 		.sleb128 536870912
 1983      02
 1984 001b 9F       		.byte	0x9f
 1985 001c 0E000000 		.4byte	.LVL2
 1986 0020 22000000 		.4byte	.LVL4
 1987 0024 0700     		.2byte	0x7
 1988 0026 73       		.byte	0x73
 1989 0027 80BEFCFF 		.sleb128 536813312
 1989      01
 1990 002c 9F       		.byte	0x9f
 1991 002d 22000000 		.4byte	.LVL4
 1992 0031 2C000000 		.4byte	.LFE323
 1993 0035 0400     		.2byte	0x4
ARM GAS  /tmp/ccWOP6oI.s 			page 36


 1994 0037 F3       		.byte	0xf3
 1995 0038 01       		.uleb128 0x1
 1996 0039 50       		.byte	0x50
 1997 003a 9F       		.byte	0x9f
 1998 003b 00000000 		.4byte	0
 1999 003f 00000000 		.4byte	0
 2000              	.LLST1:
 2001 0043 00000000 		.4byte	.LVL0
 2002 0047 10000000 		.4byte	.LVL3
 2003 004b 0100     		.2byte	0x1
 2004 004d 51       		.byte	0x51
 2005 004e 10000000 		.4byte	.LVL3
 2006 0052 2C000000 		.4byte	.LFE323
 2007 0056 0400     		.2byte	0x4
 2008 0058 F3       		.byte	0xf3
 2009 0059 01       		.uleb128 0x1
 2010 005a 51       		.byte	0x51
 2011 005b 9F       		.byte	0x9f
 2012 005c 00000000 		.4byte	0
 2013 0060 00000000 		.4byte	0
 2014              	.LLST2:
 2015 0064 00000000 		.4byte	.LVL5
 2016 0068 10000000 		.4byte	.LVL6
 2017 006c 0100     		.2byte	0x1
 2018 006e 50       		.byte	0x50
 2019 006f 10000000 		.4byte	.LVL6
 2020 0073 20000000 		.4byte	.LFE324
 2021 0077 0700     		.2byte	0x7
 2022 0079 70       		.byte	0x70
 2023 007a 80BEFCFF 		.sleb128 536813312
 2023      01
 2024 007f 9F       		.byte	0x9f
 2025 0080 00000000 		.4byte	0
 2026 0084 00000000 		.4byte	0
 2027              	.LLST3:
 2028 0088 00000000 		.4byte	.LVL7
 2029 008c 04000000 		.4byte	.LVL8
 2030 0090 0100     		.2byte	0x1
 2031 0092 50       		.byte	0x50
 2032 0093 04000000 		.4byte	.LVL8
 2033 0097 0A000000 		.4byte	.LVL10
 2034 009b 0700     		.2byte	0x7
 2035 009d 70       		.byte	0x70
 2036 009e 80808080 		.sleb128 536870912
 2036      02
 2037 00a3 9F       		.byte	0x9f
 2038 00a4 0A000000 		.4byte	.LVL10
 2039 00a8 10000000 		.4byte	.LFE325
 2040 00ac 0700     		.2byte	0x7
 2041 00ae 70       		.byte	0x70
 2042 00af 80A6FCFF 		.sleb128 536810240
 2042      01
 2043 00b4 9F       		.byte	0x9f
 2044 00b5 00000000 		.4byte	0
 2045 00b9 00000000 		.4byte	0
 2046              	.LLST4:
 2047 00bd 00000000 		.4byte	.LVL7
ARM GAS  /tmp/ccWOP6oI.s 			page 37


 2048 00c1 06000000 		.4byte	.LVL9
 2049 00c5 0100     		.2byte	0x1
 2050 00c7 51       		.byte	0x51
 2051 00c8 06000000 		.4byte	.LVL9
 2052 00cc 10000000 		.4byte	.LFE325
 2053 00d0 0400     		.2byte	0x4
 2054 00d2 F3       		.byte	0xf3
 2055 00d3 01       		.uleb128 0x1
 2056 00d4 51       		.byte	0x51
 2057 00d5 9F       		.byte	0x9f
 2058 00d6 00000000 		.4byte	0
 2059 00da 00000000 		.4byte	0
 2060              	.LLST5:
 2061 00de 00000000 		.4byte	.LVL11
 2062 00e2 08000000 		.4byte	.LVL12
 2063 00e6 0100     		.2byte	0x1
 2064 00e8 50       		.byte	0x50
 2065 00e9 08000000 		.4byte	.LVL12
 2066 00ed 18000000 		.4byte	.LFE326
 2067 00f1 0400     		.2byte	0x4
 2068 00f3 F3       		.byte	0xf3
 2069 00f4 01       		.uleb128 0x1
 2070 00f5 50       		.byte	0x50
 2071 00f6 9F       		.byte	0x9f
 2072 00f7 00000000 		.4byte	0
 2073 00fb 00000000 		.4byte	0
 2074              		.section	.debug_aranges,"",%progbits
 2075 0000 34000000 		.4byte	0x34
 2076 0004 0200     		.2byte	0x2
 2077 0006 00000000 		.4byte	.Ldebug_info0
 2078 000a 04       		.byte	0x4
 2079 000b 00       		.byte	0
 2080 000c 0000     		.2byte	0
 2081 000e 0000     		.2byte	0
 2082 0010 00000000 		.4byte	.LFB323
 2083 0014 2C000000 		.4byte	.LFE323-.LFB323
 2084 0018 00000000 		.4byte	.LFB324
 2085 001c 20000000 		.4byte	.LFE324-.LFB324
 2086 0020 00000000 		.4byte	.LFB325
 2087 0024 10000000 		.4byte	.LFE325-.LFB325
 2088 0028 00000000 		.4byte	.LFB326
 2089 002c 18000000 		.4byte	.LFE326-.LFB326
 2090 0030 00000000 		.4byte	0
 2091 0034 00000000 		.4byte	0
 2092              		.section	.debug_ranges,"",%progbits
 2093              	.Ldebug_ranges0:
 2094 0000 00000000 		.4byte	.LFB323
 2095 0004 2C000000 		.4byte	.LFE323
 2096 0008 00000000 		.4byte	.LFB324
 2097 000c 20000000 		.4byte	.LFE324
 2098 0010 00000000 		.4byte	.LFB325
 2099 0014 10000000 		.4byte	.LFE325
 2100 0018 00000000 		.4byte	.LFB326
 2101 001c 18000000 		.4byte	.LFE326
 2102 0020 00000000 		.4byte	0
 2103 0024 00000000 		.4byte	0
 2104              		.section	.debug_line,"",%progbits
ARM GAS  /tmp/ccWOP6oI.s 			page 38


 2105              	.Ldebug_line0:
 2106 0000 48020000 		.section	.debug_str,"MS",%progbits,1
 2106      0200F601 
 2106      00000201 
 2106      FB0E0D00 
 2106      01010101 
 2107              	.LASF45:
 2108 0000 74687265 		.ascii	"threads_list_t\000"
 2108      6164735F 
 2108      6C697374 
 2108      5F7400
 2109              	.LASF52:
 2110 000f 72656164 		.ascii	"ready_list_t\000"
 2110      795F6C69 
 2110      73745F74 
 2110      00
 2111              	.LASF122:
 2112 001c 77747472 		.ascii	"wttrp\000"
 2112      7000
 2113              	.LASF58:
 2114 0022 64656C74 		.ascii	"delta\000"
 2114      6100
 2115              	.LASF119:
 2116 0028 7264796D 		.ascii	"rdymsg\000"
 2116      736700
 2117              	.LASF16:
 2118 002f 75696E74 		.ascii	"uint64_t\000"
 2118      36345F74 
 2118      00
 2119              	.LASF71:
 2120 0038 6B65726E 		.ascii	"kernel_stats\000"
 2120      656C5F73 
 2120      74617473 
 2120      00
 2121              	.LASF5:
 2122 0045 5F5F7569 		.ascii	"__uint8_t\000"
 2122      6E74385F 
 2122      7400
 2123              	.LASF51:
 2124 004f 70726576 		.ascii	"prev\000"
 2124      00
 2125              	.LASF106:
 2126 0054 706F7274 		.ascii	"port_intctx\000"
 2126      5F696E74 
 2126      63747800 
 2127              	.LASF50:
 2128 0060 63685F74 		.ascii	"ch_threads_queue\000"
 2128      68726561 
 2128      64735F71 
 2128      75657565 
 2128      00
 2129              	.LASF63:
 2130 0071 73797374 		.ascii	"system_debug_t\000"
 2130      656D5F64 
 2130      65627567 
 2130      5F7400
 2131              	.LASF110:
ARM GAS  /tmp/ccWOP6oI.s 			page 39


 2132 0080 776F7273 		.ascii	"worst\000"
 2132      7400
 2133              	.LASF113:
 2134 0086 74696D65 		.ascii	"time_measurement_t\000"
 2134      5F6D6561 
 2134      73757265 
 2134      6D656E74 
 2134      5F7400
 2135              	.LASF12:
 2136 0099 6C6F6E67 		.ascii	"long long unsigned int\000"
 2136      206C6F6E 
 2136      6720756E 
 2136      7369676E 
 2136      65642069 
 2137              	.LASF120:
 2138 00b0 65786974 		.ascii	"exitcode\000"
 2138      636F6465 
 2138      00
 2139              	.LASF70:
 2140 00b9 6D61696E 		.ascii	"mainthread\000"
 2140      74687265 
 2140      616400
 2141              	.LASF123:
 2142 00c4 73656E74 		.ascii	"sentmsg\000"
 2142      6D736700 
 2143              	.LASF60:
 2144 00cc 76697274 		.ascii	"virtual_timers_list_t\000"
 2144      75616C5F 
 2144      74696D65 
 2144      72735F6C 
 2144      6973745F 
 2145              	.LASF88:
 2146 00e2 43505549 		.ascii	"CPUID\000"
 2146      4400
 2147              	.LASF48:
 2148 00e8 6E657874 		.ascii	"next\000"
 2148      00
 2149              	.LASF18:
 2150 00ed 72747469 		.ascii	"rttime_t\000"
 2150      6D655F74 
 2150      00
 2151              	.LASF78:
 2152 00f6 49535052 		.ascii	"ISPR\000"
 2152      00
 2153              	.LASF133:
 2154 00fb 6E766963 		.ascii	"nvicEnableVector\000"
 2154      456E6162 
 2154      6C655665 
 2154      63746F72 
 2154      00
 2155              	.LASF36:
 2156 010c 72656673 		.ascii	"refs\000"
 2156      00
 2157              	.LASF100:
 2158 0111 49534152 		.ascii	"ISAR\000"
 2158      00
 2159              	.LASF10:
ARM GAS  /tmp/ccWOP6oI.s 			page 40


 2160 0116 6C6F6E67 		.ascii	"long long int\000"
 2160      206C6F6E 
 2160      6720696E 
 2160      7400
 2161              	.LASF1:
 2162 0124 7369676E 		.ascii	"signed char\000"
 2162      65642063 
 2162      68617200 
 2163              	.LASF137:
 2164 0130 6E766963 		.ascii	"nvicClearPending\000"
 2164      436C6561 
 2164      7250656E 
 2164      64696E67 
 2164      00
 2165              	.LASF69:
 2166 0141 76746C69 		.ascii	"vtlist\000"
 2166      737400
 2167              	.LASF38:
 2168 0148 6D736771 		.ascii	"msgqueue\000"
 2168      75657565 
 2168      00
 2169              	.LASF34:
 2170 0151 73746174 		.ascii	"state\000"
 2170      6500
 2171              	.LASF7:
 2172 0157 6C6F6E67 		.ascii	"long int\000"
 2172      20696E74 
 2172      00
 2173              	.LASF20:
 2174 0160 74737461 		.ascii	"tstate_t\000"
 2174      74655F74 
 2174      00
 2175              	.LASF59:
 2176 0169 66756E63 		.ascii	"func\000"
 2176      00
 2177              	.LASF43:
 2178 016e 73746174 		.ascii	"stats\000"
 2178      7300
 2179              	.LASF8:
 2180 0174 5F5F7569 		.ascii	"__uint32_t\000"
 2180      6E743332 
 2180      5F7400
 2181              	.LASF103:
 2182 017f 72656761 		.ascii	"regarm_t\000"
 2182      726D5F74 
 2182      00
 2183              	.LASF102:
 2184 0188 5343425F 		.ascii	"SCB_Type\000"
 2184      54797065 
 2184      00
 2185              	.LASF64:
 2186 0191 63685F73 		.ascii	"ch_system_debug\000"
 2186      79737465 
 2186      6D5F6465 
 2186      62756700 
 2187              	.LASF37:
 2188 01a1 77616974 		.ascii	"waiting\000"
ARM GAS  /tmp/ccWOP6oI.s 			page 41


 2188      696E6700 
 2189              	.LASF131:
 2190 01a9 6D757465 		.ascii	"mutex_t\000"
 2190      785F7400 
 2191              	.LASF73:
 2192 01b1 73797369 		.ascii	"sysinterval_t\000"
 2192      6E746572 
 2192      76616C5F 
 2192      7400
 2193              	.LASF25:
 2194 01bf 636E745F 		.ascii	"cnt_t\000"
 2194      7400
 2195              	.LASF0:
 2196 01c5 756E7369 		.ascii	"unsigned int\000"
 2196      676E6564 
 2196      20696E74 
 2196      00
 2197              	.LASF139:
 2198 01d2 474E5520 		.ascii	"GNU C 4.9.3 20150529 (prerelease) -mcpu=cortex-m4 -"
 2198      4320342E 
 2198      392E3320 
 2198      32303135 
 2198      30353239 
 2199 0205 6D666C6F 		.ascii	"mfloat-abi=hard -mfpu=fpv4-sp-d16 -mno-thumb-interw"
 2199      61742D61 
 2199      62693D68 
 2199      61726420 
 2199      2D6D6670 
 2200 0238 6F726B20 		.ascii	"ork -mthumb -g -Os -fomit-frame-pointer -falign-fun"
 2200      2D6D7468 
 2200      756D6220 
 2200      2D67202D 
 2200      4F73202D 
 2201 026b 6374696F 		.ascii	"ctions=16 -ffunction-sections -fdata-sections -fno-"
 2201      6E733D31 
 2201      36202D66 
 2201      66756E63 
 2201      74696F6E 
 2202 029e 636F6D6D 		.ascii	"common -fsingle-precision-constant\000"
 2202      6F6E202D 
 2202      6673696E 
 2202      676C652D 
 2202      70726563 
 2203              	.LASF134:
 2204 02c1 6E766963 		.ascii	"nvicDisableVector\000"
 2204      44697361 
 2204      626C6556 
 2204      6563746F 
 2204      7200
 2205              	.LASF124:
 2206 02d3 77747365 		.ascii	"wtsemp\000"
 2206      6D7000
 2207              	.LASF80:
 2208 02da 49435052 		.ascii	"ICPR\000"
 2208      00
 2209              	.LASF114:
 2210 02df 6E5F6972 		.ascii	"n_irq\000"
ARM GAS  /tmp/ccWOP6oI.s 			page 42


 2210      7100
 2211              	.LASF90:
 2212 02e5 56544F52 		.ascii	"VTOR\000"
 2212      00
 2213              	.LASF42:
 2214 02ea 6D706F6F 		.ascii	"mpool\000"
 2214      6C00
 2215              	.LASF118:
 2216 02f0 6B65726E 		.ascii	"kernel_stats_t\000"
 2216      656C5F73 
 2216      74617473 
 2216      5F7400
 2217              	.LASF32:
 2218 02ff 6E616D65 		.ascii	"name\000"
 2218      00
 2219              	.LASF46:
 2220 0304 63685F74 		.ascii	"ch_thread\000"
 2220      68726561 
 2220      6400
 2221              	.LASF97:
 2222 030e 42464152 		.ascii	"BFAR\000"
 2222      00
 2223              	.LASF89:
 2224 0313 49435352 		.ascii	"ICSR\000"
 2224      00
 2225              	.LASF23:
 2226 0318 6D73675F 		.ascii	"msg_t\000"
 2226      7400
 2227              	.LASF91:
 2228 031e 41495243 		.ascii	"AIRCR\000"
 2228      5200
 2229              	.LASF95:
 2230 0324 44465352 		.ascii	"DFSR\000"
 2230      00
 2231              	.LASF26:
 2232 0329 75636E74 		.ascii	"ucnt_t\000"
 2232      5F7400
 2233              	.LASF39:
 2234 0330 6570656E 		.ascii	"epending\000"
 2234      64696E67 
 2234      00
 2235              	.LASF96:
 2236 0339 4D4D4641 		.ascii	"MMFAR\000"
 2236      5200
 2237              	.LASF66:
 2238 033f 63685F73 		.ascii	"ch_system_t\000"
 2238      79737465 
 2238      6D5F7400 
 2239              	.LASF19:
 2240 034b 746D6F64 		.ascii	"tmode_t\000"
 2240      655F7400 
 2241              	.LASF117:
 2242 0353 6D5F6372 		.ascii	"m_crit_isr\000"
 2242      69745F69 
 2242      737200
 2243              	.LASF53:
 2244 035e 63685F72 		.ascii	"ch_ready_list\000"
ARM GAS  /tmp/ccWOP6oI.s 			page 43


 2244      65616479 
 2244      5F6C6973 
 2244      7400
 2245              	.LASF24:
 2246 036c 6576656E 		.ascii	"eventmask_t\000"
 2246      746D6173 
 2246      6B5F7400 
 2247              	.LASF6:
 2248 0378 5F5F696E 		.ascii	"__int32_t\000"
 2248      7433325F 
 2248      7400
 2249              	.LASF104:
 2250 0382 73746B61 		.ascii	"stkalign_t\000"
 2250      6C69676E 
 2250      5F7400
 2251              	.LASF87:
 2252 038d 4E564943 		.ascii	"NVIC_Type\000"
 2252      5F547970 
 2252      6500
 2253              	.LASF136:
 2254 0397 68616E64 		.ascii	"handler\000"
 2254      6C657200 
 2255              	.LASF56:
 2256 039f 76697274 		.ascii	"virtual_timer_t\000"
 2256      75616C5F 
 2256      74696D65 
 2256      725F7400 
 2257              	.LASF41:
 2258 03af 7265616C 		.ascii	"realprio\000"
 2258      7072696F 
 2258      00
 2259              	.LASF86:
 2260 03b8 73697A65 		.ascii	"sizetype\000"
 2260      74797065 
 2260      00
 2261              	.LASF44:
 2262 03c1 74687265 		.ascii	"thread_reference_t\000"
 2262      61645F72 
 2262      65666572 
 2262      656E6365 
 2262      5F7400
 2263              	.LASF61:
 2264 03d4 63685F76 		.ascii	"ch_virtual_timers_list\000"
 2264      69727475 
 2264      616C5F74 
 2264      696D6572 
 2264      735F6C69 
 2265              	.LASF28:
 2266 03eb 71756575 		.ascii	"queue\000"
 2266      6500
 2267              	.LASF93:
 2268 03f1 43465352 		.ascii	"CFSR\000"
 2268      00
 2269              	.LASF82:
 2270 03f6 49414252 		.ascii	"IABR\000"
 2270      00
 2271              	.LASF105:
ARM GAS  /tmp/ccWOP6oI.s 			page 44


 2272 03fb 706F7274 		.ascii	"port_context\000"
 2272      5F636F6E 
 2272      74657874 
 2272      00
 2273              	.LASF108:
 2274 0408 746D5F63 		.ascii	"tm_calibration_t\000"
 2274      616C6962 
 2274      72617469 
 2274      6F6E5F74 
 2274      00
 2275              	.LASF76:
 2276 0419 49434552 		.ascii	"ICER\000"
 2276      00
 2277              	.LASF29:
 2278 041e 7072696F 		.ascii	"prio\000"
 2278      00
 2279              	.LASF54:
 2280 0423 63757272 		.ascii	"current\000"
 2280      656E7400 
 2281              	.LASF11:
 2282 042b 5F5F7569 		.ascii	"__uint64_t\000"
 2282      6E743634 
 2282      5F7400
 2283              	.LASF112:
 2284 0436 63756D75 		.ascii	"cumulative\000"
 2284      6C617469 
 2284      766500
 2285              	.LASF21:
 2286 0441 74726566 		.ascii	"trefs_t\000"
 2286      735F7400 
 2287              	.LASF75:
 2288 0449 52455345 		.ascii	"RESERVED0\000"
 2288      52564544 
 2288      3000
 2289              	.LASF79:
 2290 0453 52455345 		.ascii	"RESERVED2\000"
 2290      52564544 
 2290      3200
 2291              	.LASF81:
 2292 045d 52455345 		.ascii	"RESERVED3\000"
 2292      52564544 
 2292      3300
 2293              	.LASF83:
 2294 0467 52455345 		.ascii	"RESERVED4\000"
 2294      52564544 
 2294      3400
 2295              	.LASF84:
 2296 0471 52455345 		.ascii	"RESERVED5\000"
 2296      52564544 
 2296      3500
 2297              	.LASF22:
 2298 047b 74707269 		.ascii	"tprio_t\000"
 2298      6F5F7400 
 2299              	.LASF115:
 2300 0483 6E5F6374 		.ascii	"n_ctxswc\000"
 2300      78737763 
 2300      00
ARM GAS  /tmp/ccWOP6oI.s 			page 45


 2301              	.LASF132:
 2302 048c 5F426F6F 		.ascii	"_Bool\000"
 2302      6C00
 2303              	.LASF14:
 2304 0492 696E7433 		.ascii	"int32_t\000"
 2304      325F7400 
 2305              	.LASF2:
 2306 049a 756E7369 		.ascii	"unsigned char\000"
 2306      676E6564 
 2306      20636861 
 2306      7200
 2307              	.LASF92:
 2308 04a8 53484353 		.ascii	"SHCSR\000"
 2308      5200
 2309              	.LASF138:
 2310 04ae 49544D5F 		.ascii	"ITM_RxBuffer\000"
 2310      52784275 
 2310      66666572 
 2310      00
 2311              	.LASF3:
 2312 04bb 73686F72 		.ascii	"short int\000"
 2312      7420696E 
 2312      7400
 2313              	.LASF74:
 2314 04c5 49534552 		.ascii	"ISER\000"
 2314      00
 2315              	.LASF62:
 2316 04ca 6C617374 		.ascii	"lasttime\000"
 2316      74696D65 
 2316      00
 2317              	.LASF135:
 2318 04d3 6E766963 		.ascii	"nvicSetSystemHandlerPriority\000"
 2318      53657453 
 2318      79737465 
 2318      6D48616E 
 2318      646C6572 
 2319              	.LASF126:
 2320 04f0 65776D61 		.ascii	"ewmask\000"
 2320      736B00
 2321              	.LASF67:
 2322 04f7 63685F73 		.ascii	"ch_system\000"
 2322      79737465 
 2322      6D00
 2323              	.LASF142:
 2324 0501 5F5F6675 		.ascii	"__func__\000"
 2324      6E635F5F 
 2324      00
 2325              	.LASF57:
 2326 050a 63685F76 		.ascii	"ch_virtual_timer\000"
 2326      69727475 
 2326      616C5F74 
 2326      696D6572 
 2326      00
 2327              	.LASF127:
 2328 051b 63685F73 		.ascii	"ch_semaphore\000"
 2328      656D6170 
 2328      686F7265 
ARM GAS  /tmp/ccWOP6oI.s 			page 46


 2328      00
 2329              	.LASF15:
 2330 0528 75696E74 		.ascii	"uint32_t\000"
 2330      33325F74 
 2330      00
 2331              	.LASF125:
 2332 0531 77746D74 		.ascii	"wtmtxp\000"
 2332      787000
 2333              	.LASF98:
 2334 0538 41465352 		.ascii	"AFSR\000"
 2334      00
 2335              	.LASF47:
 2336 053d 63685F74 		.ascii	"ch_threads_list\000"
 2336      68726561 
 2336      64735F6C 
 2336      69737400 
 2337              	.LASF129:
 2338 054d 6F776E65 		.ascii	"owner\000"
 2338      7200
 2339              	.LASF9:
 2340 0553 6C6F6E67 		.ascii	"long unsigned int\000"
 2340      20756E73 
 2340      69676E65 
 2340      6420696E 
 2340      7400
 2341              	.LASF33:
 2342 0565 77616261 		.ascii	"wabase\000"
 2342      736500
 2343              	.LASF130:
 2344 056c 63686172 		.ascii	"char\000"
 2344      00
 2345              	.LASF31:
 2346 0571 6F6C6465 		.ascii	"older\000"
 2346      7200
 2347              	.LASF27:
 2348 0577 74687265 		.ascii	"thread_t\000"
 2348      61645F74 
 2348      00
 2349              	.LASF109:
 2350 0580 62657374 		.ascii	"best\000"
 2350      00
 2351              	.LASF72:
 2352 0585 73797374 		.ascii	"systime_t\000"
 2352      696D655F 
 2352      7400
 2353              	.LASF55:
 2354 058f 76746675 		.ascii	"vtfunc_t\000"
 2354      6E635F74 
 2354      00
 2355              	.LASF111:
 2356 0598 6C617374 		.ascii	"last\000"
 2356      00
 2357              	.LASF65:
 2358 059d 70616E69 		.ascii	"panic_msg\000"
 2358      635F6D73 
 2358      6700
 2359              	.LASF107:
ARM GAS  /tmp/ccWOP6oI.s 			page 47


 2360 05a7 6F666673 		.ascii	"offset\000"
 2360      657400
 2361              	.LASF4:
 2362 05ae 73686F72 		.ascii	"short unsigned int\000"
 2362      7420756E 
 2362      7369676E 
 2362      65642069 
 2362      6E7400
 2363              	.LASF141:
 2364 05c1 2F686F6D 		.ascii	"/home/kozinalexey/f4by/ardupilot/build/F4BY\000"
 2364      652F6B6F 
 2364      7A696E61 
 2364      6C657865 
 2364      792F6634 
 2365              	.LASF17:
 2366 05ed 7274636E 		.ascii	"rtcnt_t\000"
 2366      745F7400 
 2367              	.LASF30:
 2368 05f5 6E657765 		.ascii	"newer\000"
 2368      7200
 2369              	.LASF140:
 2370 05fb 2E2E2F2E 		.ascii	"../../modules/ChibiOS/os/hal/ports/common/ARMCMx/nv"
 2370      2E2F6D6F 
 2370      64756C65 
 2370      732F4368 
 2370      6962694F 
 2371 062e 69632E63 		.ascii	"ic.c\000"
 2371      00
 2372              	.LASF49:
 2373 0633 74687265 		.ascii	"threads_queue_t\000"
 2373      6164735F 
 2373      71756575 
 2373      655F7400 
 2374              	.LASF128:
 2375 0643 63685F6D 		.ascii	"ch_mutex\000"
 2375      75746578 
 2375      00
 2376              	.LASF99:
 2377 064c 4D4D4652 		.ascii	"MMFR\000"
 2377      00
 2378              	.LASF68:
 2379 0651 726C6973 		.ascii	"rlist\000"
 2379      7400
 2380              	.LASF13:
 2381 0657 75696E74 		.ascii	"uint8_t\000"
 2381      385F7400 
 2382              	.LASF35:
 2383 065f 666C6167 		.ascii	"flags\000"
 2383      7300
 2384              	.LASF77:
 2385 0665 52534552 		.ascii	"RSERVED1\000"
 2385      56454431 
 2385      00
 2386              	.LASF85:
 2387 066e 53544952 		.ascii	"STIR\000"
 2387      00
 2388              	.LASF121:
ARM GAS  /tmp/ccWOP6oI.s 			page 48


 2389 0673 77746F62 		.ascii	"wtobjp\000"
 2389      6A7000
 2390              	.LASF101:
 2391 067a 43504143 		.ascii	"CPACR\000"
 2391      5200
 2392              	.LASF94:
 2393 0680 48465352 		.ascii	"HFSR\000"
 2393      00
 2394              	.LASF40:
 2395 0685 6D74786C 		.ascii	"mtxlist\000"
 2395      69737400 
 2396              	.LASF116:
 2397 068d 6D5F6372 		.ascii	"m_crit_thd\000"
 2397      69745F74 
 2397      686400
 2398              		.ident	"GCC: (15:4.9.3+svn231177-1) 4.9.3 20150529 (prerelease)"
ARM GAS  /tmp/ccWOP6oI.s 			page 49


DEFINED SYMBOLS
                            *ABS*:0000000000000000 nvic.c
     /tmp/ccWOP6oI.s:21     .text.nvicEnableVector:0000000000000000 $t
     /tmp/ccWOP6oI.s:26     .text.nvicEnableVector:0000000000000000 nvicEnableVector
     /tmp/ccWOP6oI.s:63     .text.nvicDisableVector:0000000000000000 $t
     /tmp/ccWOP6oI.s:68     .text.nvicDisableVector:0000000000000000 nvicDisableVector
     /tmp/ccWOP6oI.s:95     .text.nvicDisableVector:000000000000001c $d
     /tmp/ccWOP6oI.s:100    .text.nvicSetSystemHandlerPriority:0000000000000000 $t
     /tmp/ccWOP6oI.s:105    .text.nvicSetSystemHandlerPriority:0000000000000000 nvicSetSystemHandlerPriority
     /tmp/ccWOP6oI.s:127    .text.nvicClearPending:0000000000000000 $t
     /tmp/ccWOP6oI.s:132    .text.nvicClearPending:0000000000000000 nvicClearPending
     /tmp/ccWOP6oI.s:153    .text.nvicClearPending:0000000000000014 $d
                     .debug_frame:0000000000000010 $d

NO UNDEFINED SYMBOLS
