ARM GAS  /tmp/cctz3RzG.s 			page 1


   1              		.syntax unified
   2              		.cpu cortex-m4
   3              		.eabi_attribute 27, 1
   4              		.eabi_attribute 28, 1
   5              		.fpu fpv4-sp-d16
   6              		.eabi_attribute 20, 1
   7              		.eabi_attribute 21, 1
   8              		.eabi_attribute 23, 3
   9              		.eabi_attribute 24, 1
  10              		.eabi_attribute 25, 1
  11              		.eabi_attribute 26, 1
  12              		.eabi_attribute 30, 4
  13              		.eabi_attribute 34, 1
  14              		.eabi_attribute 18, 4
  15              		.thumb
  16              		.file	"stm32_util.c"
  17              		.text
  18              	.Ltext0:
  19              		.cfi_sections	.debug_frame
  20              		.section	.text.stm32_timer_set_input_filter,"ax",%progbits
  21              		.align	1
  22              		.global	stm32_timer_set_input_filter
  23              		.thumb
  24              		.thumb_func
  25              		.type	stm32_timer_set_input_filter, %function
  26              	stm32_timer_set_input_filter:
  27              	.LFB323:
  28              		.file 1 "../../libraries/AP_HAL_ChibiOS/hwdef/common/stm32_util.c"
  29              		.loc 1 29 0
  30              		.cfi_startproc
  31              		@ args = 0, pretend = 0, frame = 0
  32              		@ frame_needed = 0, uses_anonymous_args = 0
  33              		@ link register save eliminated.
  34              	.LVL0:
  35              		.loc 1 30 0
  36 0000 0329     		cmp	r1, #3
  37 0002 14D8     		bhi	.L1
  38 0004 DFE801F0 		tbb	[pc, r1]
  39              	.L4:
  40 0008 02       		.byte	(.L3-.L4)/2
  41 0009 06       		.byte	(.L5-.L4)/2
  42 000a 0B       		.byte	(.L6-.L4)/2
  43 000b 0F       		.byte	(.L7-.L4)/2
  44              		.p2align 1
  45              	.L3:
  46              		.loc 1 32 0
  47 000c 8369     		ldr	r3, [r0, #24]
  48 000e 43EA0212 		orr	r2, r3, r2, lsl #4
  49              	.LVL1:
  50 0012 02E0     		b	.L8
  51              	.LVL2:
  52              	.L5:
  53              		.loc 1 35 0
  54 0014 8369     		ldr	r3, [r0, #24]
  55 0016 43EA0232 		orr	r2, r3, r2, lsl #12
  56              	.LVL3:
  57              	.L8:
ARM GAS  /tmp/cctz3RzG.s 			page 2


  58 001a 8261     		str	r2, [r0, #24]
  59              		.loc 1 36 0
  60 001c 7047     		bx	lr
  61              	.LVL4:
  62              	.L6:
  63              		.loc 1 38 0
  64 001e C369     		ldr	r3, [r0, #28]
  65 0020 43EA0212 		orr	r2, r3, r2, lsl #4
  66              	.LVL5:
  67 0024 02E0     		b	.L9
  68              	.LVL6:
  69              	.L7:
  70              		.loc 1 41 0
  71 0026 C369     		ldr	r3, [r0, #28]
  72 0028 43EA0232 		orr	r2, r3, r2, lsl #12
  73              	.LVL7:
  74              	.L9:
  75 002c C261     		str	r2, [r0, #28]
  76              	.L1:
  77 002e 7047     		bx	lr
  78              		.cfi_endproc
  79              	.LFE323:
  80              		.size	stm32_timer_set_input_filter, .-stm32_timer_set_input_filter
  81              		.section	.text.stm32_timer_set_channel_input,"ax",%progbits
  82              		.align	1
  83              		.global	stm32_timer_set_channel_input
  84              		.thumb
  85              		.thumb_func
  86              		.type	stm32_timer_set_channel_input, %function
  87              	stm32_timer_set_channel_input:
  88              	.LFB324:
  89              		.loc 1 50 0
  90              		.cfi_startproc
  91              		@ args = 0, pretend = 0, frame = 0
  92              		@ frame_needed = 0, uses_anonymous_args = 0
  93              		@ link register save eliminated.
  94              	.LVL8:
  95              		.loc 1 51 0
  96 0000 0329     		cmp	r1, #3
  97 0002 41D8     		bhi	.L11
  98 0004 DFE801F0 		tbb	[pc, r1]
  99              	.L14:
 100 0008 02       		.byte	(.L13-.L14)/2
 101 0009 11       		.byte	(.L15-.L14)/2
 102 000a 21       		.byte	(.L16-.L14)/2
 103 000b 30       		.byte	(.L17-.L14)/2
 104              		.p2align 1
 105              	.L13:
 106              		.loc 1 53 0
 107 000c 036A     		ldr	r3, [r0, #32]
 108 000e 23F00103 		bic	r3, r3, #1
 109 0012 0362     		str	r3, [r0, #32]
 110              		.loc 1 54 0
 111 0014 8369     		ldr	r3, [r0, #24]
 112 0016 23F00303 		bic	r3, r3, #3
 113 001a 8361     		str	r3, [r0, #24]
 114              		.loc 1 55 0
ARM GAS  /tmp/cctz3RzG.s 			page 3


 115 001c 8369     		ldr	r3, [r0, #24]
 116 001e 1A43     		orrs	r2, r2, r3
 117              	.LVL9:
 118 0020 8261     		str	r2, [r0, #24]
 119              		.loc 1 56 0
 120 0022 036A     		ldr	r3, [r0, #32]
 121 0024 43F00103 		orr	r3, r3, #1
 122 0028 2DE0     		b	.L18
 123              	.LVL10:
 124              	.L15:
 125              		.loc 1 59 0
 126 002a 036A     		ldr	r3, [r0, #32]
 127 002c 23F01003 		bic	r3, r3, #16
 128 0030 0362     		str	r3, [r0, #32]
 129              		.loc 1 60 0
 130 0032 8369     		ldr	r3, [r0, #24]
 131 0034 23F44073 		bic	r3, r3, #768
 132 0038 8361     		str	r3, [r0, #24]
 133              		.loc 1 61 0
 134 003a 8369     		ldr	r3, [r0, #24]
 135 003c 43EA0222 		orr	r2, r3, r2, lsl #8
 136              	.LVL11:
 137 0040 8261     		str	r2, [r0, #24]
 138              		.loc 1 62 0
 139 0042 036A     		ldr	r3, [r0, #32]
 140 0044 43F01003 		orr	r3, r3, #16
 141 0048 1DE0     		b	.L18
 142              	.LVL12:
 143              	.L16:
 144              		.loc 1 65 0
 145 004a 036A     		ldr	r3, [r0, #32]
 146 004c 23F48073 		bic	r3, r3, #256
 147 0050 0362     		str	r3, [r0, #32]
 148              		.loc 1 66 0
 149 0052 C369     		ldr	r3, [r0, #28]
 150 0054 23F00303 		bic	r3, r3, #3
 151 0058 C361     		str	r3, [r0, #28]
 152              		.loc 1 67 0
 153 005a C369     		ldr	r3, [r0, #28]
 154 005c 1A43     		orrs	r2, r2, r3
 155              	.LVL13:
 156 005e C261     		str	r2, [r0, #28]
 157              		.loc 1 68 0
 158 0060 036A     		ldr	r3, [r0, #32]
 159 0062 43F48073 		orr	r3, r3, #256
 160 0066 0EE0     		b	.L18
 161              	.LVL14:
 162              	.L17:
 163              		.loc 1 71 0
 164 0068 036A     		ldr	r3, [r0, #32]
 165 006a 23F48053 		bic	r3, r3, #4096
 166 006e 0362     		str	r3, [r0, #32]
 167              		.loc 1 72 0
 168 0070 C369     		ldr	r3, [r0, #28]
 169 0072 23F44073 		bic	r3, r3, #768
 170 0076 C361     		str	r3, [r0, #28]
 171              		.loc 1 73 0
ARM GAS  /tmp/cctz3RzG.s 			page 4


 172 0078 C369     		ldr	r3, [r0, #28]
 173 007a 43EA0222 		orr	r2, r3, r2, lsl #8
 174              	.LVL15:
 175 007e C261     		str	r2, [r0, #28]
 176              		.loc 1 74 0
 177 0080 036A     		ldr	r3, [r0, #32]
 178 0082 43F48053 		orr	r3, r3, #4096
 179              	.L18:
 180 0086 0362     		str	r3, [r0, #32]
 181              	.L11:
 182 0088 7047     		bx	lr
 183              		.cfi_endproc
 184              	.LFE324:
 185              		.size	stm32_timer_set_channel_input, .-stm32_timer_set_channel_input
 186              		.section	.text.stm32_set_utc_usec,"ax",%progbits
 187              		.align	1
 188              		.global	stm32_set_utc_usec
 189              		.thumb
 190              		.thumb_func
 191              		.type	stm32_set_utc_usec, %function
 192              	stm32_set_utc_usec:
 193              	.LFB325:
 194              		.loc 1 102 0
 195              		.cfi_startproc
 196              		@ args = 0, pretend = 0, frame = 0
 197              		@ frame_needed = 0, uses_anonymous_args = 0
 198              	.LVL16:
 199 0000 38B5     		push	{r3, r4, r5, lr}
 200              		.cfi_def_cfa_offset 16
 201              		.cfi_offset 3, -16
 202              		.cfi_offset 4, -12
 203              		.cfi_offset 5, -8
 204              		.cfi_offset 14, -4
 205              		.loc 1 102 0
 206 0002 0446     		mov	r4, r0
 207 0004 0D46     		mov	r5, r1
 208              		.loc 1 103 0
 209 0006 FFF7FEFF 		bl	hrt_micros64
 210              	.LVL17:
 211              		.loc 1 104 0
 212 000a 8D42     		cmp	r5, r1
 213 000c 08BF     		it	eq
 214 000e 8442     		cmpeq	r4, r0
 215 0010 05D3     		bcc	.L19
 216              		.loc 1 105 0
 217 0012 241A     		subs	r4, r4, r0
 218 0014 024B     		ldr	r3, .L21
 219 0016 65EB0105 		sbc	r5, r5, r1
 220 001a C3E90045 		strd	r4, [r3]
 221              	.L19:
 222 001e 38BD     		pop	{r3, r4, r5, pc}
 223              	.L22:
 224              		.align	2
 225              	.L21:
 226 0020 00000000 		.word	.LANCHOR0
 227              		.cfi_endproc
 228              	.LFE325:
ARM GAS  /tmp/cctz3RzG.s 			page 5


 229              		.size	stm32_set_utc_usec, .-stm32_set_utc_usec
 230              		.section	.text.stm32_get_utc_usec,"ax",%progbits
 231              		.align	1
 232              		.global	stm32_get_utc_usec
 233              		.thumb
 234              		.thumb_func
 235              		.type	stm32_get_utc_usec, %function
 236              	stm32_get_utc_usec:
 237              	.LFB326:
 238              		.loc 1 113 0
 239              		.cfi_startproc
 240              		@ args = 0, pretend = 0, frame = 0
 241              		@ frame_needed = 0, uses_anonymous_args = 0
 242 0000 08B5     		push	{r3, lr}
 243              		.cfi_def_cfa_offset 8
 244              		.cfi_offset 3, -8
 245              		.cfi_offset 14, -4
 246              		.loc 1 114 0
 247 0002 FFF7FEFF 		bl	hrt_micros64
 248              	.LVL18:
 249 0006 034B     		ldr	r3, .L24
 250 0008 D3E90023 		ldrd	r2, [r3]
 251              		.loc 1 115 0
 252 000c 8018     		adds	r0, r0, r2
 253 000e 5941     		adcs	r1, r1, r3
 254 0010 08BD     		pop	{r3, pc}
 255              	.L25:
 256 0012 00BF     		.align	2
 257              	.L24:
 258 0014 00000000 		.word	.LANCHOR0
 259              		.cfi_endproc
 260              	.LFE326:
 261              		.size	stm32_get_utc_usec, .-stm32_get_utc_usec
 262              		.global	__aeabi_uldivmod
 263              		.section	.text.get_fattime,"ax",%progbits
 264              		.align	1
 265              		.global	get_fattime
 266              		.thumb
 267              		.thumb_func
 268              		.type	get_fattime, %function
 269              	get_fattime:
 270              	.LFB329:
 271              		.loc 1 189 0
 272              		.cfi_startproc
 273              		@ args = 0, pretend = 0, frame = 8
 274              		@ frame_needed = 0, uses_anonymous_args = 0
 275              		.loc 1 190 0
 276 0000 484B     		ldr	r3, .L38
 277              		.loc 1 189 0
 278 0002 2DE9F743 		push	{r0, r1, r2, r4, r5, r6, r7, r8, r9, lr}
 279              		.cfi_def_cfa_offset 40
 280              		.cfi_offset 4, -28
 281              		.cfi_offset 5, -24
 282              		.cfi_offset 6, -20
 283              		.cfi_offset 7, -16
 284              		.cfi_offset 8, -12
 285              		.cfi_offset 9, -8
ARM GAS  /tmp/cctz3RzG.s 			page 6


 286              		.cfi_offset 14, -4
 287              		.loc 1 190 0
 288 0006 D3E90023 		ldrd	r2, [r3]
 289 000a 1343     		orrs	r3, r2, r3
 290 000c 00F08580 		beq	.L34
 291              		.loc 1 194 0
 292 0010 FFF7FEFF 		bl	stm32_get_utc_usec
 293              	.LVL19:
 294              		.loc 1 195 0
 295 0014 444A     		ldr	r2, .L38+4
 296              	.LBB8:
 297              	.LBB9:
 298              		.loc 1 156 0
 299 0016 DFF81C81 		ldr	r8, .L38+16
 300              	.LBE9:
 301              	.LBE8:
 302              		.loc 1 195 0
 303 001a 0023     		movs	r3, #0
 304 001c FFF7FEFF 		bl	__aeabi_uldivmod
 305              	.LVL20:
 306              	.LBB18:
 307              	.LBB16:
 308              		.loc 1 146 0
 309 0020 424A     		ldr	r2, .L38+8
 310 0022 0023     		movs	r3, #0
 311              	.LBE16:
 312              	.LBE18:
 313              		.loc 1 195 0
 314 0024 0646     		mov	r6, r0
 315 0026 0F46     		mov	r7, r1
 316              	.LVL21:
 317              	.LBB19:
 318              	.LBB17:
 319              		.loc 1 146 0
 320 0028 FFF7FEFF 		bl	__aeabi_uldivmod
 321              	.LVL22:
 322              		.loc 1 147 0
 323 002c 3046     		mov	r0, r6
 324              		.loc 1 146 0
 325 002e 1446     		mov	r4, r2
 326              	.LVL23:
 327              		.loc 1 147 0
 328 0030 3946     		mov	r1, r7
 329 0032 3E4A     		ldr	r2, .L38+8
 330              	.LVL24:
 331 0034 0023     		movs	r3, #0
 332 0036 FFF7FEFF 		bl	__aeabi_uldivmod
 333              	.LVL25:
 334              		.loc 1 151 0
 335 003a 3C22     		movs	r2, #60
 336              		.loc 1 149 0
 337 003c 0023     		movs	r3, #0
 338 003e 0093     		str	r3, [sp]
 339              		.loc 1 156 0
 340 0040 4FF00009 		mov	r9, #0
 341              		.loc 1 151 0
 342 0044 B4FBF2F3 		udiv	r3, r4, r2
ARM GAS  /tmp/cctz3RzG.s 			page 7


 343 0048 02FB1343 		mls	r3, r2, r3, r4
 344 004c DEB2     		uxtb	r6, r3
 345              	.LVL26:
 346              		.loc 1 156 0
 347 004e 8945     		cmp	r9, r1
 348              		.loc 1 152 0
 349 0050 4FF46163 		mov	r3, #3600
 350              		.loc 1 156 0
 351 0054 08BF     		it	eq
 352 0056 8045     		cmpeq	r8, r0
 353              		.loc 1 152 0
 354 0058 B4FBF3F7 		udiv	r7, r4, r3
 355 005c 03FB1743 		mls	r3, r3, r7, r4
 356              		.loc 1 154 0
 357 0060 4FF04604 		mov	r4, #70
 358              	.LVL27:
 359              		.loc 1 152 0
 360 0064 B3FBF2F2 		udiv	r2, r3, r2
 361              		.loc 1 154 0
 362 0068 8DF80040 		strb	r4, [sp]
 363              		.loc 1 156 0
 364 006c 41D3     		bcc	.L28
 365              		.loc 1 147 0
 366 006e 0146     		mov	r1, r0
 367              	.LVL28:
 368              	.L32:
 369              	.LBB10:
 370              	.LBB11:
 371              	.LBB12:
 372              		.loc 1 132 0
 373 0070 04F26C73 		addw	r3, r4, #1900
 374              	.LVL29:
 375              		.loc 1 133 0
 376 0074 9807     		lsls	r0, r3, #30
 377 0076 16D1     		bne	.L35
 378 0078 6425     		movs	r5, #100
 379 007a B3FBF5F0 		udiv	r0, r3, r5
 380 007e 05FB1030 		mls	r0, r5, r0, r3
 381 0082 A8B9     		cbnz	r0, .L36
 382 0084 4FF4C875 		mov	r5, #400
 383 0088 B3FBF5F0 		udiv	r0, r3, r5
 384 008c 05FB1033 		mls	r3, r5, r0, r3
 385              	.LVL30:
 386 0090 002B     		cmp	r3, #0
 387 0092 40F26D15 		movw	r5, #365
 388 0096 12BF     		itee	ne
 389 0098 4FF0000E 		movne	lr, #0
 390 009c 4FF0010E 		moveq	lr, #1
 391 00a0 4FF4B775 		moveq	r5, #366
 392 00a4 08E0     		b	.L29
 393              	.LVL31:
 394              	.L35:
 395 00a6 4FF0000E 		mov	lr, #0
 396              	.LBE12:
 397              	.LBE11:
 398              		.loc 1 162 0
 399 00aa 40F26D15 		movw	r5, #365
ARM GAS  /tmp/cctz3RzG.s 			page 8


 400 00ae 03E0     		b	.L29
 401              	.L36:
 402              	.LBB14:
 403              	.LBB13:
 404              		.loc 1 133 0
 405 00b0 4FF0010E 		mov	lr, #1
 406              	.LBE13:
 407              	.LBE14:
 408              		.loc 1 162 0
 409 00b4 4FF4B775 		mov	r5, #366
 410              	.LVL32:
 411              	.L29:
 412 00b8 631C     		adds	r3, r4, #1
 413              		.loc 1 163 0
 414 00ba A942     		cmp	r1, r5
 415 00bc DBB2     		uxtb	r3, r3
 416 00be 04D2     		bcs	.L30
 417 00c0 8DF80040 		strb	r4, [sp]
 418 00c4 9DF80130 		ldrb	r3, [sp, #1]	@ zero_extendqisi2
 419 00c8 02E0     		b	.L31
 420              	.L30:
 421              		.loc 1 167 0
 422 00ca 491B     		subs	r1, r1, r5
 423              	.LVL33:
 424 00cc 1C46     		mov	r4, r3
 425              	.LVL34:
 426 00ce CFE7     		b	.L32
 427              	.L31:
 428              	.LBE10:
 429              	.LBB15:
 430              		.loc 1 172 0
 431 00d0 0C20     		movs	r0, #12
 432 00d2 00FB0E30 		mla	r0, r0, lr, r3
 433 00d6 164C     		ldr	r4, .L38+12
 434 00d8 245C     		ldrb	r4, [r4, r0]	@ zero_extendqisi2
 435              	.LVL35:
 436 00da 581C     		adds	r0, r3, #1
 437              		.loc 1 173 0
 438 00dc A142     		cmp	r1, r4
 439 00de C0B2     		uxtb	r0, r0
 440 00e0 02D3     		bcc	.L33
 441              		.loc 1 176 0
 442 00e2 091B     		subs	r1, r1, r4
 443              	.LVL36:
 444 00e4 0346     		mov	r3, r0
 445 00e6 F3E7     		b	.L31
 446              	.L33:
 447              	.LBE15:
 448              		.loc 1 179 0
 449 00e8 0131     		adds	r1, r1, #1
 450              	.LVL37:
 451 00ea 8DF80130 		strb	r3, [sp, #1]
 452 00ee 8DF80210 		strb	r1, [sp, #2]
 453              	.LVL38:
 454              	.L28:
 455              	.LBE17:
 456              	.LBE19:
ARM GAS  /tmp/cctz3RzG.s 			page 9


 457              		.loc 1 206 0
 458 00f2 9DF80110 		ldrb	r1, [sp, #1]	@ zero_extendqisi2
 459 00f6 4B1C     		adds	r3, r1, #1
 460              		.loc 1 207 0
 461 00f8 9DF80010 		ldrb	r1, [sp]	@ zero_extendqisi2
 462 00fc 5039     		subs	r1, r1, #80
 463 00fe 4906     		lsls	r1, r1, #25
 464 0100 41EA4351 		orr	r1, r1, r3, lsl #21
 465              		.loc 1 205 0
 466 0104 9DF80230 		ldrb	r3, [sp, #2]	@ zero_extendqisi2
 467 0108 41EA0341 		orr	r1, r1, r3, lsl #16
 468 010c 41EA5603 		orr	r3, r1, r6, lsr #1
 469 0110 43EAC723 		orr	r3, r3, r7, lsl #11
 470              		.loc 1 207 0
 471 0114 43EA4210 		orr	r0, r3, r2, lsl #5
 472              	.LVL39:
 473              		.loc 1 209 0
 474 0118 01E0     		b	.L27
 475              	.LVL40:
 476              	.L34:
 477              		.loc 1 192 0
 478 011a 4FF40410 		mov	r0, #2162688
 479              	.L27:
 480              		.loc 1 210 0
 481 011e 03B0     		add	sp, sp, #12
 482              		.cfi_def_cfa_offset 28
 483              		@ sp needed
 484 0120 BDE8F083 		pop	{r4, r5, r6, r7, r8, r9, pc}
 485              	.L39:
 486              		.align	2
 487              	.L38:
 488 0124 00000000 		.word	.LANCHOR0
 489 0128 40420F00 		.word	1000000
 490 012c 80510100 		.word	86400
 491 0130 00000000 		.word	.LANCHOR1
 492 0134 90230B00 		.word	730000
 493              		.cfi_endproc
 494              	.LFE329:
 495              		.size	get_fattime, .-get_fattime
 496              		.section	.text.get_rtc_backup,"ax",%progbits
 497              		.align	1
 498              		.global	get_rtc_backup
 499              		.thumb
 500              		.thumb_func
 501              		.type	get_rtc_backup, %function
 502              	get_rtc_backup:
 503              	.LFB330:
 504              		.loc 1 216 0
 505              		.cfi_startproc
 506              		@ args = 0, pretend = 0, frame = 0
 507              		@ frame_needed = 0, uses_anonymous_args = 0
 508              	.LVL41:
 509 0000 10B5     		push	{r4, lr}
 510              		.cfi_def_cfa_offset 8
 511              		.cfi_offset 4, -8
 512              		.cfi_offset 14, -4
 513 0002 0244     		add	r2, r2, r0
ARM GAS  /tmp/cctz3RzG.s 			page 10


 514              	.LVL42:
 515 0004 D2B2     		uxtb	r2, r2
 516              	.LVL43:
 517              	.L41:
 518              		.loc 1 217 0
 519 0006 9042     		cmp	r0, r2
 520 0008 07D0     		beq	.L43
 521              		.loc 1 218 0
 522 000a 441C     		adds	r4, r0, #1
 523              	.LVL44:
 524 000c 034B     		ldr	r3, .L44
 525 000e 8000     		lsls	r0, r0, #2
 526 0010 1B58     		ldr	r3, [r3, r0]
 527 0012 41F8043B 		str	r3, [r1], #4
 528              	.LVL45:
 529 0016 E0B2     		uxtb	r0, r4
 530 0018 F5E7     		b	.L41
 531              	.LVL46:
 532              	.L43:
 533              		.loc 1 220 0
 534 001a 10BD     		pop	{r4, pc}
 535              	.L45:
 536              		.align	2
 537              	.L44:
 538 001c 50280040 		.word	1073752144
 539              		.cfi_endproc
 540              	.LFE330:
 541              		.size	get_rtc_backup, .-get_rtc_backup
 542              		.section	.text.set_rtc_backup,"ax",%progbits
 543              		.align	1
 544              		.global	set_rtc_backup
 545              		.thumb
 546              		.thumb_func
 547              		.type	set_rtc_backup, %function
 548              	set_rtc_backup:
 549              	.LFB331:
 550              		.loc 1 224 0
 551              		.cfi_startproc
 552              		@ args = 0, pretend = 0, frame = 0
 553              		@ frame_needed = 0, uses_anonymous_args = 0
 554              	.LVL47:
 555              		.loc 1 225 0
 556 0000 104B     		ldr	r3, .L51
 557              		.loc 1 224 0
 558 0002 10B5     		push	{r4, lr}
 559              		.cfi_def_cfa_offset 8
 560              		.cfi_offset 4, -8
 561              		.cfi_offset 14, -4
 562              		.loc 1 225 0
 563 0004 1C6F     		ldr	r4, [r3, #112]
 564 0006 2404     		lsls	r4, r4, #16
 565              		.loc 1 226 0
 566 0008 5FBF     		itttt	pl
 567 000a 1C6F     		ldrpl	r4, [r3, #112]
 568 000c 44F40074 		orrpl	r4, r4, #512
 569 0010 1C67     		strpl	r4, [r3, #112]
 570              		.loc 1 227 0
ARM GAS  /tmp/cctz3RzG.s 			page 11


 571 0012 1C6F     		ldrpl	r4, [r3, #112]
 572 0014 5CBF     		itt	pl
 573 0016 44F40044 		orrpl	r4, r4, #32768
 574 001a 1C67     		strpl	r4, [r3, #112]
 575              		.loc 1 230 0
 576 001c 0A4C     		ldr	r4, .L51+4
 577 001e 2368     		ldr	r3, [r4]
 578 0020 0244     		add	r2, r2, r0
 579              	.LVL48:
 580 0022 43F48073 		orr	r3, r3, #256
 581 0026 2360     		str	r3, [r4]
 582 0028 D2B2     		uxtb	r2, r2
 583              	.LVL49:
 584              	.L48:
 585              		.loc 1 234 0
 586 002a 9042     		cmp	r0, r2
 587 002c 08D0     		beq	.L50
 588              		.loc 1 235 0
 589 002e 074B     		ldr	r3, .L51+8
 590 0030 441C     		adds	r4, r0, #1
 591              	.LVL50:
 592 0032 8000     		lsls	r0, r0, #2
 593 0034 0344     		add	r3, r3, r0
 594 0036 51F8040B 		ldr	r0, [r1], #4
 595              	.LVL51:
 596 003a 1860     		str	r0, [r3]
 597 003c E0B2     		uxtb	r0, r4
 598 003e F4E7     		b	.L48
 599              	.LVL52:
 600              	.L50:
 601              		.loc 1 237 0
 602 0040 10BD     		pop	{r4, pc}
 603              	.L52:
 604 0042 00BF     		.align	2
 605              	.L51:
 606 0044 00380240 		.word	1073887232
 607 0048 00700040 		.word	1073770496
 608 004c 50280040 		.word	1073752144
 609              		.cfi_endproc
 610              	.LFE331:
 611              		.size	set_rtc_backup, .-set_rtc_backup
 612              		.section	.text.check_fast_reboot,"ax",%progbits
 613              		.align	1
 614              		.global	check_fast_reboot
 615              		.thumb
 616              		.thumb_func
 617              		.type	check_fast_reboot, %function
 618              	check_fast_reboot:
 619              	.LFB332:
 620              		.loc 1 241 0
 621              		.cfi_startproc
 622              		@ args = 0, pretend = 0, frame = 8
 623              		@ frame_needed = 0, uses_anonymous_args = 0
 624 0000 07B5     		push	{r0, r1, r2, lr}
 625              		.cfi_def_cfa_offset 16
 626              		.cfi_offset 14, -4
 627              		.loc 1 243 0
ARM GAS  /tmp/cctz3RzG.s 			page 12


 628 0002 0020     		movs	r0, #0
 629 0004 01A9     		add	r1, sp, #4
 630 0006 0122     		movs	r2, #1
 631 0008 FFF7FEFF 		bl	get_rtc_backup
 632              	.LVL53:
 633              		.loc 1 245 0
 634 000c 0198     		ldr	r0, [sp, #4]
 635 000e 03B0     		add	sp, sp, #12
 636              		.cfi_def_cfa_offset 4
 637              		@ sp needed
 638 0010 5DF804FB 		ldr	pc, [sp], #4
 639              		.cfi_endproc
 640              	.LFE332:
 641              		.size	check_fast_reboot, .-check_fast_reboot
 642              		.section	.text.set_fast_reboot,"ax",%progbits
 643              		.align	1
 644              		.global	set_fast_reboot
 645              		.thumb
 646              		.thumb_func
 647              		.type	set_fast_reboot, %function
 648              	set_fast_reboot:
 649              	.LFB333:
 650              		.loc 1 249 0
 651              		.cfi_startproc
 652              		@ args = 0, pretend = 0, frame = 8
 653              		@ frame_needed = 0, uses_anonymous_args = 0
 654              	.LVL54:
 655 0000 07B5     		push	{r0, r1, r2, lr}
 656              		.cfi_def_cfa_offset 16
 657              		.cfi_offset 14, -4
 658              		.loc 1 250 0
 659 0002 02A9     		add	r1, sp, #8
 660              		.loc 1 251 0
 661 0004 0122     		movs	r2, #1
 662              		.loc 1 250 0
 663 0006 41F8040D 		str	r0, [r1, #-4]!
 664              		.loc 1 251 0
 665 000a 0020     		movs	r0, #0
 666              	.LVL55:
 667 000c FFF7FEFF 		bl	set_rtc_backup
 668              	.LVL56:
 669              		.loc 1 252 0
 670 0010 03B0     		add	sp, sp, #12
 671              		.cfi_def_cfa_offset 4
 672              		@ sp needed
 673 0012 5DF804FB 		ldr	pc, [sp], #4
 674              		.cfi_endproc
 675              	.LFE333:
 676              		.size	set_fast_reboot, .-set_fast_reboot
 677              		.section	.text.peripheral_power_enable,"ax",%progbits
 678              		.align	1
 679              		.global	peripheral_power_enable
 680              		.thumb
 681              		.thumb_func
 682              		.type	peripheral_power_enable, %function
 683              	peripheral_power_enable:
 684              	.LFB334:
ARM GAS  /tmp/cctz3RzG.s 			page 13


 685              		.loc 1 274 0
 686              		.cfi_startproc
 687              		@ args = 0, pretend = 0, frame = 0
 688              		@ frame_needed = 0, uses_anonymous_args = 0
 689              		@ link register save eliminated.
 690 0000 7047     		bx	lr
 691              		.cfi_endproc
 692              	.LFE334:
 693              		.size	peripheral_power_enable, .-peripheral_power_enable
 694              		.section	.text.palReadLineMode,"ax",%progbits
 695              		.align	1
 696              		.global	palReadLineMode
 697              		.thumb
 698              		.thumb_func
 699              		.type	palReadLineMode, %function
 700              	palReadLineMode:
 701              	.LFB335:
 702              		.loc 1 315 0
 703              		.cfi_startproc
 704              		@ args = 0, pretend = 0, frame = 0
 705              		@ frame_needed = 0, uses_anonymous_args = 0
 706              	.LVL57:
 707              		.loc 1 315 0
 708 0000 F0B5     		push	{r4, r5, r6, r7, lr}
 709              		.cfi_def_cfa_offset 20
 710              		.cfi_offset 4, -20
 711              		.cfi_offset 5, -16
 712              		.cfi_offset 6, -12
 713              		.cfi_offset 7, -8
 714              		.cfi_offset 14, -4
 715              		.loc 1 316 0
 716 0002 20F00F05 		bic	r5, r0, #15
 717              	.LVL58:
 718              		.loc 1 317 0
 719 0006 00F00F04 		and	r4, r0, #15
 720              	.LVL59:
 721              		.loc 1 319 0
 722 000a 2B68     		ldr	r3, [r5]
 723              		.loc 1 320 0
 724 000c 6A68     		ldr	r2, [r5, #4]
 725              		.loc 1 319 0
 726 000e 26B2     		sxth	r6, r4
 727 0010 7700     		lsls	r7, r6, #1
 728              	.LVL60:
 729              		.loc 1 320 0
 730 0012 E240     		lsrs	r2, r2, r4
 731              		.loc 1 319 0
 732 0014 FB40     		lsrs	r3, r3, r7
 733              	.LVL61:
 734              		.loc 1 320 0
 735 0016 02F00102 		and	r2, r2, #1
 736              		.loc 1 319 0
 737 001a 03F00303 		and	r3, r3, #3
 738              	.LVL62:
 739              		.loc 1 320 0
 740 001e 43EA8201 		orr	r1, r3, r2, lsl #2
 741              	.LVL63:
ARM GAS  /tmp/cctz3RzG.s 			page 14


 742              		.loc 1 321 0
 743 0022 AB68     		ldr	r3, [r5, #8]
 744              		.loc 1 322 0
 745 0024 E868     		ldr	r0, [r5, #12]
 746              	.LVL64:
 747              		.loc 1 321 0
 748 0026 FB40     		lsrs	r3, r3, r7
 749 0028 03F00303 		and	r3, r3, #3
 750              		.loc 1 322 0
 751 002c F840     		lsrs	r0, r0, r7
 752              		.loc 1 323 0
 753 002e 072C     		cmp	r4, #7
 754              		.loc 1 322 0
 755 0030 00F00300 		and	r0, r0, #3
 756              		.loc 1 321 0
 757 0034 41EAC302 		orr	r2, r1, r3, lsl #3
 758              	.LVL65:
 759              		.loc 1 322 0
 760 0038 42EA4013 		orr	r3, r2, r0, lsl #5
 761              	.LVL66:
 762              		.loc 1 326 0
 763 003c 8BBF     		itete	hi
 764 003e 083C     		subhi	r4, r4, #8
 765              	.LVL67:
 766              		.loc 1 324 0
 767 0040 286A     		ldrls	r0, [r5, #32]
 768              		.loc 1 326 0
 769 0042 686A     		ldrhi	r0, [r5, #36]
 770              		.loc 1 324 0
 771 0044 B600     		lslls	r6, r6, #2
 772              		.loc 1 326 0
 773 0046 8ABF     		itet	hi
 774 0048 A400     		lslhi	r4, r4, #2
 775              		.loc 1 324 0
 776 004a F040     		lsrls	r0, r0, r6
 777              		.loc 1 326 0
 778 004c E040     		lsrhi	r0, r0, r4
 779 004e 00F00F00 		and	r0, r0, #15
 780 0052 43EAC010 		orr	r0, r3, r0, lsl #7
 781              	.LVL68:
 782              		.loc 1 329 0
 783 0056 F0BD     		pop	{r4, r5, r6, r7, pc}
 784              		.cfi_endproc
 785              	.LFE335:
 786              		.size	palReadLineMode, .-palReadLineMode
 787              		.section	.rodata.ndays,"a",%progbits
 788              		.set	.LANCHOR1,. + 0
 789              		.type	ndays, %object
 790              		.size	ndays, 24
 791              	ndays:
 792 0000 1F       		.byte	31
 793 0001 1C       		.byte	28
 794 0002 1F       		.byte	31
 795 0003 1E       		.byte	30
 796 0004 1F       		.byte	31
 797 0005 1E       		.byte	30
 798 0006 1F       		.byte	31
ARM GAS  /tmp/cctz3RzG.s 			page 15


 799 0007 1F       		.byte	31
 800 0008 1E       		.byte	30
 801 0009 1F       		.byte	31
 802 000a 1E       		.byte	30
 803 000b 1F       		.byte	31
 804 000c 1F       		.byte	31
 805 000d 1D       		.byte	29
 806 000e 1F       		.byte	31
 807 000f 1E       		.byte	30
 808 0010 1F       		.byte	31
 809 0011 1E       		.byte	30
 810 0012 1F       		.byte	31
 811 0013 1F       		.byte	31
 812 0014 1E       		.byte	30
 813 0015 1F       		.byte	31
 814 0016 1E       		.byte	30
 815 0017 1F       		.byte	31
 816              		.section	.bss.utc_time_offset,"aw",%nobits
 817              		.align	3
 818              		.set	.LANCHOR0,. + 0
 819              		.type	utc_time_offset, %object
 820              		.size	utc_time_offset, 8
 821              	utc_time_offset:
 822 0000 00000000 		.space	8
 822      00000000 
 823              		.text
 824              	.Letext0:
 825              		.file 2 "/usr/lib/gcc/arm-none-eabi/4.9.3/include/stddef.h"
 826              		.file 3 "/usr/include/newlib/machine/_default_types.h"
 827              		.file 4 "/usr/include/newlib/sys/_stdint.h"
 828              		.file 5 "../../modules/ChibiOS/os/common/ports/ARMCMx/compilers/GCC/chtypes.h"
 829              		.file 6 "../../modules/ChibiOS/os/rt/include/chsystypes.h"
 830              		.file 7 "../../modules/ChibiOS/os/rt/include/chschd.h"
 831              		.file 8 "../../modules/ChibiOS/os/rt/include/chtime.h"
 832              		.file 9 "../../modules/ChibiOS/os/common/ext/ST/STM32F4xx/stm32f407xx.h"
 833              		.file 10 "../../modules/ChibiOS/os/common/ports/ARMCMx/chcore.h"
 834              		.file 11 "../../modules/ChibiOS/os/common/ports/ARMCMx/chcore_v7m.h"
 835              		.file 12 "../../modules/ChibiOS/os/hal/ports/STM32/LLD/TIMv1/stm32_tim.h"
 836              		.file 13 "../../modules/ChibiOS/os/rt/include/chtm.h"
 837              		.file 14 "../../modules/ChibiOS/os/rt/include/chstats.h"
 838              		.file 15 "../../modules/ChibiOS/os/rt/include/chsem.h"
 839              		.file 16 "../../modules/ChibiOS/os/rt/include/chmtx.h"
 840              		.file 17 "../../modules/ChibiOS/os/hal/ports/STM32/LLD/GPIOv2/stm32_gpio.h"
 841              		.file 18 "../../modules/ChibiOS/os/hal/ports/STM32/LLD/GPIOv2/hal_pal_lld.h"
 842              		.file 19 "../../libraries/AP_HAL_ChibiOS/hwdef/common/stm32_util.h"
 843              		.file 20 "../../modules/ChibiOS/os/common/ext/ARM/CMSIS/Core/Include/core_cm4.h"
 844              		.file 21 "../../libraries/AP_HAL_ChibiOS/hwdef/common/hrt.h"
 845              		.section	.debug_info,"",%progbits
 846              	.Ldebug_info0:
 847 0000 8B120000 		.4byte	0x128b
 848 0004 0400     		.2byte	0x4
 849 0006 00000000 		.4byte	.Ldebug_abbrev0
 850 000a 04       		.byte	0x4
 851 000b 01       		.uleb128 0x1
 852 000c 70030000 		.4byte	.LASF233
 853 0010 01       		.byte	0x1
 854 0011 42010000 		.4byte	.LASF234
ARM GAS  /tmp/cctz3RzG.s 			page 16


 855 0015 6B040000 		.4byte	.LASF235
 856 0019 38000000 		.4byte	.Ldebug_ranges0+0x38
 857 001d 00000000 		.4byte	0
 858 0021 00000000 		.4byte	.Ldebug_line0
 859 0025 02       		.uleb128 0x2
 860 0026 08       		.byte	0x8
 861 0027 07       		.byte	0x7
 862 0028 2D020000 		.4byte	.LASF0
 863 002c 03       		.uleb128 0x3
 864 002d 04       		.byte	0x4
 865 002e 05       		.byte	0x5
 866 002f 696E7400 		.ascii	"int\000"
 867 0033 04       		.uleb128 0x4
 868 0034 53030000 		.4byte	.LASF3
 869 0038 02       		.byte	0x2
 870 0039 D4       		.byte	0xd4
 871 003a 3E000000 		.4byte	0x3e
 872 003e 02       		.uleb128 0x2
 873 003f 04       		.byte	0x4
 874 0040 07       		.byte	0x7
 875 0041 93000000 		.4byte	.LASF1
 876 0045 02       		.uleb128 0x2
 877 0046 01       		.byte	0x1
 878 0047 06       		.byte	0x6
 879 0048 99090000 		.4byte	.LASF2
 880 004c 04       		.uleb128 0x4
 881 004d 09080000 		.4byte	.LASF4
 882 0051 03       		.byte	0x3
 883 0052 1D       		.byte	0x1d
 884 0053 57000000 		.4byte	0x57
 885 0057 02       		.uleb128 0x2
 886 0058 01       		.byte	0x1
 887 0059 08       		.byte	0x8
 888 005a D2080000 		.4byte	.LASF5
 889 005e 02       		.uleb128 0x2
 890 005f 02       		.byte	0x2
 891 0060 05       		.byte	0x5
 892 0061 21010000 		.4byte	.LASF6
 893 0065 04       		.uleb128 0x4
 894 0066 AE020000 		.4byte	.LASF7
 895 006a 03       		.byte	0x3
 896 006b 2B       		.byte	0x2b
 897 006c 70000000 		.4byte	0x70
 898 0070 02       		.uleb128 0x2
 899 0071 02       		.byte	0x2
 900 0072 07       		.byte	0x7
 901 0073 B0090000 		.4byte	.LASF8
 902 0077 04       		.uleb128 0x4
 903 0078 DA000000 		.4byte	.LASF9
 904 007c 03       		.byte	0x3
 905 007d 3F       		.byte	0x3f
 906 007e 82000000 		.4byte	0x82
 907 0082 02       		.uleb128 0x2
 908 0083 04       		.byte	0x4
 909 0084 05       		.byte	0x5
 910 0085 8F070000 		.4byte	.LASF10
 911 0089 04       		.uleb128 0x4
ARM GAS  /tmp/cctz3RzG.s 			page 17


 912 008a EB080000 		.4byte	.LASF11
 913 008e 03       		.byte	0x3
 914 008f 41       		.byte	0x41
 915 0090 94000000 		.4byte	0x94
 916 0094 02       		.uleb128 0x2
 917 0095 04       		.byte	0x4
 918 0096 07       		.byte	0x7
 919 0097 65080000 		.4byte	.LASF12
 920 009b 04       		.uleb128 0x4
 921 009c 8A060000 		.4byte	.LASF13
 922 00a0 03       		.byte	0x3
 923 00a1 59       		.byte	0x59
 924 00a2 A6000000 		.4byte	0xa6
 925 00a6 02       		.uleb128 0x2
 926 00a7 08       		.byte	0x8
 927 00a8 05       		.byte	0x5
 928 00a9 82050000 		.4byte	.LASF14
 929 00ad 04       		.uleb128 0x4
 930 00ae 90050000 		.4byte	.LASF15
 931 00b2 03       		.byte	0x3
 932 00b3 5B       		.byte	0x5b
 933 00b4 25000000 		.4byte	0x25
 934 00b8 04       		.uleb128 0x4
 935 00b9 A1050000 		.4byte	.LASF16
 936 00bd 04       		.byte	0x4
 937 00be 14       		.byte	0x14
 938 00bf 4C000000 		.4byte	0x4c
 939 00c3 04       		.uleb128 0x4
 940 00c4 A1060000 		.4byte	.LASF17
 941 00c8 04       		.byte	0x4
 942 00c9 1A       		.byte	0x1a
 943 00ca 65000000 		.4byte	0x65
 944 00ce 04       		.uleb128 0x4
 945 00cf 8A080000 		.4byte	.LASF18
 946 00d3 04       		.byte	0x4
 947 00d4 1F       		.byte	0x1f
 948 00d5 77000000 		.4byte	0x77
 949 00d9 04       		.uleb128 0x4
 950 00da D1010000 		.4byte	.LASF19
 951 00de 04       		.byte	0x4
 952 00df 20       		.byte	0x20
 953 00e0 89000000 		.4byte	0x89
 954 00e4 04       		.uleb128 0x4
 955 00e5 61030000 		.4byte	.LASF20
 956 00e9 04       		.byte	0x4
 957 00ea 25       		.byte	0x25
 958 00eb 9B000000 		.4byte	0x9b
 959 00ef 04       		.uleb128 0x4
 960 00f0 F5070000 		.4byte	.LASF21
 961 00f4 04       		.byte	0x4
 962 00f5 26       		.byte	0x26
 963 00f6 AD000000 		.4byte	0xad
 964 00fa 04       		.uleb128 0x4
 965 00fb ED060000 		.4byte	.LASF22
 966 00ff 05       		.byte	0x5
 967 0100 27       		.byte	0x27
 968 0101 D9000000 		.4byte	0xd9
ARM GAS  /tmp/cctz3RzG.s 			page 18


 969 0105 04       		.uleb128 0x4
 970 0106 4D050000 		.4byte	.LASF23
 971 010a 05       		.byte	0x5
 972 010b 28       		.byte	0x28
 973 010c EF000000 		.4byte	0xef
 974 0110 04       		.uleb128 0x4
 975 0111 68060000 		.4byte	.LASF24
 976 0115 05       		.byte	0x5
 977 0116 2A       		.byte	0x2a
 978 0117 B8000000 		.4byte	0xb8
 979 011b 04       		.uleb128 0x4
 980 011c 79050000 		.4byte	.LASF25
 981 0120 05       		.byte	0x5
 982 0121 2B       		.byte	0x2b
 983 0122 B8000000 		.4byte	0xb8
 984 0126 04       		.uleb128 0x4
 985 0127 4A080000 		.4byte	.LASF26
 986 012b 05       		.byte	0x5
 987 012c 2C       		.byte	0x2c
 988 012d B8000000 		.4byte	0xb8
 989 0131 04       		.uleb128 0x4
 990 0132 1F020000 		.4byte	.LASF27
 991 0136 05       		.byte	0x5
 992 0137 2E       		.byte	0x2e
 993 0138 D9000000 		.4byte	0xd9
 994 013c 04       		.uleb128 0x4
 995 013d 0A060000 		.4byte	.LASF28
 996 0141 05       		.byte	0x5
 997 0142 2F       		.byte	0x2f
 998 0143 CE000000 		.4byte	0xce
 999 0147 04       		.uleb128 0x4
 1000 0148 F4050000 		.4byte	.LASF29
 1001 014c 05       		.byte	0x5
 1002 014d 31       		.byte	0x31
 1003 014e D9000000 		.4byte	0xd9
 1004 0152 04       		.uleb128 0x4
 1005 0153 B9020000 		.4byte	.LASF30
 1006 0157 05       		.byte	0x5
 1007 0158 33       		.byte	0x33
 1008 0159 CE000000 		.4byte	0xce
 1009 015d 04       		.uleb128 0x4
 1010 015e 70060000 		.4byte	.LASF31
 1011 0162 05       		.byte	0x5
 1012 0163 34       		.byte	0x34
 1013 0164 D9000000 		.4byte	0xd9
 1014 0168 04       		.uleb128 0x4
 1015 0169 38030000 		.4byte	.LASF32
 1016 016d 06       		.byte	0x6
 1017 016e 34       		.byte	0x34
 1018 016f 73010000 		.4byte	0x173
 1019 0173 05       		.uleb128 0x5
 1020 0174 B7050000 		.4byte	.LASF51
 1021 0178 60       		.byte	0x60
 1022 0179 07       		.byte	0x7
 1023 017a 8E       		.byte	0x8e
 1024 017b 5E020000 		.4byte	0x25e
 1025 017f 06       		.uleb128 0x6
ARM GAS  /tmp/cctz3RzG.s 			page 19


 1026 0180 84080000 		.4byte	.LASF33
 1027 0184 07       		.byte	0x7
 1028 0185 8F       		.byte	0x8f
 1029 0186 93020000 		.4byte	0x293
 1030 018a 00       		.byte	0
 1031 018b 06       		.uleb128 0x6
 1032 018c 37050000 		.4byte	.LASF34
 1033 0190 07       		.byte	0x7
 1034 0191 90       		.byte	0x90
 1035 0192 31010000 		.4byte	0x131
 1036 0196 08       		.byte	0x8
 1037 0197 07       		.uleb128 0x7
 1038 0198 63747800 		.ascii	"ctx\000"
 1039 019c 07       		.byte	0x7
 1040 019d 91       		.byte	0x91
 1041 019e B8080000 		.4byte	0x8b8
 1042 01a2 0C       		.byte	0xc
 1043 01a3 06       		.uleb128 0x6
 1044 01a4 AD080000 		.4byte	.LASF35
 1045 01a8 07       		.byte	0x7
 1046 01a9 93       		.byte	0x93
 1047 01aa 69020000 		.4byte	0x269
 1048 01ae 10       		.byte	0x10
 1049 01af 06       		.uleb128 0x6
 1050 01b0 100A0000 		.4byte	.LASF36
 1051 01b4 07       		.byte	0x7
 1052 01b5 94       		.byte	0x94
 1053 01b6 69020000 		.4byte	0x269
 1054 01ba 14       		.byte	0x14
 1055 01bb 06       		.uleb128 0x6
 1056 01bc 13080000 		.4byte	.LASF37
 1057 01c0 07       		.byte	0x7
 1058 01c1 9B       		.byte	0x9b
 1059 01c2 C00C0000 		.4byte	0xcc0
 1060 01c6 18       		.byte	0x18
 1061 01c7 06       		.uleb128 0x6
 1062 01c8 56050000 		.4byte	.LASF38
 1063 01cc 07       		.byte	0x7
 1064 01cd A4       		.byte	0xa4
 1065 01ce D20C0000 		.4byte	0xcd2
 1066 01d2 1C       		.byte	0x1c
 1067 01d3 06       		.uleb128 0x6
 1068 01d4 30090000 		.4byte	.LASF39
 1069 01d8 07       		.byte	0x7
 1070 01d9 A9       		.byte	0xa9
 1071 01da 1B010000 		.4byte	0x11b
 1072 01de 20       		.byte	0x20
 1073 01df 06       		.uleb128 0x6
 1074 01e0 67000000 		.4byte	.LASF40
 1075 01e4 07       		.byte	0x7
 1076 01e5 AD       		.byte	0xad
 1077 01e6 10010000 		.4byte	0x110
 1078 01ea 21       		.byte	0x21
 1079 01eb 06       		.uleb128 0x6
 1080 01ec E4000000 		.4byte	.LASF41
 1081 01f0 07       		.byte	0x7
 1082 01f1 B2       		.byte	0xb2
ARM GAS  /tmp/cctz3RzG.s 			page 20


 1083 01f2 26010000 		.4byte	0x126
 1084 01f6 22       		.byte	0x22
 1085 01f7 08       		.uleb128 0x8
 1086 01f8 7500     		.ascii	"u\000"
 1087 01fa 07       		.byte	0x7
 1088 01fb 0301     		.2byte	0x103
 1089 01fd F60B0000 		.4byte	0xbf6
 1090 0201 24       		.byte	0x24
 1091 0202 09       		.uleb128 0x9
 1092 0203 F6080000 		.4byte	.LASF42
 1093 0207 07       		.byte	0x7
 1094 0208 0801     		.2byte	0x108
 1095 020a 6F020000 		.4byte	0x26f
 1096 020e 28       		.byte	0x28
 1097 020f 09       		.uleb128 0x9
 1098 0210 A9050000 		.4byte	.LASF43
 1099 0214 07       		.byte	0x7
 1100 0215 0E01     		.2byte	0x10e
 1101 0217 93020000 		.4byte	0x293
 1102 021b 2C       		.byte	0x2c
 1103 021c 09       		.uleb128 0x9
 1104 021d 8A000000 		.4byte	.LASF44
 1105 0221 07       		.byte	0x7
 1106 0222 1401     		.2byte	0x114
 1107 0224 47010000 		.4byte	0x147
 1108 0228 34       		.byte	0x34
 1109 0229 09       		.uleb128 0x9
 1110 022a 12030000 		.4byte	.LASF45
 1111 022e 07       		.byte	0x7
 1112 022f 1B01     		.2byte	0x11b
 1113 0231 BA0C0000 		.4byte	0xcba
 1114 0235 38       		.byte	0x38
 1115 0236 09       		.uleb128 0x9
 1116 0237 77000000 		.4byte	.LASF46
 1117 023b 07       		.byte	0x7
 1118 023c 1F01     		.2byte	0x11f
 1119 023e 31010000 		.4byte	0x131
 1120 0242 3C       		.byte	0x3c
 1121 0243 09       		.uleb128 0x9
 1122 0244 280A0000 		.4byte	.LASF47
 1123 0248 07       		.byte	0x7
 1124 0249 2601     		.2byte	0x126
 1125 024b 46030000 		.4byte	0x346
 1126 024f 40       		.byte	0x40
 1127 0250 09       		.uleb128 0x9
 1128 0251 6C090000 		.4byte	.LASF48
 1129 0255 07       		.byte	0x7
 1130 0256 2C01     		.2byte	0x12c
 1131 0258 A70B0000 		.4byte	0xba7
 1132 025c 48       		.byte	0x48
 1133 025d 00       		.byte	0
 1134 025e 04       		.uleb128 0x4
 1135 025f 2B000000 		.4byte	.LASF49
 1136 0263 06       		.byte	0x6
 1137 0264 39       		.byte	0x39
 1138 0265 69020000 		.4byte	0x269
 1139 0269 0A       		.uleb128 0xa
ARM GAS  /tmp/cctz3RzG.s 			page 21


 1140 026a 04       		.byte	0x4
 1141 026b 68010000 		.4byte	0x168
 1142 026f 04       		.uleb128 0x4
 1143 0270 B0000000 		.4byte	.LASF50
 1144 0274 06       		.byte	0x6
 1145 0275 3E       		.byte	0x3e
 1146 0276 7A020000 		.4byte	0x27a
 1147 027a 05       		.uleb128 0x5
 1148 027b BF020000 		.4byte	.LASF52
 1149 027f 04       		.byte	0x4
 1150 0280 07       		.byte	0x7
 1151 0281 7C       		.byte	0x7c
 1152 0282 93020000 		.4byte	0x293
 1153 0286 06       		.uleb128 0x6
 1154 0287 A0000000 		.4byte	.LASF53
 1155 028b 07       		.byte	0x7
 1156 028c 7D       		.byte	0x7d
 1157 028d 69020000 		.4byte	0x269
 1158 0291 00       		.byte	0
 1159 0292 00       		.byte	0
 1160 0293 04       		.uleb128 0x4
 1161 0294 FC020000 		.4byte	.LASF54
 1162 0298 06       		.byte	0x6
 1163 0299 45       		.byte	0x45
 1164 029a 9E020000 		.4byte	0x29e
 1165 029e 05       		.uleb128 0x5
 1166 029f DC050000 		.4byte	.LASF55
 1167 02a3 08       		.byte	0x8
 1168 02a4 07       		.byte	0x7
 1169 02a5 83       		.byte	0x83
 1170 02a6 C3020000 		.4byte	0x2c3
 1171 02aa 06       		.uleb128 0x6
 1172 02ab A0000000 		.4byte	.LASF53
 1173 02af 07       		.byte	0x7
 1174 02b0 84       		.byte	0x84
 1175 02b1 69020000 		.4byte	0x269
 1176 02b5 00       		.byte	0
 1177 02b6 06       		.uleb128 0x6
 1178 02b7 87010000 		.4byte	.LASF56
 1179 02bb 07       		.byte	0x7
 1180 02bc 85       		.byte	0x85
 1181 02bd 69020000 		.4byte	0x269
 1182 02c1 04       		.byte	0x4
 1183 02c2 00       		.byte	0
 1184 02c3 04       		.uleb128 0x4
 1185 02c4 77080000 		.4byte	.LASF57
 1186 02c8 06       		.byte	0x6
 1187 02c9 4C       		.byte	0x4c
 1188 02ca CE020000 		.4byte	0x2ce
 1189 02ce 0B       		.uleb128 0xb
 1190 02cf 2B010000 		.4byte	.LASF58
 1191 02d3 1C       		.byte	0x1c
 1192 02d4 07       		.byte	0x7
 1193 02d5 5E01     		.2byte	0x15e
 1194 02d7 2A030000 		.4byte	0x32a
 1195 02db 09       		.uleb128 0x9
 1196 02dc 84080000 		.4byte	.LASF33
ARM GAS  /tmp/cctz3RzG.s 			page 22


 1197 02e0 07       		.byte	0x7
 1198 02e1 5F01     		.2byte	0x15f
 1199 02e3 93020000 		.4byte	0x293
 1200 02e7 00       		.byte	0
 1201 02e8 09       		.uleb128 0x9
 1202 02e9 37050000 		.4byte	.LASF34
 1203 02ed 07       		.byte	0x7
 1204 02ee 6001     		.2byte	0x160
 1205 02f0 31010000 		.4byte	0x131
 1206 02f4 08       		.byte	0x8
 1207 02f5 08       		.uleb128 0x8
 1208 02f6 63747800 		.ascii	"ctx\000"
 1209 02fa 07       		.byte	0x7
 1210 02fb 6201     		.2byte	0x162
 1211 02fd B8080000 		.4byte	0x8b8
 1212 0301 0C       		.byte	0xc
 1213 0302 09       		.uleb128 0x9
 1214 0303 AD080000 		.4byte	.LASF35
 1215 0307 07       		.byte	0x7
 1216 0308 6501     		.2byte	0x165
 1217 030a 69020000 		.4byte	0x269
 1218 030e 10       		.byte	0x10
 1219 030f 09       		.uleb128 0x9
 1220 0310 100A0000 		.4byte	.LASF36
 1221 0314 07       		.byte	0x7
 1222 0315 6601     		.2byte	0x166
 1223 0317 69020000 		.4byte	0x269
 1224 031b 14       		.byte	0x14
 1225 031c 09       		.uleb128 0x9
 1226 031d E7090000 		.4byte	.LASF59
 1227 0321 07       		.byte	0x7
 1228 0322 6901     		.2byte	0x169
 1229 0324 69020000 		.4byte	0x269
 1230 0328 18       		.byte	0x18
 1231 0329 00       		.byte	0
 1232 032a 04       		.uleb128 0x4
 1233 032b 9B010000 		.4byte	.LASF60
 1234 032f 06       		.byte	0x6
 1235 0330 51       		.byte	0x51
 1236 0331 35030000 		.4byte	0x335
 1237 0335 0A       		.uleb128 0xa
 1238 0336 04       		.byte	0x4
 1239 0337 3B030000 		.4byte	0x33b
 1240 033b 0C       		.uleb128 0xc
 1241 033c 46030000 		.4byte	0x346
 1242 0340 0D       		.uleb128 0xd
 1243 0341 46030000 		.4byte	0x346
 1244 0345 00       		.byte	0
 1245 0346 0E       		.uleb128 0xe
 1246 0347 04       		.byte	0x4
 1247 0348 04       		.uleb128 0x4
 1248 0349 24060000 		.4byte	.LASF61
 1249 034d 06       		.byte	0x6
 1250 034e 56       		.byte	0x56
 1251 034f 53030000 		.4byte	0x353
 1252 0353 0B       		.uleb128 0xb
 1253 0354 8D020000 		.4byte	.LASF62
ARM GAS  /tmp/cctz3RzG.s 			page 23


 1254 0358 14       		.byte	0x14
 1255 0359 07       		.byte	0x7
 1256 035a 3901     		.2byte	0x139
 1257 035c A2030000 		.4byte	0x3a2
 1258 0360 09       		.uleb128 0x9
 1259 0361 A0000000 		.4byte	.LASF53
 1260 0365 07       		.byte	0x7
 1261 0366 3A01     		.2byte	0x13a
 1262 0368 D80C0000 		.4byte	0xcd8
 1263 036c 00       		.byte	0
 1264 036d 09       		.uleb128 0x9
 1265 036e 87010000 		.4byte	.LASF56
 1266 0372 07       		.byte	0x7
 1267 0373 3B01     		.2byte	0x13b
 1268 0375 D80C0000 		.4byte	0xcd8
 1269 0379 04       		.byte	0x4
 1270 037a 09       		.uleb128 0x9
 1271 037b AA090000 		.4byte	.LASF63
 1272 037f 07       		.byte	0x7
 1273 0380 3C01     		.2byte	0x13c
 1274 0382 86040000 		.4byte	0x486
 1275 0386 08       		.byte	0x8
 1276 0387 09       		.uleb128 0x9
 1277 0388 7B010000 		.4byte	.LASF64
 1278 038c 07       		.byte	0x7
 1279 038d 3D01     		.2byte	0x13d
 1280 038f 2A030000 		.4byte	0x32a
 1281 0393 0C       		.byte	0xc
 1282 0394 08       		.uleb128 0x8
 1283 0395 70617200 		.ascii	"par\000"
 1284 0399 07       		.byte	0x7
 1285 039a 3F01     		.2byte	0x13f
 1286 039c 46030000 		.4byte	0x346
 1287 03a0 10       		.byte	0x10
 1288 03a1 00       		.byte	0
 1289 03a2 04       		.uleb128 0x4
 1290 03a3 D7060000 		.4byte	.LASF65
 1291 03a7 06       		.byte	0x6
 1292 03a8 5B       		.byte	0x5b
 1293 03a9 AD030000 		.4byte	0x3ad
 1294 03ad 0B       		.uleb128 0xb
 1295 03ae 1A030000 		.4byte	.LASF66
 1296 03b2 10       		.byte	0x10
 1297 03b3 07       		.byte	0x7
 1298 03b4 4901     		.2byte	0x149
 1299 03b6 EF030000 		.4byte	0x3ef
 1300 03ba 09       		.uleb128 0x9
 1301 03bb A0000000 		.4byte	.LASF53
 1302 03bf 07       		.byte	0x7
 1303 03c0 4A01     		.2byte	0x14a
 1304 03c2 D80C0000 		.4byte	0xcd8
 1305 03c6 00       		.byte	0
 1306 03c7 09       		.uleb128 0x9
 1307 03c8 87010000 		.4byte	.LASF56
 1308 03cc 07       		.byte	0x7
 1309 03cd 4C01     		.2byte	0x14c
 1310 03cf D80C0000 		.4byte	0xcd8
ARM GAS  /tmp/cctz3RzG.s 			page 24


 1311 03d3 04       		.byte	0x4
 1312 03d4 09       		.uleb128 0x9
 1313 03d5 AA090000 		.4byte	.LASF63
 1314 03d9 07       		.byte	0x7
 1315 03da 4E01     		.2byte	0x14e
 1316 03dc 86040000 		.4byte	0x486
 1317 03e0 08       		.byte	0x8
 1318 03e1 09       		.uleb128 0x9
 1319 03e2 EC070000 		.4byte	.LASF67
 1320 03e6 07       		.byte	0x7
 1321 03e7 5601     		.2byte	0x156
 1322 03e9 7B040000 		.4byte	0x47b
 1323 03ed 0C       		.byte	0xc
 1324 03ee 00       		.byte	0
 1325 03ef 04       		.uleb128 0x4
 1326 03f0 CD050000 		.4byte	.LASF68
 1327 03f4 06       		.byte	0x6
 1328 03f5 60       		.byte	0x60
 1329 03f6 FA030000 		.4byte	0x3fa
 1330 03fa 0B       		.uleb128 0xb
 1331 03fb B2010000 		.4byte	.LASF69
 1332 03ff 04       		.byte	0x4
 1333 0400 07       		.byte	0x7
 1334 0401 7001     		.2byte	0x170
 1335 0403 15040000 		.4byte	0x415
 1336 0407 09       		.uleb128 0x9
 1337 0408 21090000 		.4byte	.LASF70
 1338 040c 07       		.byte	0x7
 1339 040d 7801     		.2byte	0x178
 1340 040f DE0C0000 		.4byte	0xcde
 1341 0413 00       		.byte	0
 1342 0414 00       		.byte	0
 1343 0415 04       		.uleb128 0x4
 1344 0416 72090000 		.4byte	.LASF71
 1345 041a 06       		.byte	0x6
 1346 041b 65       		.byte	0x65
 1347 041c 20040000 		.4byte	0x420
 1348 0420 0B       		.uleb128 0xb
 1349 0421 C4070000 		.4byte	.LASF72
 1350 0425 D0       		.byte	0xd0
 1351 0426 07       		.byte	0x7
 1352 0427 9001     		.2byte	0x190
 1353 0429 7B040000 		.4byte	0x47b
 1354 042d 09       		.uleb128 0x9
 1355 042e 03080000 		.4byte	.LASF73
 1356 0432 07       		.byte	0x7
 1357 0433 9401     		.2byte	0x194
 1358 0435 C3020000 		.4byte	0x2c3
 1359 0439 00       		.byte	0
 1360 043a 09       		.uleb128 0x9
 1361 043b 05010000 		.4byte	.LASF74
 1362 043f 07       		.byte	0x7
 1363 0440 9801     		.2byte	0x198
 1364 0442 A2030000 		.4byte	0x3a2
 1365 0446 1C       		.byte	0x1c
 1366 0447 08       		.uleb128 0x8
 1367 0448 64626700 		.ascii	"dbg\000"
ARM GAS  /tmp/cctz3RzG.s 			page 25


 1368 044c 07       		.byte	0x7
 1369 044d 9C01     		.2byte	0x19c
 1370 044f EF030000 		.4byte	0x3ef
 1371 0453 2C       		.byte	0x2c
 1372 0454 09       		.uleb128 0x9
 1373 0455 77060000 		.4byte	.LASF75
 1374 0459 07       		.byte	0x7
 1375 045a A001     		.2byte	0x1a0
 1376 045c 68010000 		.4byte	0x168
 1377 0460 30       		.byte	0x30
 1378 0461 08       		.uleb128 0x8
 1379 0462 746D00   		.ascii	"tm\000"
 1380 0465 07       		.byte	0x7
 1381 0466 A501     		.2byte	0x1a5
 1382 0468 590B0000 		.4byte	0xb59
 1383 046c 90       		.byte	0x90
 1384 046d 09       		.uleb128 0x9
 1385 046e FD010000 		.4byte	.LASF76
 1386 0472 07       		.byte	0x7
 1387 0473 AB01     		.2byte	0x1ab
 1388 0475 EB0B0000 		.4byte	0xbeb
 1389 0479 98       		.byte	0x98
 1390 047a 00       		.byte	0
 1391 047b 04       		.uleb128 0x4
 1392 047c 6D000000 		.4byte	.LASF77
 1393 0480 08       		.byte	0x8
 1394 0481 6D       		.byte	0x6d
 1395 0482 D9000000 		.4byte	0xd9
 1396 0486 04       		.uleb128 0x4
 1397 0487 52080000 		.4byte	.LASF78
 1398 048b 08       		.byte	0x8
 1399 048c 79       		.byte	0x79
 1400 048d D9000000 		.4byte	0xd9
 1401 0491 02       		.uleb128 0x2
 1402 0492 04       		.byte	0x4
 1403 0493 07       		.byte	0x7
 1404 0494 41080000 		.4byte	.LASF79
 1405 0498 0F       		.uleb128 0xf
 1406 0499 D9000000 		.4byte	0xd9
 1407 049d 10       		.uleb128 0x10
 1408 049e D9000000 		.4byte	0xd9
 1409 04a2 AD040000 		.4byte	0x4ad
 1410 04a6 11       		.uleb128 0x11
 1411 04a7 91040000 		.4byte	0x491
 1412 04ab 01       		.byte	0x1
 1413 04ac 00       		.byte	0
 1414 04ad 10       		.uleb128 0x10
 1415 04ae D9000000 		.4byte	0xd9
 1416 04b2 BD040000 		.4byte	0x4bd
 1417 04b6 11       		.uleb128 0x11
 1418 04b7 91040000 		.4byte	0x491
 1419 04bb 03       		.byte	0x3
 1420 04bc 00       		.byte	0
 1421 04bd 12       		.uleb128 0x12
 1422 04be 08       		.byte	0x8
 1423 04bf 09       		.byte	0x9
 1424 04c0 5C02     		.2byte	0x25c
ARM GAS  /tmp/cctz3RzG.s 			page 26


 1425 04c2 E0040000 		.4byte	0x4e0
 1426 04c6 08       		.uleb128 0x8
 1427 04c7 435200   		.ascii	"CR\000"
 1428 04ca 09       		.byte	0x9
 1429 04cb 5E02     		.2byte	0x25e
 1430 04cd 98040000 		.4byte	0x498
 1431 04d1 00       		.byte	0
 1432 04d2 08       		.uleb128 0x8
 1433 04d3 43535200 		.ascii	"CSR\000"
 1434 04d7 09       		.byte	0x9
 1435 04d8 5F02     		.2byte	0x25f
 1436 04da 98040000 		.4byte	0x498
 1437 04de 04       		.byte	0x4
 1438 04df 00       		.byte	0
 1439 04e0 13       		.uleb128 0x13
 1440 04e1 83070000 		.4byte	.LASF80
 1441 04e5 09       		.byte	0x9
 1442 04e6 6002     		.2byte	0x260
 1443 04e8 BD040000 		.4byte	0x4bd
 1444 04ec 12       		.uleb128 0x12
 1445 04ed 88       		.byte	0x88
 1446 04ee 09       		.byte	0x9
 1447 04ef 6602     		.2byte	0x266
 1448 04f1 7B060000 		.4byte	0x67b
 1449 04f5 08       		.uleb128 0x8
 1450 04f6 435200   		.ascii	"CR\000"
 1451 04f9 09       		.byte	0x9
 1452 04fa 6802     		.2byte	0x268
 1453 04fc 98040000 		.4byte	0x498
 1454 0500 00       		.byte	0
 1455 0501 09       		.uleb128 0x9
 1456 0502 18080000 		.4byte	.LASF81
 1457 0506 09       		.byte	0x9
 1458 0507 6902     		.2byte	0x269
 1459 0509 98040000 		.4byte	0x498
 1460 050d 04       		.byte	0x4
 1461 050e 09       		.uleb128 0x9
 1462 050f FE070000 		.4byte	.LASF82
 1463 0513 09       		.byte	0x9
 1464 0514 6A02     		.2byte	0x26a
 1465 0516 98040000 		.4byte	0x498
 1466 051a 08       		.byte	0x8
 1467 051b 08       		.uleb128 0x8
 1468 051c 43495200 		.ascii	"CIR\000"
 1469 0520 09       		.byte	0x9
 1470 0521 6B02     		.2byte	0x26b
 1471 0523 98040000 		.4byte	0x498
 1472 0527 0C       		.byte	0xc
 1473 0528 09       		.uleb128 0x9
 1474 0529 1F0A0000 		.4byte	.LASF83
 1475 052d 09       		.byte	0x9
 1476 052e 6C02     		.2byte	0x26c
 1477 0530 98040000 		.4byte	0x498
 1478 0534 10       		.byte	0x10
 1479 0535 09       		.uleb128 0x9
 1480 0536 BC060000 		.4byte	.LASF84
 1481 053a 09       		.byte	0x9
ARM GAS  /tmp/cctz3RzG.s 			page 27


 1482 053b 6D02     		.2byte	0x26d
 1483 053d 98040000 		.4byte	0x498
 1484 0541 14       		.byte	0x14
 1485 0542 09       		.uleb128 0x9
 1486 0543 F3020000 		.4byte	.LASF85
 1487 0547 09       		.byte	0x9
 1488 0548 6E02     		.2byte	0x26e
 1489 054a 98040000 		.4byte	0x498
 1490 054e 18       		.byte	0x18
 1491 054f 09       		.uleb128 0x9
 1492 0550 2F070000 		.4byte	.LASF86
 1493 0554 09       		.byte	0x9
 1494 0555 6F02     		.2byte	0x26f
 1495 0557 D9000000 		.4byte	0xd9
 1496 055b 1C       		.byte	0x1c
 1497 055c 09       		.uleb128 0x9
 1498 055d 2E050000 		.4byte	.LASF87
 1499 0561 09       		.byte	0x9
 1500 0562 7002     		.2byte	0x270
 1501 0564 98040000 		.4byte	0x498
 1502 0568 20       		.byte	0x20
 1503 0569 09       		.uleb128 0x9
 1504 056a 5E000000 		.4byte	.LASF88
 1505 056e 09       		.byte	0x9
 1506 056f 7102     		.2byte	0x271
 1507 0571 98040000 		.4byte	0x498
 1508 0575 24       		.byte	0x24
 1509 0576 09       		.uleb128 0x9
 1510 0577 39070000 		.4byte	.LASF89
 1511 057b 09       		.byte	0x9
 1512 057c 7202     		.2byte	0x272
 1513 057e 9D040000 		.4byte	0x49d
 1514 0582 28       		.byte	0x28
 1515 0583 09       		.uleb128 0x9
 1516 0584 17020000 		.4byte	.LASF90
 1517 0588 09       		.byte	0x9
 1518 0589 7302     		.2byte	0x273
 1519 058b 98040000 		.4byte	0x498
 1520 058f 30       		.byte	0x30
 1521 0590 09       		.uleb128 0x9
 1522 0591 D3040000 		.4byte	.LASF91
 1523 0595 09       		.byte	0x9
 1524 0596 7402     		.2byte	0x274
 1525 0598 98040000 		.4byte	0x498
 1526 059c 34       		.byte	0x34
 1527 059d 09       		.uleb128 0x9
 1528 059e DB040000 		.4byte	.LASF92
 1529 05a2 09       		.byte	0x9
 1530 05a3 7502     		.2byte	0x275
 1531 05a5 98040000 		.4byte	0x498
 1532 05a9 38       		.byte	0x38
 1533 05aa 09       		.uleb128 0x9
 1534 05ab 43070000 		.4byte	.LASF93
 1535 05af 09       		.byte	0x9
 1536 05b0 7602     		.2byte	0x276
 1537 05b2 D9000000 		.4byte	0xd9
 1538 05b6 3C       		.byte	0x3c
ARM GAS  /tmp/cctz3RzG.s 			page 28


 1539 05b7 09       		.uleb128 0x9
 1540 05b8 0B000000 		.4byte	.LASF94
 1541 05bc 09       		.byte	0x9
 1542 05bd 7702     		.2byte	0x277
 1543 05bf 98040000 		.4byte	0x498
 1544 05c3 40       		.byte	0x40
 1545 05c4 09       		.uleb128 0x9
 1546 05c5 60060000 		.4byte	.LASF95
 1547 05c9 09       		.byte	0x9
 1548 05ca 7802     		.2byte	0x278
 1549 05cc 98040000 		.4byte	0x498
 1550 05d0 44       		.byte	0x44
 1551 05d1 09       		.uleb128 0x9
 1552 05d2 F9090000 		.4byte	.LASF96
 1553 05d6 09       		.byte	0x9
 1554 05d7 7902     		.2byte	0x279
 1555 05d9 9D040000 		.4byte	0x49d
 1556 05dd 48       		.byte	0x48
 1557 05de 09       		.uleb128 0x9
 1558 05df 87090000 		.4byte	.LASF97
 1559 05e3 09       		.byte	0x9
 1560 05e4 7A02     		.2byte	0x27a
 1561 05e6 98040000 		.4byte	0x498
 1562 05ea 50       		.byte	0x50
 1563 05eb 09       		.uleb128 0x9
 1564 05ec 8C010000 		.4byte	.LASF98
 1565 05f0 09       		.byte	0x9
 1566 05f1 7B02     		.2byte	0x27b
 1567 05f3 98040000 		.4byte	0x498
 1568 05f7 54       		.byte	0x54
 1569 05f8 09       		.uleb128 0x9
 1570 05f9 37080000 		.4byte	.LASF99
 1571 05fd 09       		.byte	0x9
 1572 05fe 7C02     		.2byte	0x27c
 1573 0600 98040000 		.4byte	0x498
 1574 0604 58       		.byte	0x58
 1575 0605 09       		.uleb128 0x9
 1576 0606 5B070000 		.4byte	.LASF100
 1577 060a 09       		.byte	0x9
 1578 060b 7D02     		.2byte	0x27d
 1579 060d D9000000 		.4byte	0xd9
 1580 0611 5C       		.byte	0x5c
 1581 0612 09       		.uleb128 0x9
 1582 0613 00060000 		.4byte	.LASF101
 1583 0617 09       		.byte	0x9
 1584 0618 7E02     		.2byte	0x27e
 1585 061a 98040000 		.4byte	0x498
 1586 061e 60       		.byte	0x60
 1587 061f 09       		.uleb128 0x9
 1588 0620 54000000 		.4byte	.LASF102
 1589 0624 09       		.byte	0x9
 1590 0625 7F02     		.2byte	0x27f
 1591 0627 98040000 		.4byte	0x498
 1592 062b 64       		.byte	0x64
 1593 062c 09       		.uleb128 0x9
 1594 062d 65070000 		.4byte	.LASF103
 1595 0631 09       		.byte	0x9
ARM GAS  /tmp/cctz3RzG.s 			page 29


 1596 0632 8002     		.2byte	0x280
 1597 0634 9D040000 		.4byte	0x49d
 1598 0638 68       		.byte	0x68
 1599 0639 09       		.uleb128 0x9
 1600 063a A5090000 		.4byte	.LASF104
 1601 063e 09       		.byte	0x9
 1602 063f 8102     		.2byte	0x281
 1603 0641 98040000 		.4byte	0x498
 1604 0645 70       		.byte	0x70
 1605 0646 08       		.uleb128 0x8
 1606 0647 43535200 		.ascii	"CSR\000"
 1607 064b 09       		.byte	0x9
 1608 064c 8202     		.2byte	0x282
 1609 064e 98040000 		.4byte	0x498
 1610 0652 74       		.byte	0x74
 1611 0653 09       		.uleb128 0x9
 1612 0654 6F070000 		.4byte	.LASF105
 1613 0658 09       		.byte	0x9
 1614 0659 8302     		.2byte	0x283
 1615 065b 9D040000 		.4byte	0x49d
 1616 065f 78       		.byte	0x78
 1617 0660 09       		.uleb128 0x9
 1618 0661 27020000 		.4byte	.LASF106
 1619 0665 09       		.byte	0x9
 1620 0666 8402     		.2byte	0x284
 1621 0668 98040000 		.4byte	0x498
 1622 066c 80       		.byte	0x80
 1623 066d 09       		.uleb128 0x9
 1624 066e C2080000 		.4byte	.LASF107
 1625 0672 09       		.byte	0x9
 1626 0673 8502     		.2byte	0x285
 1627 0675 98040000 		.4byte	0x498
 1628 0679 84       		.byte	0x84
 1629 067a 00       		.byte	0
 1630 067b 13       		.uleb128 0x13
 1631 067c F0000000 		.4byte	.LASF108
 1632 0680 09       		.byte	0x9
 1633 0681 8602     		.2byte	0x286
 1634 0683 EC040000 		.4byte	0x4ec
 1635 0687 12       		.uleb128 0x12
 1636 0688 A0       		.byte	0xa0
 1637 0689 09       		.byte	0x9
 1638 068a 8C02     		.2byte	0x28c
 1639 068c 96080000 		.4byte	0x896
 1640 0690 08       		.uleb128 0x8
 1641 0691 545200   		.ascii	"TR\000"
 1642 0694 09       		.byte	0x9
 1643 0695 8E02     		.2byte	0x28e
 1644 0697 98040000 		.4byte	0x498
 1645 069b 00       		.byte	0
 1646 069c 08       		.uleb128 0x8
 1647 069d 445200   		.ascii	"DR\000"
 1648 06a0 09       		.byte	0x9
 1649 06a1 8F02     		.2byte	0x28f
 1650 06a3 98040000 		.4byte	0x498
 1651 06a7 04       		.byte	0x4
 1652 06a8 08       		.uleb128 0x8
ARM GAS  /tmp/cctz3RzG.s 			page 30


 1653 06a9 435200   		.ascii	"CR\000"
 1654 06ac 09       		.byte	0x9
 1655 06ad 9002     		.2byte	0x290
 1656 06af 98040000 		.4byte	0x498
 1657 06b3 08       		.byte	0x8
 1658 06b4 08       		.uleb128 0x8
 1659 06b5 49535200 		.ascii	"ISR\000"
 1660 06b9 09       		.byte	0x9
 1661 06ba 9102     		.2byte	0x291
 1662 06bc 98040000 		.4byte	0x498
 1663 06c0 0C       		.byte	0xc
 1664 06c1 09       		.uleb128 0x9
 1665 06c2 2B090000 		.4byte	.LASF109
 1666 06c6 09       		.byte	0x9
 1667 06c7 9202     		.2byte	0x292
 1668 06c9 98040000 		.4byte	0x498
 1669 06cd 10       		.byte	0x10
 1670 06ce 09       		.uleb128 0x9
 1671 06cf 80000000 		.4byte	.LASF110
 1672 06d3 09       		.byte	0x9
 1673 06d4 9302     		.2byte	0x293
 1674 06d6 98040000 		.4byte	0x498
 1675 06da 14       		.byte	0x14
 1676 06db 09       		.uleb128 0x9
 1677 06dc FB040000 		.4byte	.LASF111
 1678 06e0 09       		.byte	0x9
 1679 06e1 9402     		.2byte	0x294
 1680 06e3 98040000 		.4byte	0x498
 1681 06e7 18       		.byte	0x18
 1682 06e8 09       		.uleb128 0x9
 1683 06e9 BD070000 		.4byte	.LASF112
 1684 06ed 09       		.byte	0x9
 1685 06ee 9502     		.2byte	0x295
 1686 06f0 98040000 		.4byte	0x498
 1687 06f4 1C       		.byte	0x1c
 1688 06f5 09       		.uleb128 0x9
 1689 06f6 1C070000 		.4byte	.LASF113
 1690 06fa 09       		.byte	0x9
 1691 06fb 9602     		.2byte	0x296
 1692 06fd 98040000 		.4byte	0x498
 1693 0701 20       		.byte	0x20
 1694 0702 08       		.uleb128 0x8
 1695 0703 57505200 		.ascii	"WPR\000"
 1696 0707 09       		.byte	0x9
 1697 0708 9702     		.2byte	0x297
 1698 070a 98040000 		.4byte	0x498
 1699 070e 24       		.byte	0x24
 1700 070f 08       		.uleb128 0x8
 1701 0710 53535200 		.ascii	"SSR\000"
 1702 0714 09       		.byte	0x9
 1703 0715 9802     		.2byte	0x298
 1704 0717 98040000 		.4byte	0x498
 1705 071b 28       		.byte	0x28
 1706 071c 09       		.uleb128 0x9
 1707 071d 46050000 		.4byte	.LASF114
 1708 0721 09       		.byte	0x9
 1709 0722 9902     		.2byte	0x299
ARM GAS  /tmp/cctz3RzG.s 			page 31


 1710 0724 98040000 		.4byte	0x498
 1711 0728 2C       		.byte	0x2c
 1712 0729 09       		.uleb128 0x9
 1713 072a 34060000 		.4byte	.LASF115
 1714 072e 09       		.byte	0x9
 1715 072f 9A02     		.2byte	0x29a
 1716 0731 98040000 		.4byte	0x498
 1717 0735 30       		.byte	0x30
 1718 0736 09       		.uleb128 0x9
 1719 0737 97040000 		.4byte	.LASF116
 1720 073b 09       		.byte	0x9
 1721 073c 9B02     		.2byte	0x29b
 1722 073e 98040000 		.4byte	0x498
 1723 0742 34       		.byte	0x34
 1724 0743 09       		.uleb128 0x9
 1725 0744 05000000 		.4byte	.LASF117
 1726 0748 09       		.byte	0x9
 1727 0749 9C02     		.2byte	0x29c
 1728 074b 98040000 		.4byte	0x498
 1729 074f 38       		.byte	0x38
 1730 0750 09       		.uleb128 0x9
 1731 0751 85000000 		.4byte	.LASF118
 1732 0755 09       		.byte	0x9
 1733 0756 9D02     		.2byte	0x29d
 1734 0758 98040000 		.4byte	0x498
 1735 075c 3C       		.byte	0x3c
 1736 075d 09       		.uleb128 0x9
 1737 075e E6070000 		.4byte	.LASF119
 1738 0762 09       		.byte	0x9
 1739 0763 9E02     		.2byte	0x29e
 1740 0765 98040000 		.4byte	0x498
 1741 0769 40       		.byte	0x40
 1742 076a 09       		.uleb128 0x9
 1743 076b C8010000 		.4byte	.LASF120
 1744 076f 09       		.byte	0x9
 1745 0770 9F02     		.2byte	0x29f
 1746 0772 98040000 		.4byte	0x498
 1747 0776 44       		.byte	0x44
 1748 0777 09       		.uleb128 0x9
 1749 0778 20080000 		.4byte	.LASF121
 1750 077c 09       		.byte	0x9
 1751 077d A002     		.2byte	0x2a0
 1752 077f 98040000 		.4byte	0x498
 1753 0783 48       		.byte	0x48
 1754 0784 09       		.uleb128 0x9
 1755 0785 79070000 		.4byte	.LASF122
 1756 0789 09       		.byte	0x9
 1757 078a A102     		.2byte	0x2a1
 1758 078c D9000000 		.4byte	0xd9
 1759 0790 4C       		.byte	0x4c
 1760 0791 09       		.uleb128 0x9
 1761 0792 C2010000 		.4byte	.LASF123
 1762 0796 09       		.byte	0x9
 1763 0797 A202     		.2byte	0x2a2
 1764 0799 98040000 		.4byte	0x498
 1765 079d 50       		.byte	0x50
 1766 079e 09       		.uleb128 0x9
ARM GAS  /tmp/cctz3RzG.s 			page 32


 1767 079f 87020000 		.4byte	.LASF124
 1768 07a3 09       		.byte	0x9
 1769 07a4 A302     		.2byte	0x2a3
 1770 07a6 98040000 		.4byte	0x498
 1771 07aa 54       		.byte	0x54
 1772 07ab 09       		.uleb128 0x9
 1773 07ac 4D030000 		.4byte	.LASF125
 1774 07b0 09       		.byte	0x9
 1775 07b1 A402     		.2byte	0x2a4
 1776 07b3 98040000 		.4byte	0x498
 1777 07b7 58       		.byte	0x58
 1778 07b8 09       		.uleb128 0x9
 1779 07b9 F5040000 		.4byte	.LASF126
 1780 07bd 09       		.byte	0x9
 1781 07be A502     		.2byte	0x2a5
 1782 07c0 98040000 		.4byte	0x498
 1783 07c4 5C       		.byte	0x5c
 1784 07c5 09       		.uleb128 0x9
 1785 07c6 9B050000 		.4byte	.LASF127
 1786 07ca 09       		.byte	0x9
 1787 07cb A602     		.2byte	0x2a6
 1788 07cd 98040000 		.4byte	0x498
 1789 07d1 60       		.byte	0x60
 1790 07d2 09       		.uleb128 0x9
 1791 07d3 10060000 		.4byte	.LASF128
 1792 07d7 09       		.byte	0x9
 1793 07d8 A702     		.2byte	0x2a7
 1794 07da 98040000 		.4byte	0x498
 1795 07de 64       		.byte	0x64
 1796 07df 09       		.uleb128 0x9
 1797 07e0 AA060000 		.4byte	.LASF129
 1798 07e4 09       		.byte	0x9
 1799 07e5 A802     		.2byte	0x2a8
 1800 07e7 98040000 		.4byte	0x498
 1801 07eb 68       		.byte	0x68
 1802 07ec 09       		.uleb128 0x9
 1803 07ed FD060000 		.4byte	.LASF130
 1804 07f1 09       		.byte	0x9
 1805 07f2 A902     		.2byte	0x2a9
 1806 07f4 98040000 		.4byte	0x498
 1807 07f8 6C       		.byte	0x6c
 1808 07f9 09       		.uleb128 0x9
 1809 07fa E0070000 		.4byte	.LASF131
 1810 07fe 09       		.byte	0x9
 1811 07ff AA02     		.2byte	0x2aa
 1812 0801 98040000 		.4byte	0x498
 1813 0805 70       		.byte	0x70
 1814 0806 09       		.uleb128 0x9
 1815 0807 31080000 		.4byte	.LASF132
 1816 080b 09       		.byte	0x9
 1817 080c AB02     		.2byte	0x2ab
 1818 080e 98040000 		.4byte	0x498
 1819 0812 74       		.byte	0x74
 1820 0813 09       		.uleb128 0x9
 1821 0814 E9000000 		.4byte	.LASF133
 1822 0818 09       		.byte	0x9
 1823 0819 AC02     		.2byte	0x2ac
ARM GAS  /tmp/cctz3RzG.s 			page 33


 1824 081b 98040000 		.4byte	0x498
 1825 081f 78       		.byte	0x78
 1826 0820 09       		.uleb128 0x9
 1827 0821 AB010000 		.4byte	.LASF134
 1828 0825 09       		.byte	0x9
 1829 0826 AD02     		.2byte	0x2ad
 1830 0828 98040000 		.4byte	0x498
 1831 082c 7C       		.byte	0x7c
 1832 082d 09       		.uleb128 0x9
 1833 082e 56020000 		.4byte	.LASF135
 1834 0832 09       		.byte	0x9
 1835 0833 AE02     		.2byte	0x2ae
 1836 0835 98040000 		.4byte	0x498
 1837 0839 80       		.byte	0x80
 1838 083a 09       		.uleb128 0x9
 1839 083b 31030000 		.4byte	.LASF136
 1840 083f 09       		.byte	0x9
 1841 0840 AF02     		.2byte	0x2af
 1842 0842 98040000 		.4byte	0x498
 1843 0846 84       		.byte	0x84
 1844 0847 09       		.uleb128 0x9
 1845 0848 C7040000 		.4byte	.LASF137
 1846 084c 09       		.byte	0x9
 1847 084d B002     		.2byte	0x2b0
 1848 084f 98040000 		.4byte	0x498
 1849 0853 88       		.byte	0x88
 1850 0854 09       		.uleb128 0x9
 1851 0855 6A050000 		.4byte	.LASF138
 1852 0859 09       		.byte	0x9
 1853 085a B102     		.2byte	0x2b1
 1854 085c 98040000 		.4byte	0x498
 1855 0860 8C       		.byte	0x8c
 1856 0861 09       		.uleb128 0x9
 1857 0862 ED050000 		.4byte	.LASF139
 1858 0866 09       		.byte	0x9
 1859 0867 B202     		.2byte	0x2b2
 1860 0869 98040000 		.4byte	0x498
 1861 086d 90       		.byte	0x90
 1862 086e 09       		.uleb128 0x9
 1863 086f 41060000 		.4byte	.LASF140
 1864 0873 09       		.byte	0x9
 1865 0874 B302     		.2byte	0x2b3
 1866 0876 98040000 		.4byte	0x498
 1867 087a 94       		.byte	0x94
 1868 087b 09       		.uleb128 0x9
 1869 087c 9A060000 		.4byte	.LASF141
 1870 0880 09       		.byte	0x9
 1871 0881 B402     		.2byte	0x2b4
 1872 0883 98040000 		.4byte	0x498
 1873 0887 98       		.byte	0x98
 1874 0888 09       		.uleb128 0x9
 1875 0889 B6070000 		.4byte	.LASF142
 1876 088d 09       		.byte	0x9
 1877 088e B502     		.2byte	0x2b5
 1878 0890 98040000 		.4byte	0x498
 1879 0894 9C       		.byte	0x9c
 1880 0895 00       		.byte	0
ARM GAS  /tmp/cctz3RzG.s 			page 34


 1881 0896 13       		.uleb128 0x13
 1882 0897 41030000 		.4byte	.LASF143
 1883 089b 09       		.byte	0x9
 1884 089c B602     		.2byte	0x2b6
 1885 089e 87060000 		.4byte	0x687
 1886 08a2 04       		.uleb128 0x4
 1887 08a3 4B000000 		.4byte	.LASF144
 1888 08a7 0A       		.byte	0xa
 1889 08a8 65       		.byte	0x65
 1890 08a9 46030000 		.4byte	0x346
 1891 08ad 04       		.uleb128 0x4
 1892 08ae CA090000 		.4byte	.LASF145
 1893 08b2 0A       		.byte	0xa
 1894 08b3 6D       		.byte	0x6d
 1895 08b4 EF000000 		.4byte	0xef
 1896 08b8 05       		.uleb128 0x5
 1897 08b9 14010000 		.4byte	.LASF146
 1898 08bd 04       		.byte	0x4
 1899 08be 0A       		.byte	0xa
 1900 08bf 89       		.byte	0x89
 1901 08c0 D0080000 		.4byte	0x8d0
 1902 08c4 07       		.uleb128 0x7
 1903 08c5 737000   		.ascii	"sp\000"
 1904 08c8 0A       		.byte	0xa
 1905 08c9 8A       		.byte	0x8a
 1906 08ca 1C0A0000 		.4byte	0xa1c
 1907 08ce 00       		.byte	0
 1908 08cf 00       		.byte	0
 1909 08d0 0B       		.uleb128 0xb
 1910 08d1 98070000 		.4byte	.LASF147
 1911 08d5 64       		.byte	0x64
 1912 08d6 0B       		.byte	0xb
 1913 08d7 5901     		.2byte	0x159
 1914 08d9 1C0A0000 		.4byte	0xa1c
 1915 08dd 08       		.uleb128 0x8
 1916 08de 73313600 		.ascii	"s16\000"
 1917 08e2 0B       		.byte	0xb
 1918 08e3 5B01     		.2byte	0x15b
 1919 08e5 A2080000 		.4byte	0x8a2
 1920 08e9 00       		.byte	0
 1921 08ea 08       		.uleb128 0x8
 1922 08eb 73313700 		.ascii	"s17\000"
 1923 08ef 0B       		.byte	0xb
 1924 08f0 5C01     		.2byte	0x15c
 1925 08f2 A2080000 		.4byte	0x8a2
 1926 08f6 04       		.byte	0x4
 1927 08f7 08       		.uleb128 0x8
 1928 08f8 73313800 		.ascii	"s18\000"
 1929 08fc 0B       		.byte	0xb
 1930 08fd 5D01     		.2byte	0x15d
 1931 08ff A2080000 		.4byte	0x8a2
 1932 0903 08       		.byte	0x8
 1933 0904 08       		.uleb128 0x8
 1934 0905 73313900 		.ascii	"s19\000"
 1935 0909 0B       		.byte	0xb
 1936 090a 5E01     		.2byte	0x15e
 1937 090c A2080000 		.4byte	0x8a2
ARM GAS  /tmp/cctz3RzG.s 			page 35


 1938 0910 0C       		.byte	0xc
 1939 0911 08       		.uleb128 0x8
 1940 0912 73323000 		.ascii	"s20\000"
 1941 0916 0B       		.byte	0xb
 1942 0917 5F01     		.2byte	0x15f
 1943 0919 A2080000 		.4byte	0x8a2
 1944 091d 10       		.byte	0x10
 1945 091e 08       		.uleb128 0x8
 1946 091f 73323100 		.ascii	"s21\000"
 1947 0923 0B       		.byte	0xb
 1948 0924 6001     		.2byte	0x160
 1949 0926 A2080000 		.4byte	0x8a2
 1950 092a 14       		.byte	0x14
 1951 092b 08       		.uleb128 0x8
 1952 092c 73323200 		.ascii	"s22\000"
 1953 0930 0B       		.byte	0xb
 1954 0931 6101     		.2byte	0x161
 1955 0933 A2080000 		.4byte	0x8a2
 1956 0937 18       		.byte	0x18
 1957 0938 08       		.uleb128 0x8
 1958 0939 73323300 		.ascii	"s23\000"
 1959 093d 0B       		.byte	0xb
 1960 093e 6201     		.2byte	0x162
 1961 0940 A2080000 		.4byte	0x8a2
 1962 0944 1C       		.byte	0x1c
 1963 0945 08       		.uleb128 0x8
 1964 0946 73323400 		.ascii	"s24\000"
 1965 094a 0B       		.byte	0xb
 1966 094b 6301     		.2byte	0x163
 1967 094d A2080000 		.4byte	0x8a2
 1968 0951 20       		.byte	0x20
 1969 0952 08       		.uleb128 0x8
 1970 0953 73323500 		.ascii	"s25\000"
 1971 0957 0B       		.byte	0xb
 1972 0958 6401     		.2byte	0x164
 1973 095a A2080000 		.4byte	0x8a2
 1974 095e 24       		.byte	0x24
 1975 095f 08       		.uleb128 0x8
 1976 0960 73323600 		.ascii	"s26\000"
 1977 0964 0B       		.byte	0xb
 1978 0965 6501     		.2byte	0x165
 1979 0967 A2080000 		.4byte	0x8a2
 1980 096b 28       		.byte	0x28
 1981 096c 08       		.uleb128 0x8
 1982 096d 73323700 		.ascii	"s27\000"
 1983 0971 0B       		.byte	0xb
 1984 0972 6601     		.2byte	0x166
 1985 0974 A2080000 		.4byte	0x8a2
 1986 0978 2C       		.byte	0x2c
 1987 0979 08       		.uleb128 0x8
 1988 097a 73323800 		.ascii	"s28\000"
 1989 097e 0B       		.byte	0xb
 1990 097f 6701     		.2byte	0x167
 1991 0981 A2080000 		.4byte	0x8a2
 1992 0985 30       		.byte	0x30
 1993 0986 08       		.uleb128 0x8
 1994 0987 73323900 		.ascii	"s29\000"
ARM GAS  /tmp/cctz3RzG.s 			page 36


 1995 098b 0B       		.byte	0xb
 1996 098c 6801     		.2byte	0x168
 1997 098e A2080000 		.4byte	0x8a2
 1998 0992 34       		.byte	0x34
 1999 0993 08       		.uleb128 0x8
 2000 0994 73333000 		.ascii	"s30\000"
 2001 0998 0B       		.byte	0xb
 2002 0999 6901     		.2byte	0x169
 2003 099b A2080000 		.4byte	0x8a2
 2004 099f 38       		.byte	0x38
 2005 09a0 08       		.uleb128 0x8
 2006 09a1 73333100 		.ascii	"s31\000"
 2007 09a5 0B       		.byte	0xb
 2008 09a6 6A01     		.2byte	0x16a
 2009 09a8 A2080000 		.4byte	0x8a2
 2010 09ac 3C       		.byte	0x3c
 2011 09ad 08       		.uleb128 0x8
 2012 09ae 723400   		.ascii	"r4\000"
 2013 09b1 0B       		.byte	0xb
 2014 09b2 6C01     		.2byte	0x16c
 2015 09b4 A2080000 		.4byte	0x8a2
 2016 09b8 40       		.byte	0x40
 2017 09b9 08       		.uleb128 0x8
 2018 09ba 723500   		.ascii	"r5\000"
 2019 09bd 0B       		.byte	0xb
 2020 09be 6D01     		.2byte	0x16d
 2021 09c0 A2080000 		.4byte	0x8a2
 2022 09c4 44       		.byte	0x44
 2023 09c5 08       		.uleb128 0x8
 2024 09c6 723600   		.ascii	"r6\000"
 2025 09c9 0B       		.byte	0xb
 2026 09ca 6E01     		.2byte	0x16e
 2027 09cc A2080000 		.4byte	0x8a2
 2028 09d0 48       		.byte	0x48
 2029 09d1 08       		.uleb128 0x8
 2030 09d2 723700   		.ascii	"r7\000"
 2031 09d5 0B       		.byte	0xb
 2032 09d6 6F01     		.2byte	0x16f
 2033 09d8 A2080000 		.4byte	0x8a2
 2034 09dc 4C       		.byte	0x4c
 2035 09dd 08       		.uleb128 0x8
 2036 09de 723800   		.ascii	"r8\000"
 2037 09e1 0B       		.byte	0xb
 2038 09e2 7001     		.2byte	0x170
 2039 09e4 A2080000 		.4byte	0x8a2
 2040 09e8 50       		.byte	0x50
 2041 09e9 08       		.uleb128 0x8
 2042 09ea 723900   		.ascii	"r9\000"
 2043 09ed 0B       		.byte	0xb
 2044 09ee 7101     		.2byte	0x171
 2045 09f0 A2080000 		.4byte	0x8a2
 2046 09f4 54       		.byte	0x54
 2047 09f5 08       		.uleb128 0x8
 2048 09f6 72313000 		.ascii	"r10\000"
 2049 09fa 0B       		.byte	0xb
 2050 09fb 7201     		.2byte	0x172
 2051 09fd A2080000 		.4byte	0x8a2
ARM GAS  /tmp/cctz3RzG.s 			page 37


 2052 0a01 58       		.byte	0x58
 2053 0a02 08       		.uleb128 0x8
 2054 0a03 72313100 		.ascii	"r11\000"
 2055 0a07 0B       		.byte	0xb
 2056 0a08 7301     		.2byte	0x173
 2057 0a0a A2080000 		.4byte	0x8a2
 2058 0a0e 5C       		.byte	0x5c
 2059 0a0f 08       		.uleb128 0x8
 2060 0a10 6C7200   		.ascii	"lr\000"
 2061 0a13 0B       		.byte	0xb
 2062 0a14 7401     		.2byte	0x174
 2063 0a16 A2080000 		.4byte	0x8a2
 2064 0a1a 60       		.byte	0x60
 2065 0a1b 00       		.byte	0
 2066 0a1c 0A       		.uleb128 0xa
 2067 0a1d 04       		.byte	0x4
 2068 0a1e D0080000 		.4byte	0x8d0
 2069 0a22 12       		.uleb128 0x12
 2070 0a23 60       		.byte	0x60
 2071 0a24 0C       		.byte	0xc
 2072 0a25 F501     		.2byte	0x1f5
 2073 0a27 2E0B0000 		.4byte	0xb2e
 2074 0a2b 08       		.uleb128 0x8
 2075 0a2c 43523100 		.ascii	"CR1\000"
 2076 0a30 0C       		.byte	0xc
 2077 0a31 F601     		.2byte	0x1f6
 2078 0a33 98040000 		.4byte	0x498
 2079 0a37 00       		.byte	0
 2080 0a38 08       		.uleb128 0x8
 2081 0a39 43523200 		.ascii	"CR2\000"
 2082 0a3d 0C       		.byte	0xc
 2083 0a3e F701     		.2byte	0x1f7
 2084 0a40 98040000 		.4byte	0x498
 2085 0a44 04       		.byte	0x4
 2086 0a45 09       		.uleb128 0x9
 2087 0a46 B2050000 		.4byte	.LASF148
 2088 0a4a 0C       		.byte	0xc
 2089 0a4b F801     		.2byte	0x1f8
 2090 0a4d 98040000 		.4byte	0x498
 2091 0a51 08       		.byte	0x8
 2092 0a52 09       		.uleb128 0x9
 2093 0a53 C2040000 		.4byte	.LASF149
 2094 0a57 0C       		.byte	0xc
 2095 0a58 F901     		.2byte	0x1f9
 2096 0a5a 98040000 		.4byte	0x498
 2097 0a5e 0C       		.byte	0xc
 2098 0a5f 08       		.uleb128 0x8
 2099 0a60 535200   		.ascii	"SR\000"
 2100 0a63 0C       		.byte	0xc
 2101 0a64 FA01     		.2byte	0x1fa
 2102 0a66 98040000 		.4byte	0x498
 2103 0a6a 10       		.byte	0x10
 2104 0a6b 08       		.uleb128 0x8
 2105 0a6c 45475200 		.ascii	"EGR\000"
 2106 0a70 0C       		.byte	0xc
 2107 0a71 FB01     		.2byte	0x1fb
 2108 0a73 98040000 		.4byte	0x498
ARM GAS  /tmp/cctz3RzG.s 			page 38


 2109 0a77 14       		.byte	0x14
 2110 0a78 09       		.uleb128 0x9
 2111 0a79 44020000 		.4byte	.LASF150
 2112 0a7d 0C       		.byte	0xc
 2113 0a7e FC01     		.2byte	0x1fc
 2114 0a80 98040000 		.4byte	0x498
 2115 0a84 18       		.byte	0x18
 2116 0a85 09       		.uleb128 0x9
 2117 0a86 4A020000 		.4byte	.LASF151
 2118 0a8a 0C       		.byte	0xc
 2119 0a8b FD01     		.2byte	0x1fd
 2120 0a8d 98040000 		.4byte	0x498
 2121 0a91 1C       		.byte	0x1c
 2122 0a92 09       		.uleb128 0x9
 2123 0a93 3C050000 		.4byte	.LASF152
 2124 0a97 0C       		.byte	0xc
 2125 0a98 FE01     		.2byte	0x1fe
 2126 0a9a 98040000 		.4byte	0x498
 2127 0a9e 20       		.byte	0x20
 2128 0a9f 08       		.uleb128 0x8
 2129 0aa0 434E5400 		.ascii	"CNT\000"
 2130 0aa4 0C       		.byte	0xc
 2131 0aa5 FF01     		.2byte	0x1ff
 2132 0aa7 98040000 		.4byte	0x498
 2133 0aab 24       		.byte	0x24
 2134 0aac 08       		.uleb128 0x8
 2135 0aad 50534300 		.ascii	"PSC\000"
 2136 0ab1 0C       		.byte	0xc
 2137 0ab2 0002     		.2byte	0x200
 2138 0ab4 98040000 		.4byte	0x498
 2139 0ab8 28       		.byte	0x28
 2140 0ab9 08       		.uleb128 0x8
 2141 0aba 41525200 		.ascii	"ARR\000"
 2142 0abe 0C       		.byte	0xc
 2143 0abf 0102     		.2byte	0x201
 2144 0ac1 98040000 		.4byte	0x498
 2145 0ac5 2C       		.byte	0x2c
 2146 0ac6 08       		.uleb128 0x8
 2147 0ac7 52435200 		.ascii	"RCR\000"
 2148 0acb 0C       		.byte	0xc
 2149 0acc 0202     		.2byte	0x202
 2150 0ace 98040000 		.4byte	0x498
 2151 0ad2 30       		.byte	0x30
 2152 0ad3 08       		.uleb128 0x8
 2153 0ad4 43435200 		.ascii	"CCR\000"
 2154 0ad8 0C       		.byte	0xc
 2155 0ad9 0302     		.2byte	0x203
 2156 0adb 2E0B0000 		.4byte	0xb2e
 2157 0adf 34       		.byte	0x34
 2158 0ae0 09       		.uleb128 0x9
 2159 0ae1 F8010000 		.4byte	.LASF153
 2160 0ae5 0C       		.byte	0xc
 2161 0ae6 0402     		.2byte	0x204
 2162 0ae8 98040000 		.4byte	0x498
 2163 0aec 44       		.byte	0x44
 2164 0aed 08       		.uleb128 0x8
 2165 0aee 44435200 		.ascii	"DCR\000"
ARM GAS  /tmp/cctz3RzG.s 			page 39


 2166 0af2 0C       		.byte	0xc
 2167 0af3 0502     		.2byte	0x205
 2168 0af5 98040000 		.4byte	0x498
 2169 0af9 48       		.byte	0x48
 2170 0afa 09       		.uleb128 0x9
 2171 0afb 96010000 		.4byte	.LASF154
 2172 0aff 0C       		.byte	0xc
 2173 0b00 0602     		.2byte	0x206
 2174 0b02 98040000 		.4byte	0x498
 2175 0b06 4C       		.byte	0x4c
 2176 0b07 08       		.uleb128 0x8
 2177 0b08 4F5200   		.ascii	"OR\000"
 2178 0b0b 0C       		.byte	0xc
 2179 0b0c 0702     		.2byte	0x207
 2180 0b0e 98040000 		.4byte	0x498
 2181 0b12 50       		.byte	0x50
 2182 0b13 09       		.uleb128 0x9
 2183 0b14 50020000 		.4byte	.LASF155
 2184 0b18 0C       		.byte	0xc
 2185 0b19 0802     		.2byte	0x208
 2186 0b1b 98040000 		.4byte	0x498
 2187 0b1f 54       		.byte	0x54
 2188 0b20 09       		.uleb128 0x9
 2189 0b21 B1070000 		.4byte	.LASF156
 2190 0b25 0C       		.byte	0xc
 2191 0b26 0902     		.2byte	0x209
 2192 0b28 330B0000 		.4byte	0xb33
 2193 0b2c 58       		.byte	0x58
 2194 0b2d 00       		.byte	0
 2195 0b2e 0F       		.uleb128 0xf
 2196 0b2f AD040000 		.4byte	0x4ad
 2197 0b33 0F       		.uleb128 0xf
 2198 0b34 9D040000 		.4byte	0x49d
 2199 0b38 13       		.uleb128 0x13
 2200 0b39 5F040000 		.4byte	.LASF157
 2201 0b3d 0C       		.byte	0xc
 2202 0b3e 0A02     		.2byte	0x20a
 2203 0b40 220A0000 		.4byte	0xa22
 2204 0b44 14       		.uleb128 0x14
 2205 0b45 04       		.byte	0x4
 2206 0b46 0D       		.byte	0xd
 2207 0b47 38       		.byte	0x38
 2208 0b48 590B0000 		.4byte	0xb59
 2209 0b4c 06       		.uleb128 0x6
 2210 0b4d 69030000 		.4byte	.LASF158
 2211 0b51 0D       		.byte	0xd
 2212 0b52 3C       		.byte	0x3c
 2213 0b53 FA000000 		.4byte	0xfa
 2214 0b57 00       		.byte	0
 2215 0b58 00       		.byte	0
 2216 0b59 04       		.uleb128 0x4
 2217 0b5a 1A000000 		.4byte	.LASF159
 2218 0b5e 0D       		.byte	0xd
 2219 0b5f 3D       		.byte	0x3d
 2220 0b60 440B0000 		.4byte	0xb44
 2221 0b64 14       		.uleb128 0x14
 2222 0b65 18       		.byte	0x18
ARM GAS  /tmp/cctz3RzG.s 			page 40


 2223 0b66 0D       		.byte	0xd
 2224 0b67 48       		.byte	0x48
 2225 0b68 A70B0000 		.4byte	0xba7
 2226 0b6c 06       		.uleb128 0x6
 2227 0b6d CD080000 		.4byte	.LASF160
 2228 0b71 0D       		.byte	0xd
 2229 0b72 49       		.byte	0x49
 2230 0b73 FA000000 		.4byte	0xfa
 2231 0b77 00       		.byte	0
 2232 0b78 06       		.uleb128 0x6
 2233 0b79 DA020000 		.4byte	.LASF161
 2234 0b7d 0D       		.byte	0xd
 2235 0b7e 4A       		.byte	0x4a
 2236 0b7f FA000000 		.4byte	0xfa
 2237 0b83 04       		.byte	0x4
 2238 0b84 06       		.uleb128 0x6
 2239 0b85 CE040000 		.4byte	.LASF162
 2240 0b89 0D       		.byte	0xd
 2241 0b8a 4B       		.byte	0x4b
 2242 0b8b FA000000 		.4byte	0xfa
 2243 0b8f 08       		.byte	0x8
 2244 0b90 07       		.uleb128 0x7
 2245 0b91 6E00     		.ascii	"n\000"
 2246 0b93 0D       		.byte	0xd
 2247 0b94 4C       		.byte	0x4c
 2248 0b95 5D010000 		.4byte	0x15d
 2249 0b99 0C       		.byte	0xc
 2250 0b9a 06       		.uleb128 0x6
 2251 0b9b BF000000 		.4byte	.LASF163
 2252 0b9f 0D       		.byte	0xd
 2253 0ba0 4D       		.byte	0x4d
 2254 0ba1 05010000 		.4byte	0x105
 2255 0ba5 10       		.byte	0x10
 2256 0ba6 00       		.byte	0
 2257 0ba7 04       		.uleb128 0x4
 2258 0ba8 1B050000 		.4byte	.LASF164
 2259 0bac 0D       		.byte	0xd
 2260 0bad 4E       		.byte	0x4e
 2261 0bae 640B0000 		.4byte	0xb64
 2262 0bb2 14       		.uleb128 0x14
 2263 0bb3 38       		.byte	0x38
 2264 0bb4 0E       		.byte	0xe
 2265 0bb5 38       		.byte	0x38
 2266 0bb6 EB0B0000 		.4byte	0xbeb
 2267 0bba 06       		.uleb128 0x6
 2268 0bbb 16070000 		.4byte	.LASF165
 2269 0bbf 0E       		.byte	0xe
 2270 0bc0 39       		.byte	0x39
 2271 0bc1 5D010000 		.4byte	0x15d
 2272 0bc5 00       		.byte	0
 2273 0bc6 06       		.uleb128 0x6
 2274 0bc7 48060000 		.4byte	.LASF166
 2275 0bcb 0E       		.byte	0xe
 2276 0bcc 3A       		.byte	0x3a
 2277 0bcd 5D010000 		.4byte	0x15d
 2278 0bd1 04       		.byte	0x4
 2279 0bd2 06       		.uleb128 0x6
ARM GAS  /tmp/cctz3RzG.s 			page 41


 2280 0bd3 CE070000 		.4byte	.LASF167
 2281 0bd7 0E       		.byte	0xe
 2282 0bd8 3B       		.byte	0x3b
 2283 0bd9 A70B0000 		.4byte	0xba7
 2284 0bdd 08       		.byte	0x8
 2285 0bde 06       		.uleb128 0x6
 2286 0bdf A5000000 		.4byte	.LASF168
 2287 0be3 0E       		.byte	0xe
 2288 0be4 3D       		.byte	0x3d
 2289 0be5 A70B0000 		.4byte	0xba7
 2290 0be9 20       		.byte	0x20
 2291 0bea 00       		.byte	0
 2292 0beb 04       		.uleb128 0x4
 2293 0bec E2010000 		.4byte	.LASF169
 2294 0bf0 0E       		.byte	0xe
 2295 0bf1 3F       		.byte	0x3f
 2296 0bf2 B20B0000 		.4byte	0xbb2
 2297 0bf6 15       		.uleb128 0x15
 2298 0bf7 04       		.byte	0x4
 2299 0bf8 07       		.byte	0x7
 2300 0bf9 C6       		.byte	0xc6
 2301 0bfa 580C0000 		.4byte	0xc58
 2302 0bfe 16       		.uleb128 0x16
 2303 0bff 5A030000 		.4byte	.LASF170
 2304 0c03 07       		.byte	0x7
 2305 0c04 CD       		.byte	0xcd
 2306 0c05 3C010000 		.4byte	0x13c
 2307 0c09 16       		.uleb128 0x16
 2308 0c0a 160A0000 		.4byte	.LASF171
 2309 0c0e 07       		.byte	0x7
 2310 0c0f D4       		.byte	0xd4
 2311 0c10 3C010000 		.4byte	0x13c
 2312 0c14 16       		.uleb128 0x16
 2313 0c15 A4010000 		.4byte	.LASF172
 2314 0c19 07       		.byte	0x7
 2315 0c1a DB       		.byte	0xdb
 2316 0c1b 46030000 		.4byte	0x346
 2317 0c1f 16       		.uleb128 0x16
 2318 0c20 0A0A0000 		.4byte	.LASF173
 2319 0c24 07       		.byte	0x7
 2320 0c25 E2       		.byte	0xe2
 2321 0c26 580C0000 		.4byte	0xc58
 2322 0c2a 16       		.uleb128 0x16
 2323 0c2b DA010000 		.4byte	.LASF174
 2324 0c2f 07       		.byte	0x7
 2325 0c30 E7       		.byte	0xe7
 2326 0c31 3C010000 		.4byte	0x13c
 2327 0c35 16       		.uleb128 0x16
 2328 0c36 97080000 		.4byte	.LASF175
 2329 0c3a 07       		.byte	0x7
 2330 0c3b F0       		.byte	0xf0
 2331 0c3c 830C0000 		.4byte	0xc83
 2332 0c40 16       		.uleb128 0x16
 2333 0c41 13000000 		.4byte	.LASF176
 2334 0c45 07       		.byte	0x7
 2335 0c46 F9       		.byte	0xf9
 2336 0c47 BA0C0000 		.4byte	0xcba
ARM GAS  /tmp/cctz3RzG.s 			page 42


 2337 0c4b 17       		.uleb128 0x17
 2338 0c4c 80010000 		.4byte	.LASF177
 2339 0c50 07       		.byte	0x7
 2340 0c51 0101     		.2byte	0x101
 2341 0c53 47010000 		.4byte	0x147
 2342 0c57 00       		.byte	0
 2343 0c58 0A       		.uleb128 0xa
 2344 0c59 04       		.byte	0x4
 2345 0c5a 5E020000 		.4byte	0x25e
 2346 0c5e 05       		.uleb128 0x5
 2347 0c5f 0A020000 		.4byte	.LASF178
 2348 0c63 0C       		.byte	0xc
 2349 0c64 0F       		.byte	0xf
 2350 0c65 34       		.byte	0x34
 2351 0c66 830C0000 		.4byte	0xc83
 2352 0c6a 06       		.uleb128 0x6
 2353 0c6b 84080000 		.4byte	.LASF33
 2354 0c6f 0F       		.byte	0xf
 2355 0c70 35       		.byte	0x35
 2356 0c71 93020000 		.4byte	0x293
 2357 0c75 00       		.byte	0
 2358 0c76 07       		.uleb128 0x7
 2359 0c77 636E7400 		.ascii	"cnt\000"
 2360 0c7b 0F       		.byte	0xf
 2361 0c7c 37       		.byte	0x37
 2362 0c7d 52010000 		.4byte	0x152
 2363 0c81 08       		.byte	0x8
 2364 0c82 00       		.byte	0
 2365 0c83 0A       		.uleb128 0xa
 2366 0c84 04       		.byte	0x4
 2367 0c85 5E0C0000 		.4byte	0xc5e
 2368 0c89 05       		.uleb128 0x5
 2369 0c8a B9040000 		.4byte	.LASF179
 2370 0c8e 10       		.byte	0x10
 2371 0c8f 10       		.byte	0x10
 2372 0c90 39       		.byte	0x39
 2373 0c91 BA0C0000 		.4byte	0xcba
 2374 0c95 06       		.uleb128 0x6
 2375 0c96 84080000 		.4byte	.LASF33
 2376 0c9a 10       		.byte	0x10
 2377 0c9b 3A       		.byte	0x3a
 2378 0c9c 93020000 		.4byte	0x293
 2379 0ca0 00       		.byte	0
 2380 0ca1 06       		.uleb128 0x6
 2381 0ca2 ED020000 		.4byte	.LASF180
 2382 0ca6 10       		.byte	0x10
 2383 0ca7 3C       		.byte	0x3c
 2384 0ca8 69020000 		.4byte	0x269
 2385 0cac 08       		.byte	0x8
 2386 0cad 06       		.uleb128 0x6
 2387 0cae A0000000 		.4byte	.LASF53
 2388 0cb2 10       		.byte	0x10
 2389 0cb3 3E       		.byte	0x3e
 2390 0cb4 EE0C0000 		.4byte	0xcee
 2391 0cb8 0C       		.byte	0xc
 2392 0cb9 00       		.byte	0
 2393 0cba 0A       		.uleb128 0xa
ARM GAS  /tmp/cctz3RzG.s 			page 43


 2394 0cbb 04       		.byte	0x4
 2395 0cbc 890C0000 		.4byte	0xc89
 2396 0cc0 0A       		.uleb128 0xa
 2397 0cc1 04       		.byte	0x4
 2398 0cc2 C60C0000 		.4byte	0xcc6
 2399 0cc6 18       		.uleb128 0x18
 2400 0cc7 CB0C0000 		.4byte	0xccb
 2401 0ccb 02       		.uleb128 0x2
 2402 0ccc 01       		.byte	0x1
 2403 0ccd 08       		.byte	0x8
 2404 0cce 41050000 		.4byte	.LASF181
 2405 0cd2 0A       		.uleb128 0xa
 2406 0cd3 04       		.byte	0x4
 2407 0cd4 AD080000 		.4byte	0x8ad
 2408 0cd8 0A       		.uleb128 0xa
 2409 0cd9 04       		.byte	0x4
 2410 0cda 48030000 		.4byte	0x348
 2411 0cde 0F       		.uleb128 0xf
 2412 0cdf C00C0000 		.4byte	0xcc0
 2413 0ce3 04       		.uleb128 0x4
 2414 0ce4 A5080000 		.4byte	.LASF182
 2415 0ce8 10       		.byte	0x10
 2416 0ce9 34       		.byte	0x34
 2417 0cea 890C0000 		.4byte	0xc89
 2418 0cee 0A       		.uleb128 0xa
 2419 0cef 04       		.byte	0x4
 2420 0cf0 E30C0000 		.4byte	0xce3
 2421 0cf4 02       		.uleb128 0x2
 2422 0cf5 01       		.byte	0x1
 2423 0cf6 02       		.byte	0x2
 2424 0cf7 9C040000 		.4byte	.LASF183
 2425 0cfb 14       		.uleb128 0x14
 2426 0cfc 04       		.byte	0x4
 2427 0cfd 11       		.byte	0x11
 2428 0cfe 5B       		.byte	0x5b
 2429 0cff 1C0D0000 		.4byte	0xd1c
 2430 0d03 07       		.uleb128 0x7
 2431 0d04 73657400 		.ascii	"set\000"
 2432 0d08 11       		.byte	0x11
 2433 0d09 5C       		.byte	0x5c
 2434 0d0a C3000000 		.4byte	0xc3
 2435 0d0e 00       		.byte	0
 2436 0d0f 06       		.uleb128 0x6
 2437 0d10 0C030000 		.4byte	.LASF184
 2438 0d14 11       		.byte	0x11
 2439 0d15 5D       		.byte	0x5d
 2440 0d16 C3000000 		.4byte	0xc3
 2441 0d1a 02       		.byte	0x2
 2442 0d1b 00       		.byte	0
 2443 0d1c 15       		.uleb128 0x15
 2444 0d1d 04       		.byte	0x4
 2445 0d1e 11       		.byte	0x11
 2446 0d1f 59       		.byte	0x59
 2447 0d20 370D0000 		.4byte	0xd37
 2448 0d24 19       		.uleb128 0x19
 2449 0d25 5700     		.ascii	"W\000"
 2450 0d27 11       		.byte	0x11
ARM GAS  /tmp/cctz3RzG.s 			page 44


 2451 0d28 5A       		.byte	0x5a
 2452 0d29 D9000000 		.4byte	0xd9
 2453 0d2d 19       		.uleb128 0x19
 2454 0d2e 4800     		.ascii	"H\000"
 2455 0d30 11       		.byte	0x11
 2456 0d31 5E       		.byte	0x5e
 2457 0d32 FB0C0000 		.4byte	0xcfb
 2458 0d36 00       		.byte	0
 2459 0d37 14       		.uleb128 0x14
 2460 0d38 28       		.byte	0x28
 2461 0d39 11       		.byte	0x11
 2462 0d3a 51       		.byte	0x51
 2463 0d3b B80D0000 		.4byte	0xdb8
 2464 0d3f 06       		.uleb128 0x6
 2465 0d40 CF020000 		.4byte	.LASF185
 2466 0d44 11       		.byte	0x11
 2467 0d45 53       		.byte	0x53
 2468 0d46 98040000 		.4byte	0x498
 2469 0d4a 00       		.byte	0
 2470 0d4b 06       		.uleb128 0x6
 2471 0d4c D9070000 		.4byte	.LASF186
 2472 0d50 11       		.byte	0x11
 2473 0d51 54       		.byte	0x54
 2474 0d52 98040000 		.4byte	0x498
 2475 0d56 04       		.byte	0x4
 2476 0d57 06       		.uleb128 0x6
 2477 0d58 82060000 		.4byte	.LASF187
 2478 0d5c 11       		.byte	0x11
 2479 0d5d 55       		.byte	0x55
 2480 0d5e 98040000 		.4byte	0x498
 2481 0d62 08       		.byte	0x8
 2482 0d63 06       		.uleb128 0x6
 2483 0d64 15050000 		.4byte	.LASF188
 2484 0d68 11       		.byte	0x11
 2485 0d69 56       		.byte	0x56
 2486 0d6a 98040000 		.4byte	0x498
 2487 0d6e 0C       		.byte	0xc
 2488 0d6f 07       		.uleb128 0x7
 2489 0d70 49445200 		.ascii	"IDR\000"
 2490 0d74 11       		.byte	0x11
 2491 0d75 57       		.byte	0x57
 2492 0d76 98040000 		.4byte	0x498
 2493 0d7a 10       		.byte	0x10
 2494 0d7b 07       		.uleb128 0x7
 2495 0d7c 4F445200 		.ascii	"ODR\000"
 2496 0d80 11       		.byte	0x11
 2497 0d81 58       		.byte	0x58
 2498 0d82 98040000 		.4byte	0x498
 2499 0d86 14       		.byte	0x14
 2500 0d87 06       		.uleb128 0x6
 2501 0d88 00000000 		.4byte	.LASF189
 2502 0d8c 11       		.byte	0x11
 2503 0d8d 5F       		.byte	0x5f
 2504 0d8e B80D0000 		.4byte	0xdb8
 2505 0d92 18       		.byte	0x18
 2506 0d93 06       		.uleb128 0x6
 2507 0d94 94060000 		.4byte	.LASF190
ARM GAS  /tmp/cctz3RzG.s 			page 45


 2508 0d98 11       		.byte	0x11
 2509 0d99 60       		.byte	0x60
 2510 0d9a 98040000 		.4byte	0x498
 2511 0d9e 1C       		.byte	0x1c
 2512 0d9f 06       		.uleb128 0x6
 2513 0da0 E6080000 		.4byte	.LASF191
 2514 0da4 11       		.byte	0x11
 2515 0da5 61       		.byte	0x61
 2516 0da6 98040000 		.4byte	0x498
 2517 0daa 20       		.byte	0x20
 2518 0dab 06       		.uleb128 0x6
 2519 0dac D5020000 		.4byte	.LASF192
 2520 0db0 11       		.byte	0x11
 2521 0db1 62       		.byte	0x62
 2522 0db2 98040000 		.4byte	0x498
 2523 0db6 24       		.byte	0x24
 2524 0db7 00       		.byte	0
 2525 0db8 0F       		.uleb128 0xf
 2526 0db9 1C0D0000 		.4byte	0xd1c
 2527 0dbd 04       		.uleb128 0x4
 2528 0dbe E0020000 		.4byte	.LASF193
 2529 0dc2 11       		.byte	0x11
 2530 0dc3 63       		.byte	0x63
 2531 0dc4 370D0000 		.4byte	0xd37
 2532 0dc8 04       		.uleb128 0x4
 2533 0dc9 7E090000 		.4byte	.LASF194
 2534 0dcd 12       		.byte	0x12
 2535 0dce C7       		.byte	0xc7
 2536 0dcf D9000000 		.4byte	0xd9
 2537 0dd3 04       		.uleb128 0x4
 2538 0dd4 FC000000 		.4byte	.LASF195
 2539 0dd8 12       		.byte	0x12
 2540 0dd9 CC       		.byte	0xcc
 2541 0dda D9000000 		.4byte	0xd9
 2542 0dde 04       		.uleb128 0x4
 2543 0ddf E3040000 		.4byte	.LASF196
 2544 0de3 12       		.byte	0x12
 2545 0de4 D9       		.byte	0xd9
 2546 0de5 E90D0000 		.4byte	0xde9
 2547 0de9 0A       		.uleb128 0xa
 2548 0dea 04       		.byte	0x4
 2549 0deb BD0D0000 		.4byte	0xdbd
 2550 0def 0A       		.uleb128 0xa
 2551 0df0 04       		.byte	0x4
 2552 0df1 380B0000 		.4byte	0xb38
 2553 0df5 1A       		.uleb128 0x1a
 2554 0df6 AA040000 		.4byte	.LASF236
 2555 0dfa 04       		.byte	0x4
 2556 0dfb 13       		.byte	0x13
 2557 0dfc 39       		.byte	0x39
 2558 0dfd 1C0E0000 		.4byte	0xe1c
 2559 0e01 1B       		.uleb128 0x1b
 2560 0e02 3E000000 		.4byte	.LASF197
 2561 0e06 00       		.sleb128 0
 2562 0e07 1B       		.uleb128 0x1b
 2563 0e08 4E090000 		.4byte	.LASF198
 2564 0e0c 81809C80 		.sleb128 2953248769
ARM GAS  /tmp/cctz3RzG.s 			page 46


 2564      0B
 2565 0e11 1B       		.uleb128 0x1b
 2566 0e12 16060000 		.4byte	.LASF199
 2567 0e16 82809C80 		.sleb128 2953248770
 2567      0B
 2568 0e1b 00       		.byte	0
 2569 0e1c 05       		.uleb128 0x5
 2570 0e1d EE040000 		.4byte	.LASF200
 2571 0e21 06       		.byte	0x6
 2572 0e22 01       		.byte	0x1
 2573 0e23 75       		.byte	0x75
 2574 0e24 710E0000 		.4byte	0xe71
 2575 0e28 06       		.uleb128 0x6
 2576 0e29 71050000 		.4byte	.LASF201
 2577 0e2d 01       		.byte	0x1
 2578 0e2e 76       		.byte	0x76
 2579 0e2f B8000000 		.4byte	0xb8
 2580 0e33 00       		.byte	0
 2581 0e34 06       		.uleb128 0x6
 2582 0e35 F1010000 		.4byte	.LASF202
 2583 0e39 01       		.byte	0x1
 2584 0e3a 77       		.byte	0x77
 2585 0e3b B8000000 		.4byte	0xb8
 2586 0e3f 01       		.byte	0x1
 2587 0e40 06       		.uleb128 0x6
 2588 0e41 0C010000 		.4byte	.LASF203
 2589 0e45 01       		.byte	0x1
 2590 0e46 78       		.byte	0x78
 2591 0e47 B8000000 		.4byte	0xb8
 2592 0e4b 02       		.byte	0x2
 2593 0e4c 06       		.uleb128 0x6
 2594 0e4d 91090000 		.4byte	.LASF204
 2595 0e51 01       		.byte	0x1
 2596 0e52 79       		.byte	0x79
 2597 0e53 B8000000 		.4byte	0xb8
 2598 0e57 03       		.byte	0x3
 2599 0e58 06       		.uleb128 0x6
 2600 0e59 9E080000 		.4byte	.LASF205
 2601 0e5d 01       		.byte	0x1
 2602 0e5e 7A       		.byte	0x7a
 2603 0e5f B8000000 		.4byte	0xb8
 2604 0e63 04       		.byte	0x4
 2605 0e64 06       		.uleb128 0x6
 2606 0e65 C3090000 		.4byte	.LASF206
 2607 0e69 01       		.byte	0x1
 2608 0e6a 7B       		.byte	0x7b
 2609 0e6b B8000000 		.4byte	0xb8
 2610 0e6f 05       		.byte	0x5
 2611 0e70 00       		.byte	0
 2612 0e71 1C       		.uleb128 0x1c
 2613 0e72 6A020000 		.4byte	.LASF209
 2614 0e76 01       		.byte	0x1
 2615 0e77 1C       		.byte	0x1c
 2616 0e78 00000000 		.4byte	.LFB323
 2617 0e7c 30000000 		.4byte	.LFE323-.LFB323
 2618 0e80 01       		.uleb128 0x1
 2619 0e81 9C       		.byte	0x9c
ARM GAS  /tmp/cctz3RzG.s 			page 47


 2620 0e82 B00E0000 		.4byte	0xeb0
 2621 0e86 1D       		.uleb128 0x1d
 2622 0e87 74696D00 		.ascii	"tim\000"
 2623 0e8b 01       		.byte	0x1
 2624 0e8c 1C       		.byte	0x1c
 2625 0e8d EF0D0000 		.4byte	0xdef
 2626 0e91 01       		.uleb128 0x1
 2627 0e92 50       		.byte	0x50
 2628 0e93 1E       		.uleb128 0x1e
 2629 0e94 F5060000 		.4byte	.LASF207
 2630 0e98 01       		.byte	0x1
 2631 0e99 1C       		.byte	0x1c
 2632 0e9a B8000000 		.4byte	0xb8
 2633 0e9e 01       		.uleb128 0x1
 2634 0e9f 51       		.byte	0x51
 2635 0ea0 1F       		.uleb128 0x1f
 2636 0ea1 B0060000 		.4byte	.LASF208
 2637 0ea5 01       		.byte	0x1
 2638 0ea6 1C       		.byte	0x1c
 2639 0ea7 B8000000 		.4byte	0xb8
 2640 0eab 00000000 		.4byte	.LLST0
 2641 0eaf 00       		.byte	0
 2642 0eb0 1C       		.uleb128 0x1c
 2643 0eb1 03090000 		.4byte	.LASF210
 2644 0eb5 01       		.byte	0x1
 2645 0eb6 31       		.byte	0x31
 2646 0eb7 00000000 		.4byte	.LFB324
 2647 0ebb 8A000000 		.4byte	.LFE324-.LFB324
 2648 0ebf 01       		.uleb128 0x1
 2649 0ec0 9C       		.byte	0x9c
 2650 0ec1 EF0E0000 		.4byte	0xeef
 2651 0ec5 1D       		.uleb128 0x1d
 2652 0ec6 74696D00 		.ascii	"tim\000"
 2653 0eca 01       		.byte	0x1
 2654 0ecb 31       		.byte	0x31
 2655 0ecc EF0D0000 		.4byte	0xdef
 2656 0ed0 01       		.uleb128 0x1
 2657 0ed1 50       		.byte	0x50
 2658 0ed2 1E       		.uleb128 0x1e
 2659 0ed3 F5060000 		.4byte	.LASF207
 2660 0ed7 01       		.byte	0x1
 2661 0ed8 31       		.byte	0x31
 2662 0ed9 B8000000 		.4byte	0xb8
 2663 0edd 01       		.uleb128 0x1
 2664 0ede 51       		.byte	0x51
 2665 0edf 1F       		.uleb128 0x1f
 2666 0ee0 5D050000 		.4byte	.LASF211
 2667 0ee4 01       		.byte	0x1
 2668 0ee5 31       		.byte	0x31
 2669 0ee6 B8000000 		.4byte	0xb8
 2670 0eea 6C000000 		.4byte	.LLST1
 2671 0eee 00       		.byte	0
 2672 0eef 1C       		.uleb128 0x1c
 2673 0ef0 03070000 		.4byte	.LASF212
 2674 0ef4 01       		.byte	0x1
 2675 0ef5 65       		.byte	0x65
 2676 0ef6 00000000 		.4byte	.LFB325
ARM GAS  /tmp/cctz3RzG.s 			page 48


 2677 0efa 24000000 		.4byte	.LFE325-.LFB325
 2678 0efe 01       		.uleb128 0x1
 2679 0eff 9C       		.byte	0x9c
 2680 0f00 2F0F0000 		.4byte	0xf2f
 2681 0f04 1F       		.uleb128 0x1f
 2682 0f05 4D070000 		.4byte	.LASF213
 2683 0f09 01       		.byte	0x1
 2684 0f0a 65       		.byte	0x65
 2685 0f0b EF000000 		.4byte	0xef
 2686 0f0f D8000000 		.4byte	.LLST2
 2687 0f13 20       		.uleb128 0x20
 2688 0f14 6E6F7700 		.ascii	"now\000"
 2689 0f18 01       		.byte	0x1
 2690 0f19 67       		.byte	0x67
 2691 0f1a EF000000 		.4byte	0xef
 2692 0f1e 06       		.uleb128 0x6
 2693 0f1f 50       		.byte	0x50
 2694 0f20 93       		.byte	0x93
 2695 0f21 04       		.uleb128 0x4
 2696 0f22 51       		.byte	0x51
 2697 0f23 93       		.byte	0x93
 2698 0f24 04       		.uleb128 0x4
 2699 0f25 21       		.uleb128 0x21
 2700 0f26 0A000000 		.4byte	.LVL17
 2701 0f2a 83120000 		.4byte	0x1283
 2702 0f2e 00       		.byte	0
 2703 0f2f 22       		.uleb128 0x22
 2704 0f30 02050000 		.4byte	.LASF219
 2705 0f34 01       		.byte	0x1
 2706 0f35 70       		.byte	0x70
 2707 0f36 EF000000 		.4byte	0xef
 2708 0f3a 00000000 		.4byte	.LFB326
 2709 0f3e 18000000 		.4byte	.LFE326-.LFB326
 2710 0f42 01       		.uleb128 0x1
 2711 0f43 9C       		.byte	0x9c
 2712 0f44 520F0000 		.4byte	0xf52
 2713 0f48 21       		.uleb128 0x21
 2714 0f49 06000000 		.4byte	.LVL18
 2715 0f4d 83120000 		.4byte	0x1283
 2716 0f51 00       		.byte	0
 2717 0f52 23       		.uleb128 0x23
 2718 0f53 C5060000 		.4byte	.LASF237
 2719 0f57 01       		.byte	0x1
 2720 0f58 90       		.byte	0x90
 2721 0f59 01       		.byte	0x1
 2722 0f5a A80F0000 		.4byte	0xfa8
 2723 0f5e 24       		.uleb128 0x24
 2724 0f5f 39060000 		.4byte	.LASF214
 2725 0f63 01       		.byte	0x1
 2726 0f64 90       		.byte	0x90
 2727 0f65 EF000000 		.4byte	0xef
 2728 0f69 25       		.uleb128 0x25
 2729 0f6a 746D00   		.ascii	"tm\000"
 2730 0f6d 01       		.byte	0x1
 2731 0f6e 90       		.byte	0x90
 2732 0f6f A80F0000 		.4byte	0xfa8
 2733 0f73 26       		.uleb128 0x26
ARM GAS  /tmp/cctz3RzG.s 			page 49


 2734 0f74 030A0000 		.4byte	.LASF215
 2735 0f78 01       		.byte	0x1
 2736 0f79 92       		.byte	0x92
 2737 0f7a D9000000 		.4byte	0xd9
 2738 0f7e 26       		.uleb128 0x26
 2739 0f7f 60080000 		.4byte	.LASF216
 2740 0f83 01       		.byte	0x1
 2741 0f84 93       		.byte	0x93
 2742 0f85 D9000000 		.4byte	0xd9
 2743 0f89 27       		.uleb128 0x27
 2744 0f8a 9A0F0000 		.4byte	0xf9a
 2745 0f8e 26       		.uleb128 0x26
 2746 0f8f EF090000 		.4byte	.LASF217
 2747 0f93 01       		.byte	0x1
 2748 0f94 A2       		.byte	0xa2
 2749 0f95 3E000000 		.4byte	0x3e
 2750 0f99 00       		.byte	0
 2751 0f9a 28       		.uleb128 0x28
 2752 0f9b 26       		.uleb128 0x26
 2753 0f9c C1050000 		.4byte	.LASF218
 2754 0fa0 01       		.byte	0x1
 2755 0fa1 AC       		.byte	0xac
 2756 0fa2 3E000000 		.4byte	0x3e
 2757 0fa6 00       		.byte	0
 2758 0fa7 00       		.byte	0
 2759 0fa8 0A       		.uleb128 0xa
 2760 0fa9 04       		.byte	0x4
 2761 0faa 1C0E0000 		.4byte	0xe1c
 2762 0fae 29       		.uleb128 0x29
 2763 0faf A2040000 		.4byte	.LASF238
 2764 0fb3 01       		.byte	0x1
 2765 0fb4 82       		.byte	0x82
 2766 0fb5 F40C0000 		.4byte	0xcf4
 2767 0fb9 01       		.byte	0x1
 2768 0fba C80F0000 		.4byte	0xfc8
 2769 0fbe 25       		.uleb128 0x25
 2770 0fbf 7900     		.ascii	"y\000"
 2771 0fc1 01       		.byte	0x1
 2772 0fc2 82       		.byte	0x82
 2773 0fc3 D9000000 		.4byte	0xd9
 2774 0fc7 00       		.byte	0
 2775 0fc8 2A       		.uleb128 0x2a
 2776 0fc9 23070000 		.4byte	.LASF220
 2777 0fcd 01       		.byte	0x1
 2778 0fce BC       		.byte	0xbc
 2779 0fcf D9000000 		.4byte	0xd9
 2780 0fd3 00000000 		.4byte	.LFB329
 2781 0fd7 38010000 		.4byte	.LFE329-.LFB329
 2782 0fdb 01       		.uleb128 0x1
 2783 0fdc 9C       		.byte	0x9c
 2784 0fdd A6100000 		.4byte	0x10a6
 2785 0fe1 2B       		.uleb128 0x2b
 2786 0fe2 39010000 		.4byte	.LASF221
 2787 0fe6 01       		.byte	0x1
 2788 0fe7 C2       		.byte	0xc2
 2789 0fe8 EF000000 		.4byte	0xef
 2790 0fec 00010000 		.4byte	.LLST3
ARM GAS  /tmp/cctz3RzG.s 			page 50


 2791 0ff0 2B       		.uleb128 0x2b
 2792 0ff1 39060000 		.4byte	.LASF214
 2793 0ff5 01       		.byte	0x1
 2794 0ff6 C3       		.byte	0xc3
 2795 0ff7 EF000000 		.4byte	0xef
 2796 0ffb 18010000 		.4byte	.LLST4
 2797 0fff 20       		.uleb128 0x20
 2798 1000 746D00   		.ascii	"tm\000"
 2799 1003 01       		.byte	0x1
 2800 1004 C4       		.byte	0xc4
 2801 1005 1C0E0000 		.4byte	0xe1c
 2802 1009 02       		.uleb128 0x2
 2803 100a 91       		.byte	0x91
 2804 100b 58       		.sleb128 -40
 2805 100c 2B       		.uleb128 0x2b
 2806 100d 29080000 		.4byte	.LASF222
 2807 1011 01       		.byte	0x1
 2808 1012 C8       		.byte	0xc8
 2809 1013 D9000000 		.4byte	0xd9
 2810 1017 30010000 		.4byte	.LLST5
 2811 101b 2C       		.uleb128 0x2c
 2812 101c 520F0000 		.4byte	0xf52
 2813 1020 16000000 		.4byte	.LBB8
 2814 1024 00000000 		.4byte	.Ldebug_ranges0+0
 2815 1028 01       		.byte	0x1
 2816 1029 C6       		.byte	0xc6
 2817 102a 9C100000 		.4byte	0x109c
 2818 102e 2D       		.uleb128 0x2d
 2819 102f 690F0000 		.4byte	0xf69
 2820 1033 6A010000 		.4byte	.LLST6
 2821 1037 2D       		.uleb128 0x2d
 2822 1038 5E0F0000 		.4byte	0xf5e
 2823 103c 18010000 		.4byte	.LLST4
 2824 1040 2E       		.uleb128 0x2e
 2825 1041 00000000 		.4byte	.Ldebug_ranges0+0
 2826 1045 2F       		.uleb128 0x2f
 2827 1046 730F0000 		.4byte	0xf73
 2828 104a 7D010000 		.4byte	.LLST8
 2829 104e 2F       		.uleb128 0x2f
 2830 104f 7E0F0000 		.4byte	0xf7e
 2831 1053 9B010000 		.4byte	.LLST9
 2832 1057 30       		.uleb128 0x30
 2833 1058 70000000 		.4byte	.LBB10
 2834 105c 60000000 		.4byte	.LBE10-.LBB10
 2835 1060 87100000 		.4byte	0x1087
 2836 1064 2F       		.uleb128 0x2f
 2837 1065 8E0F0000 		.4byte	0xf8e
 2838 1069 C6010000 		.4byte	.LLST10
 2839 106d 31       		.uleb128 0x31
 2840 106e AE0F0000 		.4byte	0xfae
 2841 1072 70000000 		.4byte	.LBB11
 2842 1076 20000000 		.4byte	.Ldebug_ranges0+0x20
 2843 107a 01       		.byte	0x1
 2844 107b A2       		.byte	0xa2
 2845 107c 2D       		.uleb128 0x2d
 2846 107d BE0F0000 		.4byte	0xfbe
 2847 1081 D9010000 		.4byte	.LLST11
ARM GAS  /tmp/cctz3RzG.s 			page 51


 2848 1085 00       		.byte	0
 2849 1086 00       		.byte	0
 2850 1087 32       		.uleb128 0x32
 2851 1088 D0000000 		.4byte	.LBB15
 2852 108c 18000000 		.4byte	.LBE15-.LBB15
 2853 1090 2F       		.uleb128 0x2f
 2854 1091 9B0F0000 		.4byte	0xf9b
 2855 1095 23020000 		.4byte	.LLST12
 2856 1099 00       		.byte	0
 2857 109a 00       		.byte	0
 2858 109b 00       		.byte	0
 2859 109c 21       		.uleb128 0x21
 2860 109d 14000000 		.4byte	.LVL19
 2861 10a1 2F0F0000 		.4byte	0xf2f
 2862 10a5 00       		.byte	0
 2863 10a6 1C       		.uleb128 0x1c
 2864 10a7 B3080000 		.4byte	.LASF223
 2865 10ab 01       		.byte	0x1
 2866 10ac D7       		.byte	0xd7
 2867 10ad 00000000 		.4byte	.LFB330
 2868 10b1 20000000 		.4byte	.LFE330-.LFB330
 2869 10b5 01       		.uleb128 0x1
 2870 10b6 9C       		.byte	0x9c
 2871 10b7 E5100000 		.4byte	0x10e5
 2872 10bb 33       		.uleb128 0x33
 2873 10bc 69647800 		.ascii	"idx\000"
 2874 10c0 01       		.byte	0x1
 2875 10c1 D7       		.byte	0xd7
 2876 10c2 B8000000 		.4byte	0xb8
 2877 10c6 36020000 		.4byte	.LLST13
 2878 10ca 33       		.uleb128 0x33
 2879 10cb 7600     		.ascii	"v\000"
 2880 10cd 01       		.byte	0x1
 2881 10ce D7       		.byte	0xd7
 2882 10cf E5100000 		.4byte	0x10e5
 2883 10d3 6A020000 		.4byte	.LLST14
 2884 10d7 33       		.uleb128 0x33
 2885 10d8 6E00     		.ascii	"n\000"
 2886 10da 01       		.byte	0x1
 2887 10db D7       		.byte	0xd7
 2888 10dc B8000000 		.4byte	0xb8
 2889 10e0 A0020000 		.4byte	.LLST15
 2890 10e4 00       		.byte	0
 2891 10e5 0A       		.uleb128 0xa
 2892 10e6 04       		.byte	0x4
 2893 10e7 D9000000 		.4byte	0xd9
 2894 10eb 1C       		.uleb128 0x1c
 2895 10ec 51060000 		.4byte	.LASF224
 2896 10f0 01       		.byte	0x1
 2897 10f1 DF       		.byte	0xdf
 2898 10f2 00000000 		.4byte	.LFB331
 2899 10f6 50000000 		.4byte	.LFE331-.LFB331
 2900 10fa 01       		.uleb128 0x1
 2901 10fb 9C       		.byte	0x9c
 2902 10fc 2A110000 		.4byte	0x112a
 2903 1100 33       		.uleb128 0x33
 2904 1101 69647800 		.ascii	"idx\000"
ARM GAS  /tmp/cctz3RzG.s 			page 52


 2905 1105 01       		.byte	0x1
 2906 1106 DF       		.byte	0xdf
 2907 1107 B8000000 		.4byte	0xb8
 2908 110b C1020000 		.4byte	.LLST16
 2909 110f 33       		.uleb128 0x33
 2910 1110 7600     		.ascii	"v\000"
 2911 1112 01       		.byte	0x1
 2912 1113 DF       		.byte	0xdf
 2913 1114 2A110000 		.4byte	0x112a
 2914 1118 F5020000 		.4byte	.LLST17
 2915 111c 33       		.uleb128 0x33
 2916 111d 6E00     		.ascii	"n\000"
 2917 111f 01       		.byte	0x1
 2918 1120 DF       		.byte	0xdf
 2919 1121 B8000000 		.4byte	0xb8
 2920 1125 2B030000 		.4byte	.LLST18
 2921 1129 00       		.byte	0
 2922 112a 0A       		.uleb128 0xa
 2923 112b 04       		.byte	0x4
 2924 112c 30110000 		.4byte	0x1130
 2925 1130 18       		.uleb128 0x18
 2926 1131 D9000000 		.4byte	0xd9
 2927 1135 22       		.uleb128 0x22
 2928 1136 D5090000 		.4byte	.LASF225
 2929 113a 01       		.byte	0x1
 2930 113b F0       		.byte	0xf0
 2931 113c F50D0000 		.4byte	0xdf5
 2932 1140 00000000 		.4byte	.LFB332
 2933 1144 14000000 		.4byte	.LFE332-.LFB332
 2934 1148 01       		.uleb128 0x1
 2935 1149 9C       		.byte	0x9c
 2936 114a 75110000 		.4byte	0x1175
 2937 114e 20       		.uleb128 0x20
 2938 114f 7600     		.ascii	"v\000"
 2939 1151 01       		.byte	0x1
 2940 1152 F2       		.byte	0xf2
 2941 1153 D9000000 		.4byte	0xd9
 2942 1157 02       		.uleb128 0x2
 2943 1158 91       		.byte	0x91
 2944 1159 74       		.sleb128 -12
 2945 115a 34       		.uleb128 0x34
 2946 115b 0C000000 		.4byte	.LVL53
 2947 115f A6100000 		.4byte	0x10a6
 2948 1163 35       		.uleb128 0x35
 2949 1164 01       		.uleb128 0x1
 2950 1165 52       		.byte	0x52
 2951 1166 01       		.uleb128 0x1
 2952 1167 31       		.byte	0x31
 2953 1168 35       		.uleb128 0x35
 2954 1169 01       		.uleb128 0x1
 2955 116a 51       		.byte	0x51
 2956 116b 02       		.uleb128 0x2
 2957 116c 91       		.byte	0x91
 2958 116d 74       		.sleb128 -12
 2959 116e 35       		.uleb128 0x35
 2960 116f 01       		.uleb128 0x1
 2961 1170 50       		.byte	0x50
ARM GAS  /tmp/cctz3RzG.s 			page 53


 2962 1171 01       		.uleb128 0x1
 2963 1172 30       		.byte	0x30
 2964 1173 00       		.byte	0
 2965 1174 00       		.byte	0
 2966 1175 1C       		.uleb128 0x1c
 2967 1176 9E020000 		.4byte	.LASF226
 2968 117a 01       		.byte	0x1
 2969 117b F8       		.byte	0xf8
 2970 117c 00000000 		.4byte	.LFB333
 2971 1180 16000000 		.4byte	.LFE333-.LFB333
 2972 1184 01       		.uleb128 0x1
 2973 1185 9C       		.byte	0x9c
 2974 1186 BF110000 		.4byte	0x11bf
 2975 118a 33       		.uleb128 0x33
 2976 118b 7600     		.ascii	"v\000"
 2977 118d 01       		.byte	0x1
 2978 118e F8       		.byte	0xf8
 2979 118f F50D0000 		.4byte	0xdf5
 2980 1193 4C030000 		.4byte	.LLST19
 2981 1197 20       		.uleb128 0x20
 2982 1198 767600   		.ascii	"vv\000"
 2983 119b 01       		.byte	0x1
 2984 119c FA       		.byte	0xfa
 2985 119d D9000000 		.4byte	0xd9
 2986 11a1 02       		.uleb128 0x2
 2987 11a2 91       		.byte	0x91
 2988 11a3 74       		.sleb128 -12
 2989 11a4 34       		.uleb128 0x34
 2990 11a5 10000000 		.4byte	.LVL56
 2991 11a9 EB100000 		.4byte	0x10eb
 2992 11ad 35       		.uleb128 0x35
 2993 11ae 01       		.uleb128 0x1
 2994 11af 52       		.byte	0x52
 2995 11b0 01       		.uleb128 0x1
 2996 11b1 31       		.byte	0x31
 2997 11b2 35       		.uleb128 0x35
 2998 11b3 01       		.uleb128 0x1
 2999 11b4 51       		.byte	0x51
 3000 11b5 02       		.uleb128 0x2
 3001 11b6 91       		.byte	0x91
 3002 11b7 74       		.sleb128 -12
 3003 11b8 35       		.uleb128 0x35
 3004 11b9 01       		.uleb128 0x1
 3005 11ba 50       		.byte	0x50
 3006 11bb 01       		.uleb128 0x1
 3007 11bc 30       		.byte	0x30
 3008 11bd 00       		.byte	0
 3009 11be 00       		.byte	0
 3010 11bf 36       		.uleb128 0x36
 3011 11c0 36090000 		.4byte	.LASF239
 3012 11c4 01       		.byte	0x1
 3013 11c5 1101     		.2byte	0x111
 3014 11c7 00000000 		.4byte	.LFB334
 3015 11cb 02000000 		.4byte	.LFE334-.LFB334
 3016 11cf 01       		.uleb128 0x1
 3017 11d0 9C       		.byte	0x9c
 3018 11d1 37       		.uleb128 0x37
ARM GAS  /tmp/cctz3RzG.s 			page 54


 3019 11d2 CA000000 		.4byte	.LASF227
 3020 11d6 01       		.byte	0x1
 3021 11d7 3A01     		.2byte	0x13a
 3022 11d9 C80D0000 		.4byte	0xdc8
 3023 11dd 00000000 		.4byte	.LFB335
 3024 11e1 58000000 		.4byte	.LFE335-.LFB335
 3025 11e5 01       		.uleb128 0x1
 3026 11e6 9C       		.byte	0x9c
 3027 11e7 2A120000 		.4byte	0x122a
 3028 11eb 38       		.uleb128 0x38
 3029 11ec FE080000 		.4byte	.LASF228
 3030 11f0 01       		.byte	0x1
 3031 11f1 3A01     		.2byte	0x13a
 3032 11f3 D30D0000 		.4byte	0xdd3
 3033 11f7 79030000 		.4byte	.LLST20
 3034 11fb 39       		.uleb128 0x39
 3035 11fc 92080000 		.4byte	.LASF229
 3036 1200 01       		.byte	0x1
 3037 1201 3C01     		.2byte	0x13c
 3038 1203 DE0D0000 		.4byte	0xdde
 3039 1207 01       		.uleb128 0x1
 3040 1208 55       		.byte	0x55
 3041 1209 3A       		.uleb128 0x3a
 3042 120a 70616400 		.ascii	"pad\000"
 3043 120e 01       		.byte	0x1
 3044 120f 3D01     		.2byte	0x13d
 3045 1211 B8000000 		.4byte	0xb8
 3046 1215 9A030000 		.4byte	.LLST21
 3047 1219 3A       		.uleb128 0x3a
 3048 121a 72657400 		.ascii	"ret\000"
 3049 121e 01       		.byte	0x1
 3050 121f 3E01     		.2byte	0x13e
 3051 1221 C80D0000 		.4byte	0xdc8
 3052 1225 BD030000 		.4byte	.LLST22
 3053 1229 00       		.byte	0
 3054 122a 3B       		.uleb128 0x3b
 3055 122b 5C090000 		.4byte	.LASF230
 3056 122f 01       		.byte	0x1
 3057 1230 17       		.byte	0x17
 3058 1231 E4000000 		.4byte	0xe4
 3059 1235 05       		.uleb128 0x5
 3060 1236 03       		.byte	0x3
 3061 1237 00000000 		.4byte	utc_time_offset
 3062 123b 10       		.uleb128 0x10
 3063 123c B8000000 		.4byte	0xb8
 3064 1240 51120000 		.4byte	0x1251
 3065 1244 11       		.uleb128 0x11
 3066 1245 91040000 		.4byte	0x491
 3067 1249 01       		.byte	0x1
 3068 124a 11       		.uleb128 0x11
 3069 124b 91040000 		.4byte	0x491
 3070 124f 0B       		.byte	0xb
 3071 1250 00       		.byte	0
 3072 1251 3B       		.uleb128 0x3b
 3073 1252 E0080000 		.4byte	.LASF231
 3074 1256 01       		.byte	0x1
 3075 1257 88       		.byte	0x88
ARM GAS  /tmp/cctz3RzG.s 			page 55


 3076 1258 62120000 		.4byte	0x1262
 3077 125c 05       		.uleb128 0x5
 3078 125d 03       		.byte	0x3
 3079 125e 00000000 		.4byte	ndays
 3080 1262 18       		.uleb128 0x18
 3081 1263 3B120000 		.4byte	0x123b
 3082 1267 3C       		.uleb128 0x3c
 3083 1268 A4070000 		.4byte	.LASF232
 3084 126c 14       		.byte	0x14
 3085 126d 0408     		.2byte	0x804
 3086 126f 73120000 		.4byte	0x1273
 3087 1273 0F       		.uleb128 0xf
 3088 1274 CE000000 		.4byte	0xce
 3089 1278 3D       		.uleb128 0x3d
 3090 1279 636800   		.ascii	"ch\000"
 3091 127c 07       		.byte	0x7
 3092 127d C701     		.2byte	0x1c7
 3093 127f 15040000 		.4byte	0x415
 3094 1283 3E       		.uleb128 0x3e
 3095 1284 5D020000 		.4byte	.LASF240
 3096 1288 15       		.byte	0x15
 3097 1289 08       		.byte	0x8
 3098 128a EF000000 		.4byte	0xef
 3099 128e 00       		.byte	0
 3100              		.section	.debug_abbrev,"",%progbits
 3101              	.Ldebug_abbrev0:
 3102 0000 01       		.uleb128 0x1
 3103 0001 11       		.uleb128 0x11
 3104 0002 01       		.byte	0x1
 3105 0003 25       		.uleb128 0x25
 3106 0004 0E       		.uleb128 0xe
 3107 0005 13       		.uleb128 0x13
 3108 0006 0B       		.uleb128 0xb
 3109 0007 03       		.uleb128 0x3
 3110 0008 0E       		.uleb128 0xe
 3111 0009 1B       		.uleb128 0x1b
 3112 000a 0E       		.uleb128 0xe
 3113 000b 55       		.uleb128 0x55
 3114 000c 17       		.uleb128 0x17
 3115 000d 11       		.uleb128 0x11
 3116 000e 01       		.uleb128 0x1
 3117 000f 10       		.uleb128 0x10
 3118 0010 17       		.uleb128 0x17
 3119 0011 00       		.byte	0
 3120 0012 00       		.byte	0
 3121 0013 02       		.uleb128 0x2
 3122 0014 24       		.uleb128 0x24
 3123 0015 00       		.byte	0
 3124 0016 0B       		.uleb128 0xb
 3125 0017 0B       		.uleb128 0xb
 3126 0018 3E       		.uleb128 0x3e
 3127 0019 0B       		.uleb128 0xb
 3128 001a 03       		.uleb128 0x3
 3129 001b 0E       		.uleb128 0xe
 3130 001c 00       		.byte	0
 3131 001d 00       		.byte	0
 3132 001e 03       		.uleb128 0x3
ARM GAS  /tmp/cctz3RzG.s 			page 56


 3133 001f 24       		.uleb128 0x24
 3134 0020 00       		.byte	0
 3135 0021 0B       		.uleb128 0xb
 3136 0022 0B       		.uleb128 0xb
 3137 0023 3E       		.uleb128 0x3e
 3138 0024 0B       		.uleb128 0xb
 3139 0025 03       		.uleb128 0x3
 3140 0026 08       		.uleb128 0x8
 3141 0027 00       		.byte	0
 3142 0028 00       		.byte	0
 3143 0029 04       		.uleb128 0x4
 3144 002a 16       		.uleb128 0x16
 3145 002b 00       		.byte	0
 3146 002c 03       		.uleb128 0x3
 3147 002d 0E       		.uleb128 0xe
 3148 002e 3A       		.uleb128 0x3a
 3149 002f 0B       		.uleb128 0xb
 3150 0030 3B       		.uleb128 0x3b
 3151 0031 0B       		.uleb128 0xb
 3152 0032 49       		.uleb128 0x49
 3153 0033 13       		.uleb128 0x13
 3154 0034 00       		.byte	0
 3155 0035 00       		.byte	0
 3156 0036 05       		.uleb128 0x5
 3157 0037 13       		.uleb128 0x13
 3158 0038 01       		.byte	0x1
 3159 0039 03       		.uleb128 0x3
 3160 003a 0E       		.uleb128 0xe
 3161 003b 0B       		.uleb128 0xb
 3162 003c 0B       		.uleb128 0xb
 3163 003d 3A       		.uleb128 0x3a
 3164 003e 0B       		.uleb128 0xb
 3165 003f 3B       		.uleb128 0x3b
 3166 0040 0B       		.uleb128 0xb
 3167 0041 01       		.uleb128 0x1
 3168 0042 13       		.uleb128 0x13
 3169 0043 00       		.byte	0
 3170 0044 00       		.byte	0
 3171 0045 06       		.uleb128 0x6
 3172 0046 0D       		.uleb128 0xd
 3173 0047 00       		.byte	0
 3174 0048 03       		.uleb128 0x3
 3175 0049 0E       		.uleb128 0xe
 3176 004a 3A       		.uleb128 0x3a
 3177 004b 0B       		.uleb128 0xb
 3178 004c 3B       		.uleb128 0x3b
 3179 004d 0B       		.uleb128 0xb
 3180 004e 49       		.uleb128 0x49
 3181 004f 13       		.uleb128 0x13
 3182 0050 38       		.uleb128 0x38
 3183 0051 0B       		.uleb128 0xb
 3184 0052 00       		.byte	0
 3185 0053 00       		.byte	0
 3186 0054 07       		.uleb128 0x7
 3187 0055 0D       		.uleb128 0xd
 3188 0056 00       		.byte	0
 3189 0057 03       		.uleb128 0x3
ARM GAS  /tmp/cctz3RzG.s 			page 57


 3190 0058 08       		.uleb128 0x8
 3191 0059 3A       		.uleb128 0x3a
 3192 005a 0B       		.uleb128 0xb
 3193 005b 3B       		.uleb128 0x3b
 3194 005c 0B       		.uleb128 0xb
 3195 005d 49       		.uleb128 0x49
 3196 005e 13       		.uleb128 0x13
 3197 005f 38       		.uleb128 0x38
 3198 0060 0B       		.uleb128 0xb
 3199 0061 00       		.byte	0
 3200 0062 00       		.byte	0
 3201 0063 08       		.uleb128 0x8
 3202 0064 0D       		.uleb128 0xd
 3203 0065 00       		.byte	0
 3204 0066 03       		.uleb128 0x3
 3205 0067 08       		.uleb128 0x8
 3206 0068 3A       		.uleb128 0x3a
 3207 0069 0B       		.uleb128 0xb
 3208 006a 3B       		.uleb128 0x3b
 3209 006b 05       		.uleb128 0x5
 3210 006c 49       		.uleb128 0x49
 3211 006d 13       		.uleb128 0x13
 3212 006e 38       		.uleb128 0x38
 3213 006f 0B       		.uleb128 0xb
 3214 0070 00       		.byte	0
 3215 0071 00       		.byte	0
 3216 0072 09       		.uleb128 0x9
 3217 0073 0D       		.uleb128 0xd
 3218 0074 00       		.byte	0
 3219 0075 03       		.uleb128 0x3
 3220 0076 0E       		.uleb128 0xe
 3221 0077 3A       		.uleb128 0x3a
 3222 0078 0B       		.uleb128 0xb
 3223 0079 3B       		.uleb128 0x3b
 3224 007a 05       		.uleb128 0x5
 3225 007b 49       		.uleb128 0x49
 3226 007c 13       		.uleb128 0x13
 3227 007d 38       		.uleb128 0x38
 3228 007e 0B       		.uleb128 0xb
 3229 007f 00       		.byte	0
 3230 0080 00       		.byte	0
 3231 0081 0A       		.uleb128 0xa
 3232 0082 0F       		.uleb128 0xf
 3233 0083 00       		.byte	0
 3234 0084 0B       		.uleb128 0xb
 3235 0085 0B       		.uleb128 0xb
 3236 0086 49       		.uleb128 0x49
 3237 0087 13       		.uleb128 0x13
 3238 0088 00       		.byte	0
 3239 0089 00       		.byte	0
 3240 008a 0B       		.uleb128 0xb
 3241 008b 13       		.uleb128 0x13
 3242 008c 01       		.byte	0x1
 3243 008d 03       		.uleb128 0x3
 3244 008e 0E       		.uleb128 0xe
 3245 008f 0B       		.uleb128 0xb
 3246 0090 0B       		.uleb128 0xb
ARM GAS  /tmp/cctz3RzG.s 			page 58


 3247 0091 3A       		.uleb128 0x3a
 3248 0092 0B       		.uleb128 0xb
 3249 0093 3B       		.uleb128 0x3b
 3250 0094 05       		.uleb128 0x5
 3251 0095 01       		.uleb128 0x1
 3252 0096 13       		.uleb128 0x13
 3253 0097 00       		.byte	0
 3254 0098 00       		.byte	0
 3255 0099 0C       		.uleb128 0xc
 3256 009a 15       		.uleb128 0x15
 3257 009b 01       		.byte	0x1
 3258 009c 27       		.uleb128 0x27
 3259 009d 19       		.uleb128 0x19
 3260 009e 01       		.uleb128 0x1
 3261 009f 13       		.uleb128 0x13
 3262 00a0 00       		.byte	0
 3263 00a1 00       		.byte	0
 3264 00a2 0D       		.uleb128 0xd
 3265 00a3 05       		.uleb128 0x5
 3266 00a4 00       		.byte	0
 3267 00a5 49       		.uleb128 0x49
 3268 00a6 13       		.uleb128 0x13
 3269 00a7 00       		.byte	0
 3270 00a8 00       		.byte	0
 3271 00a9 0E       		.uleb128 0xe
 3272 00aa 0F       		.uleb128 0xf
 3273 00ab 00       		.byte	0
 3274 00ac 0B       		.uleb128 0xb
 3275 00ad 0B       		.uleb128 0xb
 3276 00ae 00       		.byte	0
 3277 00af 00       		.byte	0
 3278 00b0 0F       		.uleb128 0xf
 3279 00b1 35       		.uleb128 0x35
 3280 00b2 00       		.byte	0
 3281 00b3 49       		.uleb128 0x49
 3282 00b4 13       		.uleb128 0x13
 3283 00b5 00       		.byte	0
 3284 00b6 00       		.byte	0
 3285 00b7 10       		.uleb128 0x10
 3286 00b8 01       		.uleb128 0x1
 3287 00b9 01       		.byte	0x1
 3288 00ba 49       		.uleb128 0x49
 3289 00bb 13       		.uleb128 0x13
 3290 00bc 01       		.uleb128 0x1
 3291 00bd 13       		.uleb128 0x13
 3292 00be 00       		.byte	0
 3293 00bf 00       		.byte	0
 3294 00c0 11       		.uleb128 0x11
 3295 00c1 21       		.uleb128 0x21
 3296 00c2 00       		.byte	0
 3297 00c3 49       		.uleb128 0x49
 3298 00c4 13       		.uleb128 0x13
 3299 00c5 2F       		.uleb128 0x2f
 3300 00c6 0B       		.uleb128 0xb
 3301 00c7 00       		.byte	0
 3302 00c8 00       		.byte	0
 3303 00c9 12       		.uleb128 0x12
ARM GAS  /tmp/cctz3RzG.s 			page 59


 3304 00ca 13       		.uleb128 0x13
 3305 00cb 01       		.byte	0x1
 3306 00cc 0B       		.uleb128 0xb
 3307 00cd 0B       		.uleb128 0xb
 3308 00ce 3A       		.uleb128 0x3a
 3309 00cf 0B       		.uleb128 0xb
 3310 00d0 3B       		.uleb128 0x3b
 3311 00d1 05       		.uleb128 0x5
 3312 00d2 01       		.uleb128 0x1
 3313 00d3 13       		.uleb128 0x13
 3314 00d4 00       		.byte	0
 3315 00d5 00       		.byte	0
 3316 00d6 13       		.uleb128 0x13
 3317 00d7 16       		.uleb128 0x16
 3318 00d8 00       		.byte	0
 3319 00d9 03       		.uleb128 0x3
 3320 00da 0E       		.uleb128 0xe
 3321 00db 3A       		.uleb128 0x3a
 3322 00dc 0B       		.uleb128 0xb
 3323 00dd 3B       		.uleb128 0x3b
 3324 00de 05       		.uleb128 0x5
 3325 00df 49       		.uleb128 0x49
 3326 00e0 13       		.uleb128 0x13
 3327 00e1 00       		.byte	0
 3328 00e2 00       		.byte	0
 3329 00e3 14       		.uleb128 0x14
 3330 00e4 13       		.uleb128 0x13
 3331 00e5 01       		.byte	0x1
 3332 00e6 0B       		.uleb128 0xb
 3333 00e7 0B       		.uleb128 0xb
 3334 00e8 3A       		.uleb128 0x3a
 3335 00e9 0B       		.uleb128 0xb
 3336 00ea 3B       		.uleb128 0x3b
 3337 00eb 0B       		.uleb128 0xb
 3338 00ec 01       		.uleb128 0x1
 3339 00ed 13       		.uleb128 0x13
 3340 00ee 00       		.byte	0
 3341 00ef 00       		.byte	0
 3342 00f0 15       		.uleb128 0x15
 3343 00f1 17       		.uleb128 0x17
 3344 00f2 01       		.byte	0x1
 3345 00f3 0B       		.uleb128 0xb
 3346 00f4 0B       		.uleb128 0xb
 3347 00f5 3A       		.uleb128 0x3a
 3348 00f6 0B       		.uleb128 0xb
 3349 00f7 3B       		.uleb128 0x3b
 3350 00f8 0B       		.uleb128 0xb
 3351 00f9 01       		.uleb128 0x1
 3352 00fa 13       		.uleb128 0x13
 3353 00fb 00       		.byte	0
 3354 00fc 00       		.byte	0
 3355 00fd 16       		.uleb128 0x16
 3356 00fe 0D       		.uleb128 0xd
 3357 00ff 00       		.byte	0
 3358 0100 03       		.uleb128 0x3
 3359 0101 0E       		.uleb128 0xe
 3360 0102 3A       		.uleb128 0x3a
ARM GAS  /tmp/cctz3RzG.s 			page 60


 3361 0103 0B       		.uleb128 0xb
 3362 0104 3B       		.uleb128 0x3b
 3363 0105 0B       		.uleb128 0xb
 3364 0106 49       		.uleb128 0x49
 3365 0107 13       		.uleb128 0x13
 3366 0108 00       		.byte	0
 3367 0109 00       		.byte	0
 3368 010a 17       		.uleb128 0x17
 3369 010b 0D       		.uleb128 0xd
 3370 010c 00       		.byte	0
 3371 010d 03       		.uleb128 0x3
 3372 010e 0E       		.uleb128 0xe
 3373 010f 3A       		.uleb128 0x3a
 3374 0110 0B       		.uleb128 0xb
 3375 0111 3B       		.uleb128 0x3b
 3376 0112 05       		.uleb128 0x5
 3377 0113 49       		.uleb128 0x49
 3378 0114 13       		.uleb128 0x13
 3379 0115 00       		.byte	0
 3380 0116 00       		.byte	0
 3381 0117 18       		.uleb128 0x18
 3382 0118 26       		.uleb128 0x26
 3383 0119 00       		.byte	0
 3384 011a 49       		.uleb128 0x49
 3385 011b 13       		.uleb128 0x13
 3386 011c 00       		.byte	0
 3387 011d 00       		.byte	0
 3388 011e 19       		.uleb128 0x19
 3389 011f 0D       		.uleb128 0xd
 3390 0120 00       		.byte	0
 3391 0121 03       		.uleb128 0x3
 3392 0122 08       		.uleb128 0x8
 3393 0123 3A       		.uleb128 0x3a
 3394 0124 0B       		.uleb128 0xb
 3395 0125 3B       		.uleb128 0x3b
 3396 0126 0B       		.uleb128 0xb
 3397 0127 49       		.uleb128 0x49
 3398 0128 13       		.uleb128 0x13
 3399 0129 00       		.byte	0
 3400 012a 00       		.byte	0
 3401 012b 1A       		.uleb128 0x1a
 3402 012c 04       		.uleb128 0x4
 3403 012d 01       		.byte	0x1
 3404 012e 03       		.uleb128 0x3
 3405 012f 0E       		.uleb128 0xe
 3406 0130 0B       		.uleb128 0xb
 3407 0131 0B       		.uleb128 0xb
 3408 0132 3A       		.uleb128 0x3a
 3409 0133 0B       		.uleb128 0xb
 3410 0134 3B       		.uleb128 0x3b
 3411 0135 0B       		.uleb128 0xb
 3412 0136 01       		.uleb128 0x1
 3413 0137 13       		.uleb128 0x13
 3414 0138 00       		.byte	0
 3415 0139 00       		.byte	0
 3416 013a 1B       		.uleb128 0x1b
 3417 013b 28       		.uleb128 0x28
ARM GAS  /tmp/cctz3RzG.s 			page 61


 3418 013c 00       		.byte	0
 3419 013d 03       		.uleb128 0x3
 3420 013e 0E       		.uleb128 0xe
 3421 013f 1C       		.uleb128 0x1c
 3422 0140 0D       		.uleb128 0xd
 3423 0141 00       		.byte	0
 3424 0142 00       		.byte	0
 3425 0143 1C       		.uleb128 0x1c
 3426 0144 2E       		.uleb128 0x2e
 3427 0145 01       		.byte	0x1
 3428 0146 3F       		.uleb128 0x3f
 3429 0147 19       		.uleb128 0x19
 3430 0148 03       		.uleb128 0x3
 3431 0149 0E       		.uleb128 0xe
 3432 014a 3A       		.uleb128 0x3a
 3433 014b 0B       		.uleb128 0xb
 3434 014c 3B       		.uleb128 0x3b
 3435 014d 0B       		.uleb128 0xb
 3436 014e 27       		.uleb128 0x27
 3437 014f 19       		.uleb128 0x19
 3438 0150 11       		.uleb128 0x11
 3439 0151 01       		.uleb128 0x1
 3440 0152 12       		.uleb128 0x12
 3441 0153 06       		.uleb128 0x6
 3442 0154 40       		.uleb128 0x40
 3443 0155 18       		.uleb128 0x18
 3444 0156 9742     		.uleb128 0x2117
 3445 0158 19       		.uleb128 0x19
 3446 0159 01       		.uleb128 0x1
 3447 015a 13       		.uleb128 0x13
 3448 015b 00       		.byte	0
 3449 015c 00       		.byte	0
 3450 015d 1D       		.uleb128 0x1d
 3451 015e 05       		.uleb128 0x5
 3452 015f 00       		.byte	0
 3453 0160 03       		.uleb128 0x3
 3454 0161 08       		.uleb128 0x8
 3455 0162 3A       		.uleb128 0x3a
 3456 0163 0B       		.uleb128 0xb
 3457 0164 3B       		.uleb128 0x3b
 3458 0165 0B       		.uleb128 0xb
 3459 0166 49       		.uleb128 0x49
 3460 0167 13       		.uleb128 0x13
 3461 0168 02       		.uleb128 0x2
 3462 0169 18       		.uleb128 0x18
 3463 016a 00       		.byte	0
 3464 016b 00       		.byte	0
 3465 016c 1E       		.uleb128 0x1e
 3466 016d 05       		.uleb128 0x5
 3467 016e 00       		.byte	0
 3468 016f 03       		.uleb128 0x3
 3469 0170 0E       		.uleb128 0xe
 3470 0171 3A       		.uleb128 0x3a
 3471 0172 0B       		.uleb128 0xb
 3472 0173 3B       		.uleb128 0x3b
 3473 0174 0B       		.uleb128 0xb
 3474 0175 49       		.uleb128 0x49
ARM GAS  /tmp/cctz3RzG.s 			page 62


 3475 0176 13       		.uleb128 0x13
 3476 0177 02       		.uleb128 0x2
 3477 0178 18       		.uleb128 0x18
 3478 0179 00       		.byte	0
 3479 017a 00       		.byte	0
 3480 017b 1F       		.uleb128 0x1f
 3481 017c 05       		.uleb128 0x5
 3482 017d 00       		.byte	0
 3483 017e 03       		.uleb128 0x3
 3484 017f 0E       		.uleb128 0xe
 3485 0180 3A       		.uleb128 0x3a
 3486 0181 0B       		.uleb128 0xb
 3487 0182 3B       		.uleb128 0x3b
 3488 0183 0B       		.uleb128 0xb
 3489 0184 49       		.uleb128 0x49
 3490 0185 13       		.uleb128 0x13
 3491 0186 02       		.uleb128 0x2
 3492 0187 17       		.uleb128 0x17
 3493 0188 00       		.byte	0
 3494 0189 00       		.byte	0
 3495 018a 20       		.uleb128 0x20
 3496 018b 34       		.uleb128 0x34
 3497 018c 00       		.byte	0
 3498 018d 03       		.uleb128 0x3
 3499 018e 08       		.uleb128 0x8
 3500 018f 3A       		.uleb128 0x3a
 3501 0190 0B       		.uleb128 0xb
 3502 0191 3B       		.uleb128 0x3b
 3503 0192 0B       		.uleb128 0xb
 3504 0193 49       		.uleb128 0x49
 3505 0194 13       		.uleb128 0x13
 3506 0195 02       		.uleb128 0x2
 3507 0196 18       		.uleb128 0x18
 3508 0197 00       		.byte	0
 3509 0198 00       		.byte	0
 3510 0199 21       		.uleb128 0x21
 3511 019a 898201   		.uleb128 0x4109
 3512 019d 00       		.byte	0
 3513 019e 11       		.uleb128 0x11
 3514 019f 01       		.uleb128 0x1
 3515 01a0 31       		.uleb128 0x31
 3516 01a1 13       		.uleb128 0x13
 3517 01a2 00       		.byte	0
 3518 01a3 00       		.byte	0
 3519 01a4 22       		.uleb128 0x22
 3520 01a5 2E       		.uleb128 0x2e
 3521 01a6 01       		.byte	0x1
 3522 01a7 3F       		.uleb128 0x3f
 3523 01a8 19       		.uleb128 0x19
 3524 01a9 03       		.uleb128 0x3
 3525 01aa 0E       		.uleb128 0xe
 3526 01ab 3A       		.uleb128 0x3a
 3527 01ac 0B       		.uleb128 0xb
 3528 01ad 3B       		.uleb128 0x3b
 3529 01ae 0B       		.uleb128 0xb
 3530 01af 27       		.uleb128 0x27
 3531 01b0 19       		.uleb128 0x19
ARM GAS  /tmp/cctz3RzG.s 			page 63


 3532 01b1 49       		.uleb128 0x49
 3533 01b2 13       		.uleb128 0x13
 3534 01b3 11       		.uleb128 0x11
 3535 01b4 01       		.uleb128 0x1
 3536 01b5 12       		.uleb128 0x12
 3537 01b6 06       		.uleb128 0x6
 3538 01b7 40       		.uleb128 0x40
 3539 01b8 18       		.uleb128 0x18
 3540 01b9 9742     		.uleb128 0x2117
 3541 01bb 19       		.uleb128 0x19
 3542 01bc 01       		.uleb128 0x1
 3543 01bd 13       		.uleb128 0x13
 3544 01be 00       		.byte	0
 3545 01bf 00       		.byte	0
 3546 01c0 23       		.uleb128 0x23
 3547 01c1 2E       		.uleb128 0x2e
 3548 01c2 01       		.byte	0x1
 3549 01c3 03       		.uleb128 0x3
 3550 01c4 0E       		.uleb128 0xe
 3551 01c5 3A       		.uleb128 0x3a
 3552 01c6 0B       		.uleb128 0xb
 3553 01c7 3B       		.uleb128 0x3b
 3554 01c8 0B       		.uleb128 0xb
 3555 01c9 27       		.uleb128 0x27
 3556 01ca 19       		.uleb128 0x19
 3557 01cb 20       		.uleb128 0x20
 3558 01cc 0B       		.uleb128 0xb
 3559 01cd 01       		.uleb128 0x1
 3560 01ce 13       		.uleb128 0x13
 3561 01cf 00       		.byte	0
 3562 01d0 00       		.byte	0
 3563 01d1 24       		.uleb128 0x24
 3564 01d2 05       		.uleb128 0x5
 3565 01d3 00       		.byte	0
 3566 01d4 03       		.uleb128 0x3
 3567 01d5 0E       		.uleb128 0xe
 3568 01d6 3A       		.uleb128 0x3a
 3569 01d7 0B       		.uleb128 0xb
 3570 01d8 3B       		.uleb128 0x3b
 3571 01d9 0B       		.uleb128 0xb
 3572 01da 49       		.uleb128 0x49
 3573 01db 13       		.uleb128 0x13
 3574 01dc 00       		.byte	0
 3575 01dd 00       		.byte	0
 3576 01de 25       		.uleb128 0x25
 3577 01df 05       		.uleb128 0x5
 3578 01e0 00       		.byte	0
 3579 01e1 03       		.uleb128 0x3
 3580 01e2 08       		.uleb128 0x8
 3581 01e3 3A       		.uleb128 0x3a
 3582 01e4 0B       		.uleb128 0xb
 3583 01e5 3B       		.uleb128 0x3b
 3584 01e6 0B       		.uleb128 0xb
 3585 01e7 49       		.uleb128 0x49
 3586 01e8 13       		.uleb128 0x13
 3587 01e9 00       		.byte	0
 3588 01ea 00       		.byte	0
ARM GAS  /tmp/cctz3RzG.s 			page 64


 3589 01eb 26       		.uleb128 0x26
 3590 01ec 34       		.uleb128 0x34
 3591 01ed 00       		.byte	0
 3592 01ee 03       		.uleb128 0x3
 3593 01ef 0E       		.uleb128 0xe
 3594 01f0 3A       		.uleb128 0x3a
 3595 01f1 0B       		.uleb128 0xb
 3596 01f2 3B       		.uleb128 0x3b
 3597 01f3 0B       		.uleb128 0xb
 3598 01f4 49       		.uleb128 0x49
 3599 01f5 13       		.uleb128 0x13
 3600 01f6 00       		.byte	0
 3601 01f7 00       		.byte	0
 3602 01f8 27       		.uleb128 0x27
 3603 01f9 0B       		.uleb128 0xb
 3604 01fa 01       		.byte	0x1
 3605 01fb 01       		.uleb128 0x1
 3606 01fc 13       		.uleb128 0x13
 3607 01fd 00       		.byte	0
 3608 01fe 00       		.byte	0
 3609 01ff 28       		.uleb128 0x28
 3610 0200 0B       		.uleb128 0xb
 3611 0201 01       		.byte	0x1
 3612 0202 00       		.byte	0
 3613 0203 00       		.byte	0
 3614 0204 29       		.uleb128 0x29
 3615 0205 2E       		.uleb128 0x2e
 3616 0206 01       		.byte	0x1
 3617 0207 03       		.uleb128 0x3
 3618 0208 0E       		.uleb128 0xe
 3619 0209 3A       		.uleb128 0x3a
 3620 020a 0B       		.uleb128 0xb
 3621 020b 3B       		.uleb128 0x3b
 3622 020c 0B       		.uleb128 0xb
 3623 020d 27       		.uleb128 0x27
 3624 020e 19       		.uleb128 0x19
 3625 020f 49       		.uleb128 0x49
 3626 0210 13       		.uleb128 0x13
 3627 0211 20       		.uleb128 0x20
 3628 0212 0B       		.uleb128 0xb
 3629 0213 01       		.uleb128 0x1
 3630 0214 13       		.uleb128 0x13
 3631 0215 00       		.byte	0
 3632 0216 00       		.byte	0
 3633 0217 2A       		.uleb128 0x2a
 3634 0218 2E       		.uleb128 0x2e
 3635 0219 01       		.byte	0x1
 3636 021a 3F       		.uleb128 0x3f
 3637 021b 19       		.uleb128 0x19
 3638 021c 03       		.uleb128 0x3
 3639 021d 0E       		.uleb128 0xe
 3640 021e 3A       		.uleb128 0x3a
 3641 021f 0B       		.uleb128 0xb
 3642 0220 3B       		.uleb128 0x3b
 3643 0221 0B       		.uleb128 0xb
 3644 0222 27       		.uleb128 0x27
 3645 0223 19       		.uleb128 0x19
ARM GAS  /tmp/cctz3RzG.s 			page 65


 3646 0224 49       		.uleb128 0x49
 3647 0225 13       		.uleb128 0x13
 3648 0226 11       		.uleb128 0x11
 3649 0227 01       		.uleb128 0x1
 3650 0228 12       		.uleb128 0x12
 3651 0229 06       		.uleb128 0x6
 3652 022a 40       		.uleb128 0x40
 3653 022b 18       		.uleb128 0x18
 3654 022c 9642     		.uleb128 0x2116
 3655 022e 19       		.uleb128 0x19
 3656 022f 01       		.uleb128 0x1
 3657 0230 13       		.uleb128 0x13
 3658 0231 00       		.byte	0
 3659 0232 00       		.byte	0
 3660 0233 2B       		.uleb128 0x2b
 3661 0234 34       		.uleb128 0x34
 3662 0235 00       		.byte	0
 3663 0236 03       		.uleb128 0x3
 3664 0237 0E       		.uleb128 0xe
 3665 0238 3A       		.uleb128 0x3a
 3666 0239 0B       		.uleb128 0xb
 3667 023a 3B       		.uleb128 0x3b
 3668 023b 0B       		.uleb128 0xb
 3669 023c 49       		.uleb128 0x49
 3670 023d 13       		.uleb128 0x13
 3671 023e 02       		.uleb128 0x2
 3672 023f 17       		.uleb128 0x17
 3673 0240 00       		.byte	0
 3674 0241 00       		.byte	0
 3675 0242 2C       		.uleb128 0x2c
 3676 0243 1D       		.uleb128 0x1d
 3677 0244 01       		.byte	0x1
 3678 0245 31       		.uleb128 0x31
 3679 0246 13       		.uleb128 0x13
 3680 0247 52       		.uleb128 0x52
 3681 0248 01       		.uleb128 0x1
 3682 0249 55       		.uleb128 0x55
 3683 024a 17       		.uleb128 0x17
 3684 024b 58       		.uleb128 0x58
 3685 024c 0B       		.uleb128 0xb
 3686 024d 59       		.uleb128 0x59
 3687 024e 0B       		.uleb128 0xb
 3688 024f 01       		.uleb128 0x1
 3689 0250 13       		.uleb128 0x13
 3690 0251 00       		.byte	0
 3691 0252 00       		.byte	0
 3692 0253 2D       		.uleb128 0x2d
 3693 0254 05       		.uleb128 0x5
 3694 0255 00       		.byte	0
 3695 0256 31       		.uleb128 0x31
 3696 0257 13       		.uleb128 0x13
 3697 0258 02       		.uleb128 0x2
 3698 0259 17       		.uleb128 0x17
 3699 025a 00       		.byte	0
 3700 025b 00       		.byte	0
 3701 025c 2E       		.uleb128 0x2e
 3702 025d 0B       		.uleb128 0xb
ARM GAS  /tmp/cctz3RzG.s 			page 66


 3703 025e 01       		.byte	0x1
 3704 025f 55       		.uleb128 0x55
 3705 0260 17       		.uleb128 0x17
 3706 0261 00       		.byte	0
 3707 0262 00       		.byte	0
 3708 0263 2F       		.uleb128 0x2f
 3709 0264 34       		.uleb128 0x34
 3710 0265 00       		.byte	0
 3711 0266 31       		.uleb128 0x31
 3712 0267 13       		.uleb128 0x13
 3713 0268 02       		.uleb128 0x2
 3714 0269 17       		.uleb128 0x17
 3715 026a 00       		.byte	0
 3716 026b 00       		.byte	0
 3717 026c 30       		.uleb128 0x30
 3718 026d 0B       		.uleb128 0xb
 3719 026e 01       		.byte	0x1
 3720 026f 11       		.uleb128 0x11
 3721 0270 01       		.uleb128 0x1
 3722 0271 12       		.uleb128 0x12
 3723 0272 06       		.uleb128 0x6
 3724 0273 01       		.uleb128 0x1
 3725 0274 13       		.uleb128 0x13
 3726 0275 00       		.byte	0
 3727 0276 00       		.byte	0
 3728 0277 31       		.uleb128 0x31
 3729 0278 1D       		.uleb128 0x1d
 3730 0279 01       		.byte	0x1
 3731 027a 31       		.uleb128 0x31
 3732 027b 13       		.uleb128 0x13
 3733 027c 52       		.uleb128 0x52
 3734 027d 01       		.uleb128 0x1
 3735 027e 55       		.uleb128 0x55
 3736 027f 17       		.uleb128 0x17
 3737 0280 58       		.uleb128 0x58
 3738 0281 0B       		.uleb128 0xb
 3739 0282 59       		.uleb128 0x59
 3740 0283 0B       		.uleb128 0xb
 3741 0284 00       		.byte	0
 3742 0285 00       		.byte	0
 3743 0286 32       		.uleb128 0x32
 3744 0287 0B       		.uleb128 0xb
 3745 0288 01       		.byte	0x1
 3746 0289 11       		.uleb128 0x11
 3747 028a 01       		.uleb128 0x1
 3748 028b 12       		.uleb128 0x12
 3749 028c 06       		.uleb128 0x6
 3750 028d 00       		.byte	0
 3751 028e 00       		.byte	0
 3752 028f 33       		.uleb128 0x33
 3753 0290 05       		.uleb128 0x5
 3754 0291 00       		.byte	0
 3755 0292 03       		.uleb128 0x3
 3756 0293 08       		.uleb128 0x8
 3757 0294 3A       		.uleb128 0x3a
 3758 0295 0B       		.uleb128 0xb
 3759 0296 3B       		.uleb128 0x3b
ARM GAS  /tmp/cctz3RzG.s 			page 67


 3760 0297 0B       		.uleb128 0xb
 3761 0298 49       		.uleb128 0x49
 3762 0299 13       		.uleb128 0x13
 3763 029a 02       		.uleb128 0x2
 3764 029b 17       		.uleb128 0x17
 3765 029c 00       		.byte	0
 3766 029d 00       		.byte	0
 3767 029e 34       		.uleb128 0x34
 3768 029f 898201   		.uleb128 0x4109
 3769 02a2 01       		.byte	0x1
 3770 02a3 11       		.uleb128 0x11
 3771 02a4 01       		.uleb128 0x1
 3772 02a5 31       		.uleb128 0x31
 3773 02a6 13       		.uleb128 0x13
 3774 02a7 00       		.byte	0
 3775 02a8 00       		.byte	0
 3776 02a9 35       		.uleb128 0x35
 3777 02aa 8A8201   		.uleb128 0x410a
 3778 02ad 00       		.byte	0
 3779 02ae 02       		.uleb128 0x2
 3780 02af 18       		.uleb128 0x18
 3781 02b0 9142     		.uleb128 0x2111
 3782 02b2 18       		.uleb128 0x18
 3783 02b3 00       		.byte	0
 3784 02b4 00       		.byte	0
 3785 02b5 36       		.uleb128 0x36
 3786 02b6 2E       		.uleb128 0x2e
 3787 02b7 00       		.byte	0
 3788 02b8 3F       		.uleb128 0x3f
 3789 02b9 19       		.uleb128 0x19
 3790 02ba 03       		.uleb128 0x3
 3791 02bb 0E       		.uleb128 0xe
 3792 02bc 3A       		.uleb128 0x3a
 3793 02bd 0B       		.uleb128 0xb
 3794 02be 3B       		.uleb128 0x3b
 3795 02bf 05       		.uleb128 0x5
 3796 02c0 27       		.uleb128 0x27
 3797 02c1 19       		.uleb128 0x19
 3798 02c2 11       		.uleb128 0x11
 3799 02c3 01       		.uleb128 0x1
 3800 02c4 12       		.uleb128 0x12
 3801 02c5 06       		.uleb128 0x6
 3802 02c6 40       		.uleb128 0x40
 3803 02c7 18       		.uleb128 0x18
 3804 02c8 9742     		.uleb128 0x2117
 3805 02ca 19       		.uleb128 0x19
 3806 02cb 00       		.byte	0
 3807 02cc 00       		.byte	0
 3808 02cd 37       		.uleb128 0x37
 3809 02ce 2E       		.uleb128 0x2e
 3810 02cf 01       		.byte	0x1
 3811 02d0 3F       		.uleb128 0x3f
 3812 02d1 19       		.uleb128 0x19
 3813 02d2 03       		.uleb128 0x3
 3814 02d3 0E       		.uleb128 0xe
 3815 02d4 3A       		.uleb128 0x3a
 3816 02d5 0B       		.uleb128 0xb
ARM GAS  /tmp/cctz3RzG.s 			page 68


 3817 02d6 3B       		.uleb128 0x3b
 3818 02d7 05       		.uleb128 0x5
 3819 02d8 27       		.uleb128 0x27
 3820 02d9 19       		.uleb128 0x19
 3821 02da 49       		.uleb128 0x49
 3822 02db 13       		.uleb128 0x13
 3823 02dc 11       		.uleb128 0x11
 3824 02dd 01       		.uleb128 0x1
 3825 02de 12       		.uleb128 0x12
 3826 02df 06       		.uleb128 0x6
 3827 02e0 40       		.uleb128 0x40
 3828 02e1 18       		.uleb128 0x18
 3829 02e2 9742     		.uleb128 0x2117
 3830 02e4 19       		.uleb128 0x19
 3831 02e5 01       		.uleb128 0x1
 3832 02e6 13       		.uleb128 0x13
 3833 02e7 00       		.byte	0
 3834 02e8 00       		.byte	0
 3835 02e9 38       		.uleb128 0x38
 3836 02ea 05       		.uleb128 0x5
 3837 02eb 00       		.byte	0
 3838 02ec 03       		.uleb128 0x3
 3839 02ed 0E       		.uleb128 0xe
 3840 02ee 3A       		.uleb128 0x3a
 3841 02ef 0B       		.uleb128 0xb
 3842 02f0 3B       		.uleb128 0x3b
 3843 02f1 05       		.uleb128 0x5
 3844 02f2 49       		.uleb128 0x49
 3845 02f3 13       		.uleb128 0x13
 3846 02f4 02       		.uleb128 0x2
 3847 02f5 17       		.uleb128 0x17
 3848 02f6 00       		.byte	0
 3849 02f7 00       		.byte	0
 3850 02f8 39       		.uleb128 0x39
 3851 02f9 34       		.uleb128 0x34
 3852 02fa 00       		.byte	0
 3853 02fb 03       		.uleb128 0x3
 3854 02fc 0E       		.uleb128 0xe
 3855 02fd 3A       		.uleb128 0x3a
 3856 02fe 0B       		.uleb128 0xb
 3857 02ff 3B       		.uleb128 0x3b
 3858 0300 05       		.uleb128 0x5
 3859 0301 49       		.uleb128 0x49
 3860 0302 13       		.uleb128 0x13
 3861 0303 02       		.uleb128 0x2
 3862 0304 18       		.uleb128 0x18
 3863 0305 00       		.byte	0
 3864 0306 00       		.byte	0
 3865 0307 3A       		.uleb128 0x3a
 3866 0308 34       		.uleb128 0x34
 3867 0309 00       		.byte	0
 3868 030a 03       		.uleb128 0x3
 3869 030b 08       		.uleb128 0x8
 3870 030c 3A       		.uleb128 0x3a
 3871 030d 0B       		.uleb128 0xb
 3872 030e 3B       		.uleb128 0x3b
 3873 030f 05       		.uleb128 0x5
ARM GAS  /tmp/cctz3RzG.s 			page 69


 3874 0310 49       		.uleb128 0x49
 3875 0311 13       		.uleb128 0x13
 3876 0312 02       		.uleb128 0x2
 3877 0313 17       		.uleb128 0x17
 3878 0314 00       		.byte	0
 3879 0315 00       		.byte	0
 3880 0316 3B       		.uleb128 0x3b
 3881 0317 34       		.uleb128 0x34
 3882 0318 00       		.byte	0
 3883 0319 03       		.uleb128 0x3
 3884 031a 0E       		.uleb128 0xe
 3885 031b 3A       		.uleb128 0x3a
 3886 031c 0B       		.uleb128 0xb
 3887 031d 3B       		.uleb128 0x3b
 3888 031e 0B       		.uleb128 0xb
 3889 031f 49       		.uleb128 0x49
 3890 0320 13       		.uleb128 0x13
 3891 0321 02       		.uleb128 0x2
 3892 0322 18       		.uleb128 0x18
 3893 0323 00       		.byte	0
 3894 0324 00       		.byte	0
 3895 0325 3C       		.uleb128 0x3c
 3896 0326 34       		.uleb128 0x34
 3897 0327 00       		.byte	0
 3898 0328 03       		.uleb128 0x3
 3899 0329 0E       		.uleb128 0xe
 3900 032a 3A       		.uleb128 0x3a
 3901 032b 0B       		.uleb128 0xb
 3902 032c 3B       		.uleb128 0x3b
 3903 032d 05       		.uleb128 0x5
 3904 032e 49       		.uleb128 0x49
 3905 032f 13       		.uleb128 0x13
 3906 0330 3F       		.uleb128 0x3f
 3907 0331 19       		.uleb128 0x19
 3908 0332 3C       		.uleb128 0x3c
 3909 0333 19       		.uleb128 0x19
 3910 0334 00       		.byte	0
 3911 0335 00       		.byte	0
 3912 0336 3D       		.uleb128 0x3d
 3913 0337 34       		.uleb128 0x34
 3914 0338 00       		.byte	0
 3915 0339 03       		.uleb128 0x3
 3916 033a 08       		.uleb128 0x8
 3917 033b 3A       		.uleb128 0x3a
 3918 033c 0B       		.uleb128 0xb
 3919 033d 3B       		.uleb128 0x3b
 3920 033e 05       		.uleb128 0x5
 3921 033f 49       		.uleb128 0x49
 3922 0340 13       		.uleb128 0x13
 3923 0341 3F       		.uleb128 0x3f
 3924 0342 19       		.uleb128 0x19
 3925 0343 3C       		.uleb128 0x3c
 3926 0344 19       		.uleb128 0x19
 3927 0345 00       		.byte	0
 3928 0346 00       		.byte	0
 3929 0347 3E       		.uleb128 0x3e
 3930 0348 2E       		.uleb128 0x2e
ARM GAS  /tmp/cctz3RzG.s 			page 70


 3931 0349 00       		.byte	0
 3932 034a 3F       		.uleb128 0x3f
 3933 034b 19       		.uleb128 0x19
 3934 034c 03       		.uleb128 0x3
 3935 034d 0E       		.uleb128 0xe
 3936 034e 3A       		.uleb128 0x3a
 3937 034f 0B       		.uleb128 0xb
 3938 0350 3B       		.uleb128 0x3b
 3939 0351 0B       		.uleb128 0xb
 3940 0352 27       		.uleb128 0x27
 3941 0353 19       		.uleb128 0x19
 3942 0354 49       		.uleb128 0x49
 3943 0355 13       		.uleb128 0x13
 3944 0356 3C       		.uleb128 0x3c
 3945 0357 19       		.uleb128 0x19
 3946 0358 00       		.byte	0
 3947 0359 00       		.byte	0
 3948 035a 00       		.byte	0
 3949              		.section	.debug_loc,"",%progbits
 3950              	.Ldebug_loc0:
 3951              	.LLST0:
 3952 0000 00000000 		.4byte	.LVL0
 3953 0004 12000000 		.4byte	.LVL1
 3954 0008 0100     		.2byte	0x1
 3955 000a 52       		.byte	0x52
 3956 000b 12000000 		.4byte	.LVL1
 3957 000f 14000000 		.4byte	.LVL2
 3958 0013 0400     		.2byte	0x4
 3959 0015 F3       		.byte	0xf3
 3960 0016 01       		.uleb128 0x1
 3961 0017 52       		.byte	0x52
 3962 0018 9F       		.byte	0x9f
 3963 0019 14000000 		.4byte	.LVL2
 3964 001d 1A000000 		.4byte	.LVL3
 3965 0021 0100     		.2byte	0x1
 3966 0023 52       		.byte	0x52
 3967 0024 1A000000 		.4byte	.LVL3
 3968 0028 1E000000 		.4byte	.LVL4
 3969 002c 0400     		.2byte	0x4
 3970 002e F3       		.byte	0xf3
 3971 002f 01       		.uleb128 0x1
 3972 0030 52       		.byte	0x52
 3973 0031 9F       		.byte	0x9f
 3974 0032 1E000000 		.4byte	.LVL4
 3975 0036 24000000 		.4byte	.LVL5
 3976 003a 0100     		.2byte	0x1
 3977 003c 52       		.byte	0x52
 3978 003d 24000000 		.4byte	.LVL5
 3979 0041 26000000 		.4byte	.LVL6
 3980 0045 0400     		.2byte	0x4
 3981 0047 F3       		.byte	0xf3
 3982 0048 01       		.uleb128 0x1
 3983 0049 52       		.byte	0x52
 3984 004a 9F       		.byte	0x9f
 3985 004b 26000000 		.4byte	.LVL6
 3986 004f 2C000000 		.4byte	.LVL7
 3987 0053 0100     		.2byte	0x1
ARM GAS  /tmp/cctz3RzG.s 			page 71


 3988 0055 52       		.byte	0x52
 3989 0056 2C000000 		.4byte	.LVL7
 3990 005a 30000000 		.4byte	.LFE323
 3991 005e 0400     		.2byte	0x4
 3992 0060 F3       		.byte	0xf3
 3993 0061 01       		.uleb128 0x1
 3994 0062 52       		.byte	0x52
 3995 0063 9F       		.byte	0x9f
 3996 0064 00000000 		.4byte	0
 3997 0068 00000000 		.4byte	0
 3998              	.LLST1:
 3999 006c 00000000 		.4byte	.LVL8
 4000 0070 20000000 		.4byte	.LVL9
 4001 0074 0100     		.2byte	0x1
 4002 0076 52       		.byte	0x52
 4003 0077 20000000 		.4byte	.LVL9
 4004 007b 2A000000 		.4byte	.LVL10
 4005 007f 0400     		.2byte	0x4
 4006 0081 F3       		.byte	0xf3
 4007 0082 01       		.uleb128 0x1
 4008 0083 52       		.byte	0x52
 4009 0084 9F       		.byte	0x9f
 4010 0085 2A000000 		.4byte	.LVL10
 4011 0089 40000000 		.4byte	.LVL11
 4012 008d 0100     		.2byte	0x1
 4013 008f 52       		.byte	0x52
 4014 0090 40000000 		.4byte	.LVL11
 4015 0094 4A000000 		.4byte	.LVL12
 4016 0098 0400     		.2byte	0x4
 4017 009a F3       		.byte	0xf3
 4018 009b 01       		.uleb128 0x1
 4019 009c 52       		.byte	0x52
 4020 009d 9F       		.byte	0x9f
 4021 009e 4A000000 		.4byte	.LVL12
 4022 00a2 5E000000 		.4byte	.LVL13
 4023 00a6 0100     		.2byte	0x1
 4024 00a8 52       		.byte	0x52
 4025 00a9 5E000000 		.4byte	.LVL13
 4026 00ad 68000000 		.4byte	.LVL14
 4027 00b1 0400     		.2byte	0x4
 4028 00b3 F3       		.byte	0xf3
 4029 00b4 01       		.uleb128 0x1
 4030 00b5 52       		.byte	0x52
 4031 00b6 9F       		.byte	0x9f
 4032 00b7 68000000 		.4byte	.LVL14
 4033 00bb 7E000000 		.4byte	.LVL15
 4034 00bf 0100     		.2byte	0x1
 4035 00c1 52       		.byte	0x52
 4036 00c2 7E000000 		.4byte	.LVL15
 4037 00c6 8A000000 		.4byte	.LFE324
 4038 00ca 0400     		.2byte	0x4
 4039 00cc F3       		.byte	0xf3
 4040 00cd 01       		.uleb128 0x1
 4041 00ce 52       		.byte	0x52
 4042 00cf 9F       		.byte	0x9f
 4043 00d0 00000000 		.4byte	0
 4044 00d4 00000000 		.4byte	0
ARM GAS  /tmp/cctz3RzG.s 			page 72


 4045              	.LLST2:
 4046 00d8 00000000 		.4byte	.LVL16
 4047 00dc 09000000 		.4byte	.LVL17-1
 4048 00e0 0600     		.2byte	0x6
 4049 00e2 50       		.byte	0x50
 4050 00e3 93       		.byte	0x93
 4051 00e4 04       		.uleb128 0x4
 4052 00e5 51       		.byte	0x51
 4053 00e6 93       		.byte	0x93
 4054 00e7 04       		.uleb128 0x4
 4055 00e8 09000000 		.4byte	.LVL17-1
 4056 00ec 24000000 		.4byte	.LFE325
 4057 00f0 0600     		.2byte	0x6
 4058 00f2 F3       		.byte	0xf3
 4059 00f3 03       		.uleb128 0x3
 4060 00f4 F5       		.byte	0xf5
 4061 00f5 00       		.uleb128 0
 4062 00f6 25       		.uleb128 0x25
 4063 00f7 9F       		.byte	0x9f
 4064 00f8 00000000 		.4byte	0
 4065 00fc 00000000 		.4byte	0
 4066              	.LLST3:
 4067 0100 14000000 		.4byte	.LVL19
 4068 0104 1F000000 		.4byte	.LVL20-1
 4069 0108 0600     		.2byte	0x6
 4070 010a 50       		.byte	0x50
 4071 010b 93       		.byte	0x93
 4072 010c 04       		.uleb128 0x4
 4073 010d 51       		.byte	0x51
 4074 010e 93       		.byte	0x93
 4075 010f 04       		.uleb128 0x4
 4076 0110 00000000 		.4byte	0
 4077 0114 00000000 		.4byte	0
 4078              	.LLST4:
 4079 0118 28000000 		.4byte	.LVL21
 4080 011c 4E000000 		.4byte	.LVL26
 4081 0120 0600     		.2byte	0x6
 4082 0122 56       		.byte	0x56
 4083 0123 93       		.byte	0x93
 4084 0124 04       		.uleb128 0x4
 4085 0125 57       		.byte	0x57
 4086 0126 93       		.byte	0x93
 4087 0127 04       		.uleb128 0x4
 4088 0128 00000000 		.4byte	0
 4089 012c 00000000 		.4byte	0
 4090              	.LLST5:
 4091 0130 F2000000 		.4byte	.LVL38
 4092 0134 18010000 		.4byte	.LVL39
 4093 0138 2800     		.2byte	0x28
 4094 013a 72       		.byte	0x72
 4095 013b 00       		.sleb128 0
 4096 013c 35       		.byte	0x35
 4097 013d 24       		.byte	0x24
 4098 013e 77       		.byte	0x77
 4099 013f 00       		.sleb128 0
 4100 0140 3B       		.byte	0x3b
 4101 0141 24       		.byte	0x24
ARM GAS  /tmp/cctz3RzG.s 			page 73


 4102 0142 21       		.byte	0x21
 4103 0143 91       		.byte	0x91
 4104 0144 5A       		.sleb128 -38
 4105 0145 94       		.byte	0x94
 4106 0146 01       		.byte	0x1
 4107 0147 08       		.byte	0x8
 4108 0148 FF       		.byte	0xff
 4109 0149 1A       		.byte	0x1a
 4110 014a 40       		.byte	0x40
 4111 014b 24       		.byte	0x24
 4112 014c 21       		.byte	0x21
 4113 014d 91       		.byte	0x91
 4114 014e 59       		.sleb128 -39
 4115 014f 94       		.byte	0x94
 4116 0150 01       		.byte	0x1
 4117 0151 08       		.byte	0x8
 4118 0152 FF       		.byte	0xff
 4119 0153 1A       		.byte	0x1a
 4120 0154 23       		.byte	0x23
 4121 0155 01       		.uleb128 0x1
 4122 0156 45       		.byte	0x45
 4123 0157 24       		.byte	0x24
 4124 0158 21       		.byte	0x21
 4125 0159 76       		.byte	0x76
 4126 015a 00       		.sleb128 0
 4127 015b 31       		.byte	0x31
 4128 015c 25       		.byte	0x25
 4129 015d 08       		.byte	0x8
 4130 015e FF       		.byte	0xff
 4131 015f 1A       		.byte	0x1a
 4132 0160 21       		.byte	0x21
 4133 0161 9F       		.byte	0x9f
 4134 0162 00000000 		.4byte	0
 4135 0166 00000000 		.4byte	0
 4136              	.LLST6:
 4137 016a 28000000 		.4byte	.LVL21
 4138 016e 1A010000 		.4byte	.LVL40
 4139 0172 0100     		.2byte	0x1
 4140 0174 5D       		.byte	0x5d
 4141 0175 00000000 		.4byte	0
 4142 0179 00000000 		.4byte	0
 4143              	.LLST8:
 4144 017d 30000000 		.4byte	.LVL23
 4145 0181 34000000 		.4byte	.LVL24
 4146 0185 0100     		.2byte	0x1
 4147 0187 52       		.byte	0x52
 4148 0188 34000000 		.4byte	.LVL24
 4149 018c 64000000 		.4byte	.LVL27
 4150 0190 0100     		.2byte	0x1
 4151 0192 54       		.byte	0x54
 4152 0193 00000000 		.4byte	0
 4153 0197 00000000 		.4byte	0
 4154              	.LLST9:
 4155 019b 3A000000 		.4byte	.LVL25
 4156 019f 70000000 		.4byte	.LVL28
 4157 01a3 0100     		.2byte	0x1
 4158 01a5 50       		.byte	0x50
ARM GAS  /tmp/cctz3RzG.s 			page 74


 4159 01a6 70000000 		.4byte	.LVL28
 4160 01aa EA000000 		.4byte	.LVL37
 4161 01ae 0100     		.2byte	0x1
 4162 01b0 51       		.byte	0x51
 4163 01b1 EA000000 		.4byte	.LVL37
 4164 01b5 F2000000 		.4byte	.LVL38
 4165 01b9 0300     		.2byte	0x3
 4166 01bb 71       		.byte	0x71
 4167 01bc 7F       		.sleb128 -1
 4168 01bd 9F       		.byte	0x9f
 4169 01be 00000000 		.4byte	0
 4170 01c2 00000000 		.4byte	0
 4171              	.LLST10:
 4172 01c6 B8000000 		.4byte	.LVL32
 4173 01ca F2000000 		.4byte	.LVL38
 4174 01ce 0100     		.2byte	0x1
 4175 01d0 55       		.byte	0x55
 4176 01d1 00000000 		.4byte	0
 4177 01d5 00000000 		.4byte	0
 4178              	.LLST11:
 4179 01d9 70000000 		.4byte	.LVL28
 4180 01dd 74000000 		.4byte	.LVL29
 4181 01e1 0600     		.2byte	0x6
 4182 01e3 74       		.byte	0x74
 4183 01e4 00       		.sleb128 0
 4184 01e5 08       		.byte	0x8
 4185 01e6 FF       		.byte	0xff
 4186 01e7 1A       		.byte	0x1a
 4187 01e8 9F       		.byte	0x9f
 4188 01e9 74000000 		.4byte	.LVL29
 4189 01ed 90000000 		.4byte	.LVL30
 4190 01f1 0100     		.2byte	0x1
 4191 01f3 53       		.byte	0x53
 4192 01f4 90000000 		.4byte	.LVL30
 4193 01f8 A6000000 		.4byte	.LVL31
 4194 01fc 0400     		.2byte	0x4
 4195 01fe 74       		.byte	0x74
 4196 01ff EC0E     		.sleb128 1900
 4197 0201 9F       		.byte	0x9f
 4198 0202 A6000000 		.4byte	.LVL31
 4199 0206 B8000000 		.4byte	.LVL32
 4200 020a 0100     		.2byte	0x1
 4201 020c 53       		.byte	0x53
 4202 020d B8000000 		.4byte	.LVL32
 4203 0211 CE000000 		.4byte	.LVL34
 4204 0215 0400     		.2byte	0x4
 4205 0217 74       		.byte	0x74
 4206 0218 EC0E     		.sleb128 1900
 4207 021a 9F       		.byte	0x9f
 4208 021b 00000000 		.4byte	0
 4209 021f 00000000 		.4byte	0
 4210              	.LLST12:
 4211 0223 DA000000 		.4byte	.LVL35
 4212 0227 F2000000 		.4byte	.LVL38
 4213 022b 0100     		.2byte	0x1
 4214 022d 54       		.byte	0x54
 4215 022e 00000000 		.4byte	0
ARM GAS  /tmp/cctz3RzG.s 			page 75


 4216 0232 00000000 		.4byte	0
 4217              	.LLST13:
 4218 0236 00000000 		.4byte	.LVL41
 4219 023a 06000000 		.4byte	.LVL43
 4220 023e 0100     		.2byte	0x1
 4221 0240 50       		.byte	0x50
 4222 0241 06000000 		.4byte	.LVL43
 4223 0245 0C000000 		.4byte	.LVL44
 4224 0249 0100     		.2byte	0x1
 4225 024b 50       		.byte	0x50
 4226 024c 0C000000 		.4byte	.LVL44
 4227 0250 1A000000 		.4byte	.LVL46
 4228 0254 0100     		.2byte	0x1
 4229 0256 54       		.byte	0x54
 4230 0257 1A000000 		.4byte	.LVL46
 4231 025b 20000000 		.4byte	.LFE330
 4232 025f 0100     		.2byte	0x1
 4233 0261 50       		.byte	0x50
 4234 0262 00000000 		.4byte	0
 4235 0266 00000000 		.4byte	0
 4236              	.LLST14:
 4237 026a 00000000 		.4byte	.LVL41
 4238 026e 06000000 		.4byte	.LVL43
 4239 0272 0100     		.2byte	0x1
 4240 0274 51       		.byte	0x51
 4241 0275 06000000 		.4byte	.LVL43
 4242 0279 16000000 		.4byte	.LVL45
 4243 027d 0100     		.2byte	0x1
 4244 027f 51       		.byte	0x51
 4245 0280 16000000 		.4byte	.LVL45
 4246 0284 1A000000 		.4byte	.LVL46
 4247 0288 0300     		.2byte	0x3
 4248 028a 71       		.byte	0x71
 4249 028b 7C       		.sleb128 -4
 4250 028c 9F       		.byte	0x9f
 4251 028d 1A000000 		.4byte	.LVL46
 4252 0291 20000000 		.4byte	.LFE330
 4253 0295 0100     		.2byte	0x1
 4254 0297 51       		.byte	0x51
 4255 0298 00000000 		.4byte	0
 4256 029c 00000000 		.4byte	0
 4257              	.LLST15:
 4258 02a0 00000000 		.4byte	.LVL41
 4259 02a4 04000000 		.4byte	.LVL42
 4260 02a8 0100     		.2byte	0x1
 4261 02aa 52       		.byte	0x52
 4262 02ab 04000000 		.4byte	.LVL42
 4263 02af 06000000 		.4byte	.LVL43
 4264 02b3 0400     		.2byte	0x4
 4265 02b5 F3       		.byte	0xf3
 4266 02b6 01       		.uleb128 0x1
 4267 02b7 52       		.byte	0x52
 4268 02b8 9F       		.byte	0x9f
 4269 02b9 00000000 		.4byte	0
 4270 02bd 00000000 		.4byte	0
 4271              	.LLST16:
 4272 02c1 00000000 		.4byte	.LVL47
ARM GAS  /tmp/cctz3RzG.s 			page 76


 4273 02c5 2A000000 		.4byte	.LVL49
 4274 02c9 0100     		.2byte	0x1
 4275 02cb 50       		.byte	0x50
 4276 02cc 2A000000 		.4byte	.LVL49
 4277 02d0 32000000 		.4byte	.LVL50
 4278 02d4 0100     		.2byte	0x1
 4279 02d6 50       		.byte	0x50
 4280 02d7 32000000 		.4byte	.LVL50
 4281 02db 40000000 		.4byte	.LVL52
 4282 02df 0100     		.2byte	0x1
 4283 02e1 54       		.byte	0x54
 4284 02e2 40000000 		.4byte	.LVL52
 4285 02e6 50000000 		.4byte	.LFE331
 4286 02ea 0100     		.2byte	0x1
 4287 02ec 50       		.byte	0x50
 4288 02ed 00000000 		.4byte	0
 4289 02f1 00000000 		.4byte	0
 4290              	.LLST17:
 4291 02f5 00000000 		.4byte	.LVL47
 4292 02f9 2A000000 		.4byte	.LVL49
 4293 02fd 0100     		.2byte	0x1
 4294 02ff 51       		.byte	0x51
 4295 0300 2A000000 		.4byte	.LVL49
 4296 0304 3A000000 		.4byte	.LVL51
 4297 0308 0100     		.2byte	0x1
 4298 030a 51       		.byte	0x51
 4299 030b 3A000000 		.4byte	.LVL51
 4300 030f 40000000 		.4byte	.LVL52
 4301 0313 0300     		.2byte	0x3
 4302 0315 71       		.byte	0x71
 4303 0316 7C       		.sleb128 -4
 4304 0317 9F       		.byte	0x9f
 4305 0318 40000000 		.4byte	.LVL52
 4306 031c 50000000 		.4byte	.LFE331
 4307 0320 0100     		.2byte	0x1
 4308 0322 51       		.byte	0x51
 4309 0323 00000000 		.4byte	0
 4310 0327 00000000 		.4byte	0
 4311              	.LLST18:
 4312 032b 00000000 		.4byte	.LVL47
 4313 032f 22000000 		.4byte	.LVL48
 4314 0333 0100     		.2byte	0x1
 4315 0335 52       		.byte	0x52
 4316 0336 22000000 		.4byte	.LVL48
 4317 033a 2A000000 		.4byte	.LVL49
 4318 033e 0400     		.2byte	0x4
 4319 0340 F3       		.byte	0xf3
 4320 0341 01       		.uleb128 0x1
 4321 0342 52       		.byte	0x52
 4322 0343 9F       		.byte	0x9f
 4323 0344 00000000 		.4byte	0
 4324 0348 00000000 		.4byte	0
 4325              	.LLST19:
 4326 034c 00000000 		.4byte	.LVL54
 4327 0350 0C000000 		.4byte	.LVL55
 4328 0354 0100     		.2byte	0x1
 4329 0356 50       		.byte	0x50
ARM GAS  /tmp/cctz3RzG.s 			page 77


 4330 0357 0C000000 		.4byte	.LVL55
 4331 035b 0F000000 		.4byte	.LVL56-1
 4332 035f 0200     		.2byte	0x2
 4333 0361 71       		.byte	0x71
 4334 0362 00       		.sleb128 0
 4335 0363 0F000000 		.4byte	.LVL56-1
 4336 0367 16000000 		.4byte	.LFE333
 4337 036b 0400     		.2byte	0x4
 4338 036d F3       		.byte	0xf3
 4339 036e 01       		.uleb128 0x1
 4340 036f 50       		.byte	0x50
 4341 0370 9F       		.byte	0x9f
 4342 0371 00000000 		.4byte	0
 4343 0375 00000000 		.4byte	0
 4344              	.LLST20:
 4345 0379 00000000 		.4byte	.LVL57
 4346 037d 26000000 		.4byte	.LVL64
 4347 0381 0100     		.2byte	0x1
 4348 0383 50       		.byte	0x50
 4349 0384 26000000 		.4byte	.LVL64
 4350 0388 58000000 		.4byte	.LFE335
 4351 038c 0400     		.2byte	0x4
 4352 038e F3       		.byte	0xf3
 4353 038f 01       		.uleb128 0x1
 4354 0390 50       		.byte	0x50
 4355 0391 9F       		.byte	0x9f
 4356 0392 00000000 		.4byte	0
 4357 0396 00000000 		.4byte	0
 4358              	.LLST21:
 4359 039a 0A000000 		.4byte	.LVL59
 4360 039e 40000000 		.4byte	.LVL67
 4361 03a2 0100     		.2byte	0x1
 4362 03a4 54       		.byte	0x54
 4363 03a5 40000000 		.4byte	.LVL67
 4364 03a9 58000000 		.4byte	.LFE335
 4365 03ad 0600     		.2byte	0x6
 4366 03af F3       		.byte	0xf3
 4367 03b0 01       		.uleb128 0x1
 4368 03b1 50       		.byte	0x50
 4369 03b2 3F       		.byte	0x3f
 4370 03b3 1A       		.byte	0x1a
 4371 03b4 9F       		.byte	0x9f
 4372 03b5 00000000 		.4byte	0
 4373 03b9 00000000 		.4byte	0
 4374              	.LLST22:
 4375 03bd 0A000000 		.4byte	.LVL59
 4376 03c1 12000000 		.4byte	.LVL60
 4377 03c5 0200     		.2byte	0x2
 4378 03c7 30       		.byte	0x30
 4379 03c8 9F       		.byte	0x9f
 4380 03c9 12000000 		.4byte	.LVL60
 4381 03cd 16000000 		.4byte	.LVL61
 4382 03d1 0800     		.2byte	0x8
 4383 03d3 73       		.byte	0x73
 4384 03d4 00       		.sleb128 0
 4385 03d5 77       		.byte	0x77
 4386 03d6 00       		.sleb128 0
ARM GAS  /tmp/cctz3RzG.s 			page 78


 4387 03d7 25       		.byte	0x25
 4388 03d8 33       		.byte	0x33
 4389 03d9 1A       		.byte	0x1a
 4390 03da 9F       		.byte	0x9f
 4391 03db 1E000000 		.4byte	.LVL62
 4392 03df 22000000 		.4byte	.LVL63
 4393 03e3 0100     		.2byte	0x1
 4394 03e5 53       		.byte	0x53
 4395 03e6 22000000 		.4byte	.LVL63
 4396 03ea 38000000 		.4byte	.LVL65
 4397 03ee 0100     		.2byte	0x1
 4398 03f0 51       		.byte	0x51
 4399 03f1 38000000 		.4byte	.LVL65
 4400 03f5 3C000000 		.4byte	.LVL66
 4401 03f9 0100     		.2byte	0x1
 4402 03fb 52       		.byte	0x52
 4403 03fc 3C000000 		.4byte	.LVL66
 4404 0400 56000000 		.4byte	.LVL68
 4405 0404 0100     		.2byte	0x1
 4406 0406 53       		.byte	0x53
 4407 0407 56000000 		.4byte	.LVL68
 4408 040b 58000000 		.4byte	.LFE335
 4409 040f 0100     		.2byte	0x1
 4410 0411 50       		.byte	0x50
 4411 0412 00000000 		.4byte	0
 4412 0416 00000000 		.4byte	0
 4413              		.section	.debug_aranges,"",%progbits
 4414 0000 6C000000 		.4byte	0x6c
 4415 0004 0200     		.2byte	0x2
 4416 0006 00000000 		.4byte	.Ldebug_info0
 4417 000a 04       		.byte	0x4
 4418 000b 00       		.byte	0
 4419 000c 0000     		.2byte	0
 4420 000e 0000     		.2byte	0
 4421 0010 00000000 		.4byte	.LFB323
 4422 0014 30000000 		.4byte	.LFE323-.LFB323
 4423 0018 00000000 		.4byte	.LFB324
 4424 001c 8A000000 		.4byte	.LFE324-.LFB324
 4425 0020 00000000 		.4byte	.LFB325
 4426 0024 24000000 		.4byte	.LFE325-.LFB325
 4427 0028 00000000 		.4byte	.LFB326
 4428 002c 18000000 		.4byte	.LFE326-.LFB326
 4429 0030 00000000 		.4byte	.LFB329
 4430 0034 38010000 		.4byte	.LFE329-.LFB329
 4431 0038 00000000 		.4byte	.LFB330
 4432 003c 20000000 		.4byte	.LFE330-.LFB330
 4433 0040 00000000 		.4byte	.LFB331
 4434 0044 50000000 		.4byte	.LFE331-.LFB331
 4435 0048 00000000 		.4byte	.LFB332
 4436 004c 14000000 		.4byte	.LFE332-.LFB332
 4437 0050 00000000 		.4byte	.LFB333
 4438 0054 16000000 		.4byte	.LFE333-.LFB333
 4439 0058 00000000 		.4byte	.LFB334
 4440 005c 02000000 		.4byte	.LFE334-.LFB334
 4441 0060 00000000 		.4byte	.LFB335
 4442 0064 58000000 		.4byte	.LFE335-.LFB335
 4443 0068 00000000 		.4byte	0
ARM GAS  /tmp/cctz3RzG.s 			page 79


 4444 006c 00000000 		.4byte	0
 4445              		.section	.debug_ranges,"",%progbits
 4446              	.Ldebug_ranges0:
 4447 0000 16000000 		.4byte	.LBB8
 4448 0004 1A000000 		.4byte	.LBE8
 4449 0008 20000000 		.4byte	.LBB18
 4450 000c 24000000 		.4byte	.LBE18
 4451 0010 28000000 		.4byte	.LBB19
 4452 0014 F2000000 		.4byte	.LBE19
 4453 0018 00000000 		.4byte	0
 4454 001c 00000000 		.4byte	0
 4455 0020 70000000 		.4byte	.LBB11
 4456 0024 AA000000 		.4byte	.LBE11
 4457 0028 B0000000 		.4byte	.LBB14
 4458 002c B4000000 		.4byte	.LBE14
 4459 0030 00000000 		.4byte	0
 4460 0034 00000000 		.4byte	0
 4461 0038 00000000 		.4byte	.LFB323
 4462 003c 30000000 		.4byte	.LFE323
 4463 0040 00000000 		.4byte	.LFB324
 4464 0044 8A000000 		.4byte	.LFE324
 4465 0048 00000000 		.4byte	.LFB325
 4466 004c 24000000 		.4byte	.LFE325
 4467 0050 00000000 		.4byte	.LFB326
 4468 0054 18000000 		.4byte	.LFE326
 4469 0058 00000000 		.4byte	.LFB329
 4470 005c 38010000 		.4byte	.LFE329
 4471 0060 00000000 		.4byte	.LFB330
 4472 0064 20000000 		.4byte	.LFE330
 4473 0068 00000000 		.4byte	.LFB331
 4474 006c 50000000 		.4byte	.LFE331
 4475 0070 00000000 		.4byte	.LFB332
 4476 0074 14000000 		.4byte	.LFE332
 4477 0078 00000000 		.4byte	.LFB333
 4478 007c 16000000 		.4byte	.LFE333
 4479 0080 00000000 		.4byte	.LFB334
 4480 0084 02000000 		.4byte	.LFE334
 4481 0088 00000000 		.4byte	.LFB335
 4482 008c 58000000 		.4byte	.LFE335
 4483 0090 00000000 		.4byte	0
 4484 0094 00000000 		.4byte	0
 4485              		.section	.debug_line,"",%progbits
 4486              	.Ldebug_line0:
 4487 0000 64040000 		.section	.debug_str,"MS",%progbits,1
 4487      02001E03 
 4487      00000201 
 4487      FB0E0D00 
 4487      01010101 
 4488              	.LASF189:
 4489 0000 42535252 		.ascii	"BSRR\000"
 4489      00
 4490              	.LASF117:
 4491 0005 54535353 		.ascii	"TSSSR\000"
 4491      5200
 4492              	.LASF94:
 4493 000b 41504231 		.ascii	"APB1ENR\000"
 4493      454E5200 
ARM GAS  /tmp/cctz3RzG.s 			page 80


 4494              	.LASF176:
 4495 0013 77746D74 		.ascii	"wtmtxp\000"
 4495      787000
 4496              	.LASF159:
 4497 001a 746D5F63 		.ascii	"tm_calibration_t\000"
 4497      616C6962 
 4497      72617469 
 4497      6F6E5F74 
 4497      00
 4498              	.LASF49:
 4499 002b 74687265 		.ascii	"thread_reference_t\000"
 4499      61645F72 
 4499      65666572 
 4499      656E6365 
 4499      5F7400
 4500              	.LASF197:
 4501 003e 5254435F 		.ascii	"RTC_BOOT_OFF\000"
 4501      424F4F54 
 4501      5F4F4646 
 4501      00
 4502              	.LASF144:
 4503 004b 72656761 		.ascii	"regarm_t\000"
 4503      726D5F74 
 4503      00
 4504              	.LASF102:
 4505 0054 41504232 		.ascii	"APB2LPENR\000"
 4505      4C50454E 
 4505      5200
 4506              	.LASF88:
 4507 005e 41504232 		.ascii	"APB2RSTR\000"
 4507      52535452 
 4507      00
 4508              	.LASF40:
 4509 0067 666C6167 		.ascii	"flags\000"
 4509      7300
 4510              	.LASF77:
 4511 006d 73797374 		.ascii	"systime_t\000"
 4511      696D655F 
 4511      7400
 4512              	.LASF46:
 4513 0077 7265616C 		.ascii	"realprio\000"
 4513      7072696F 
 4513      00
 4514              	.LASF110:
 4515 0080 57555452 		.ascii	"WUTR\000"
 4515      00
 4516              	.LASF118:
 4517 0085 43414C52 		.ascii	"CALR\000"
 4517      00
 4518              	.LASF44:
 4519 008a 6570656E 		.ascii	"epending\000"
 4519      64696E67 
 4519      00
 4520              	.LASF1:
 4521 0093 756E7369 		.ascii	"unsigned int\000"
 4521      676E6564 
 4521      20696E74 
ARM GAS  /tmp/cctz3RzG.s 			page 81


 4521      00
 4522              	.LASF53:
 4523 00a0 6E657874 		.ascii	"next\000"
 4523      00
 4524              	.LASF168:
 4525 00a5 6D5F6372 		.ascii	"m_crit_isr\000"
 4525      69745F69 
 4525      737200
 4526              	.LASF50:
 4527 00b0 74687265 		.ascii	"threads_list_t\000"
 4527      6164735F 
 4527      6C697374 
 4527      5F7400
 4528              	.LASF163:
 4529 00bf 63756D75 		.ascii	"cumulative\000"
 4529      6C617469 
 4529      766500
 4530              	.LASF227:
 4531 00ca 70616C52 		.ascii	"palReadLineMode\000"
 4531      6561644C 
 4531      696E654D 
 4531      6F646500 
 4532              	.LASF9:
 4533 00da 5F5F696E 		.ascii	"__int32_t\000"
 4533      7433325F 
 4533      7400
 4534              	.LASF41:
 4535 00e4 72656673 		.ascii	"refs\000"
 4535      00
 4536              	.LASF133:
 4537 00e9 424B5031 		.ascii	"BKP10R\000"
 4537      305200
 4538              	.LASF108:
 4539 00f0 5243435F 		.ascii	"RCC_TypeDef\000"
 4539      54797065 
 4539      44656600 
 4540              	.LASF195:
 4541 00fc 696F6C69 		.ascii	"ioline_t\000"
 4541      6E655F74 
 4541      00
 4542              	.LASF74:
 4543 0105 76746C69 		.ascii	"vtlist\000"
 4543      737400
 4544              	.LASF203:
 4545 010c 746D5F6D 		.ascii	"tm_mday\000"
 4545      64617900 
 4546              	.LASF146:
 4547 0114 706F7274 		.ascii	"port_context\000"
 4547      5F636F6E 
 4547      74657874 
 4547      00
 4548              	.LASF6:
 4549 0121 73686F72 		.ascii	"short int\000"
 4549      7420696E 
 4549      7400
 4550              	.LASF58:
 4551 012b 63685F72 		.ascii	"ch_ready_list\000"
ARM GAS  /tmp/cctz3RzG.s 			page 82


 4551      65616479 
 4551      5F6C6973 
 4551      7400
 4552              	.LASF221:
 4553 0139 7574635F 		.ascii	"utc_usec\000"
 4553      75736563 
 4553      00
 4554              	.LASF234:
 4555 0142 2E2E2F2E 		.ascii	"../../libraries/AP_HAL_ChibiOS/hwdef/common/stm32_u"
 4555      2E2F6C69 
 4555      62726172 
 4555      6965732F 
 4555      41505F48 
 4556 0175 74696C2E 		.ascii	"til.c\000"
 4556      6300
 4557              	.LASF64:
 4558 017b 66756E63 		.ascii	"func\000"
 4558      00
 4559              	.LASF177:
 4560 0180 65776D61 		.ascii	"ewmask\000"
 4560      736B00
 4561              	.LASF56:
 4562 0187 70726576 		.ascii	"prev\000"
 4562      00
 4563              	.LASF98:
 4564 018c 41484232 		.ascii	"AHB2LPENR\000"
 4564      4C50454E 
 4564      5200
 4565              	.LASF154:
 4566 0196 444D4152 		.ascii	"DMAR\000"
 4566      00
 4567              	.LASF60:
 4568 019b 76746675 		.ascii	"vtfunc_t\000"
 4568      6E635F74 
 4568      00
 4569              	.LASF172:
 4570 01a4 77746F62 		.ascii	"wtobjp\000"
 4570      6A7000
 4571              	.LASF134:
 4572 01ab 424B5031 		.ascii	"BKP11R\000"
 4572      315200
 4573              	.LASF69:
 4574 01b2 63685F73 		.ascii	"ch_system_debug\000"
 4574      79737465 
 4574      6D5F6465 
 4574      62756700 
 4575              	.LASF123:
 4576 01c2 424B5030 		.ascii	"BKP0R\000"
 4576      5200
 4577              	.LASF120:
 4578 01c8 414C524D 		.ascii	"ALRMASSR\000"
 4578      41535352 
 4578      00
 4579              	.LASF19:
 4580 01d1 75696E74 		.ascii	"uint32_t\000"
 4580      33325F74 
 4580      00
ARM GAS  /tmp/cctz3RzG.s 			page 83


 4581              	.LASF174:
 4582 01da 73656E74 		.ascii	"sentmsg\000"
 4582      6D736700 
 4583              	.LASF169:
 4584 01e2 6B65726E 		.ascii	"kernel_stats_t\000"
 4584      656C5F73 
 4584      74617473 
 4584      5F7400
 4585              	.LASF202:
 4586 01f1 746D5F6D 		.ascii	"tm_mon\000"
 4586      6F6E00
 4587              	.LASF153:
 4588 01f8 42445452 		.ascii	"BDTR\000"
 4588      00
 4589              	.LASF76:
 4590 01fd 6B65726E 		.ascii	"kernel_stats\000"
 4590      656C5F73 
 4590      74617473 
 4590      00
 4591              	.LASF178:
 4592 020a 63685F73 		.ascii	"ch_semaphore\000"
 4592      656D6170 
 4592      686F7265 
 4592      00
 4593              	.LASF90:
 4594 0217 41484231 		.ascii	"AHB1ENR\000"
 4594      454E5200 
 4595              	.LASF27:
 4596 021f 74707269 		.ascii	"tprio_t\000"
 4596      6F5F7400 
 4597              	.LASF106:
 4598 0227 53534347 		.ascii	"SSCGR\000"
 4598      5200
 4599              	.LASF0:
 4600 022d 6C6F6E67 		.ascii	"long long unsigned int\000"
 4600      206C6F6E 
 4600      6720756E 
 4600      7369676E 
 4600      65642069 
 4601              	.LASF150:
 4602 0244 43434D52 		.ascii	"CCMR1\000"
 4602      3100
 4603              	.LASF151:
 4604 024a 43434D52 		.ascii	"CCMR2\000"
 4604      3200
 4605              	.LASF155:
 4606 0250 43434D52 		.ascii	"CCMR3\000"
 4606      3300
 4607              	.LASF135:
 4608 0256 424B5031 		.ascii	"BKP12R\000"
 4608      325200
 4609              	.LASF240:
 4610 025d 6872745F 		.ascii	"hrt_micros64\000"
 4610      6D696372 
 4610      6F733634 
 4610      00
 4611              	.LASF209:
ARM GAS  /tmp/cctz3RzG.s 			page 84


 4612 026a 73746D33 		.ascii	"stm32_timer_set_input_filter\000"
 4612      325F7469 
 4612      6D65725F 
 4612      7365745F 
 4612      696E7075 
 4613              	.LASF124:
 4614 0287 424B5031 		.ascii	"BKP1R\000"
 4614      5200
 4615              	.LASF62:
 4616 028d 63685F76 		.ascii	"ch_virtual_timer\000"
 4616      69727475 
 4616      616C5F74 
 4616      696D6572 
 4616      00
 4617              	.LASF226:
 4618 029e 7365745F 		.ascii	"set_fast_reboot\000"
 4618      66617374 
 4618      5F726562 
 4618      6F6F7400 
 4619              	.LASF7:
 4620 02ae 5F5F7569 		.ascii	"__uint16_t\000"
 4620      6E743136 
 4620      5F7400
 4621              	.LASF30:
 4622 02b9 636E745F 		.ascii	"cnt_t\000"
 4622      7400
 4623              	.LASF52:
 4624 02bf 63685F74 		.ascii	"ch_threads_list\000"
 4624      68726561 
 4624      64735F6C 
 4624      69737400 
 4625              	.LASF185:
 4626 02cf 4D4F4445 		.ascii	"MODER\000"
 4626      5200
 4627              	.LASF192:
 4628 02d5 41465248 		.ascii	"AFRH\000"
 4628      00
 4629              	.LASF161:
 4630 02da 776F7273 		.ascii	"worst\000"
 4630      7400
 4631              	.LASF193:
 4632 02e0 73746D33 		.ascii	"stm32_gpio_t\000"
 4632      325F6770 
 4632      696F5F74 
 4632      00
 4633              	.LASF180:
 4634 02ed 6F776E65 		.ascii	"owner\000"
 4634      7200
 4635              	.LASF85:
 4636 02f3 41484233 		.ascii	"AHB3RSTR\000"
 4636      52535452 
 4636      00
 4637              	.LASF54:
 4638 02fc 74687265 		.ascii	"threads_queue_t\000"
 4638      6164735F 
 4638      71756575 
 4638      655F7400 
ARM GAS  /tmp/cctz3RzG.s 			page 85


 4639              	.LASF184:
 4640 030c 636C6561 		.ascii	"clear\000"
 4640      7200
 4641              	.LASF45:
 4642 0312 6D74786C 		.ascii	"mtxlist\000"
 4642      69737400 
 4643              	.LASF66:
 4644 031a 63685F76 		.ascii	"ch_virtual_timers_list\000"
 4644      69727475 
 4644      616C5F74 
 4644      696D6572 
 4644      735F6C69 
 4645              	.LASF136:
 4646 0331 424B5031 		.ascii	"BKP13R\000"
 4646      335200
 4647              	.LASF32:
 4648 0338 74687265 		.ascii	"thread_t\000"
 4648      61645F74 
 4648      00
 4649              	.LASF143:
 4650 0341 5254435F 		.ascii	"RTC_TypeDef\000"
 4650      54797065 
 4650      44656600 
 4651              	.LASF125:
 4652 034d 424B5032 		.ascii	"BKP2R\000"
 4652      5200
 4653              	.LASF3:
 4654 0353 73697A65 		.ascii	"size_t\000"
 4654      5F7400
 4655              	.LASF170:
 4656 035a 7264796D 		.ascii	"rdymsg\000"
 4656      736700
 4657              	.LASF20:
 4658 0361 696E7436 		.ascii	"int64_t\000"
 4658      345F7400 
 4659              	.LASF158:
 4660 0369 6F666673 		.ascii	"offset\000"
 4660      657400
 4661              	.LASF233:
 4662 0370 474E5520 		.ascii	"GNU C 4.9.3 20150529 (prerelease) -mcpu=cortex-m4 -"
 4662      4320342E 
 4662      392E3320 
 4662      32303135 
 4662      30353239 
 4663 03a3 6D666C6F 		.ascii	"mfloat-abi=hard -mfpu=fpv4-sp-d16 -mno-thumb-interw"
 4663      61742D61 
 4663      62693D68 
 4663      61726420 
 4663      2D6D6670 
 4664 03d6 6F726B20 		.ascii	"ork -mthumb -g -Os -fomit-frame-pointer -falign-fun"
 4664      2D6D7468 
 4664      756D6220 
 4664      2D67202D 
 4664      4F73202D 
 4665 0409 6374696F 		.ascii	"ctions=16 -ffunction-sections -fdata-sections -fno-"
 4665      6E733D31 
 4665      36202D66 
ARM GAS  /tmp/cctz3RzG.s 			page 86


 4665      66756E63 
 4665      74696F6E 
 4666 043c 636F6D6D 		.ascii	"common -fsingle-precision-constant\000"
 4666      6F6E202D 
 4666      6673696E 
 4666      676C652D 
 4666      70726563 
 4667              	.LASF157:
 4668 045f 73746D33 		.ascii	"stm32_tim_t\000"
 4668      325F7469 
 4668      6D5F7400 
 4669              	.LASF235:
 4670 046b 2F686F6D 		.ascii	"/home/kozinalexey/f4by/ardupilot/build/F4BY\000"
 4670      652F6B6F 
 4670      7A696E61 
 4670      6C657865 
 4670      792F6634 
 4671              	.LASF116:
 4672 0497 54534452 		.ascii	"TSDR\000"
 4672      00
 4673              	.LASF183:
 4674 049c 5F426F6F 		.ascii	"_Bool\000"
 4674      6C00
 4675              	.LASF238:
 4676 04a2 69735F6C 		.ascii	"is_leap\000"
 4676      65617000 
 4677              	.LASF236:
 4678 04aa 7274635F 		.ascii	"rtc_boot_magic\000"
 4678      626F6F74 
 4678      5F6D6167 
 4678      696300
 4679              	.LASF179:
 4680 04b9 63685F6D 		.ascii	"ch_mutex\000"
 4680      75746578 
 4680      00
 4681              	.LASF149:
 4682 04c2 44494552 		.ascii	"DIER\000"
 4682      00
 4683              	.LASF137:
 4684 04c7 424B5031 		.ascii	"BKP14R\000"
 4684      345200
 4685              	.LASF162:
 4686 04ce 6C617374 		.ascii	"last\000"
 4686      00
 4687              	.LASF91:
 4688 04d3 41484232 		.ascii	"AHB2ENR\000"
 4688      454E5200 
 4689              	.LASF92:
 4690 04db 41484233 		.ascii	"AHB3ENR\000"
 4690      454E5200 
 4691              	.LASF196:
 4692 04e3 696F706F 		.ascii	"ioportid_t\000"
 4692      72746964 
 4692      5F7400
 4693              	.LASF200:
 4694 04ee 7574635F 		.ascii	"utc_tm\000"
 4694      746D00
ARM GAS  /tmp/cctz3RzG.s 			page 87


 4695              	.LASF126:
 4696 04f5 424B5033 		.ascii	"BKP3R\000"
 4696      5200
 4697              	.LASF111:
 4698 04fb 43414C49 		.ascii	"CALIBR\000"
 4698      425200
 4699              	.LASF219:
 4700 0502 73746D33 		.ascii	"stm32_get_utc_usec\000"
 4700      325F6765 
 4700      745F7574 
 4700      635F7573 
 4700      656300
 4701              	.LASF188:
 4702 0515 50555044 		.ascii	"PUPDR\000"
 4702      5200
 4703              	.LASF164:
 4704 051b 74696D65 		.ascii	"time_measurement_t\000"
 4704      5F6D6561 
 4704      73757265 
 4704      6D656E74 
 4704      5F7400
 4705              	.LASF87:
 4706 052e 41504231 		.ascii	"APB1RSTR\000"
 4706      52535452 
 4706      00
 4707              	.LASF34:
 4708 0537 7072696F 		.ascii	"prio\000"
 4708      00
 4709              	.LASF152:
 4710 053c 43434552 		.ascii	"CCER\000"
 4710      00
 4711              	.LASF181:
 4712 0541 63686172 		.ascii	"char\000"
 4712      00
 4713              	.LASF114:
 4714 0546 53484946 		.ascii	"SHIFTR\000"
 4714      545200
 4715              	.LASF23:
 4716 054d 72747469 		.ascii	"rttime_t\000"
 4716      6D655F74 
 4716      00
 4717              	.LASF38:
 4718 0556 77616261 		.ascii	"wabase\000"
 4718      736500
 4719              	.LASF211:
 4720 055d 696E7075 		.ascii	"input_source\000"
 4720      745F736F 
 4720      75726365 
 4720      00
 4721              	.LASF138:
 4722 056a 424B5031 		.ascii	"BKP15R\000"
 4722      355200
 4723              	.LASF201:
 4724 0571 746D5F79 		.ascii	"tm_year\000"
 4724      65617200 
 4725              	.LASF25:
 4726 0579 74737461 		.ascii	"tstate_t\000"
ARM GAS  /tmp/cctz3RzG.s 			page 88


 4726      74655F74 
 4726      00
 4727              	.LASF14:
 4728 0582 6C6F6E67 		.ascii	"long long int\000"
 4728      206C6F6E 
 4728      6720696E 
 4728      7400
 4729              	.LASF15:
 4730 0590 5F5F7569 		.ascii	"__uint64_t\000"
 4730      6E743634 
 4730      5F7400
 4731              	.LASF127:
 4732 059b 424B5034 		.ascii	"BKP4R\000"
 4732      5200
 4733              	.LASF16:
 4734 05a1 75696E74 		.ascii	"uint8_t\000"
 4734      385F7400 
 4735              	.LASF43:
 4736 05a9 6D736771 		.ascii	"msgqueue\000"
 4736      75657565 
 4736      00
 4737              	.LASF148:
 4738 05b2 534D4352 		.ascii	"SMCR\000"
 4738      00
 4739              	.LASF51:
 4740 05b7 63685F74 		.ascii	"ch_thread\000"
 4740      68726561 
 4740      6400
 4741              	.LASF218:
 4742 05c1 64617973 		.ascii	"daysinmonth\000"
 4742      696E6D6F 
 4742      6E746800 
 4743              	.LASF68:
 4744 05cd 73797374 		.ascii	"system_debug_t\000"
 4744      656D5F64 
 4744      65627567 
 4744      5F7400
 4745              	.LASF55:
 4746 05dc 63685F74 		.ascii	"ch_threads_queue\000"
 4746      68726561 
 4746      64735F71 
 4746      75657565 
 4746      00
 4747              	.LASF139:
 4748 05ed 424B5031 		.ascii	"BKP16R\000"
 4748      365200
 4749              	.LASF29:
 4750 05f4 6576656E 		.ascii	"eventmask_t\000"
 4750      746D6173 
 4750      6B5F7400 
 4751              	.LASF101:
 4752 0600 41504231 		.ascii	"APB1LPENR\000"
 4752      4C50454E 
 4752      5200
 4753              	.LASF28:
 4754 060a 6D73675F 		.ascii	"msg_t\000"
 4754      7400
ARM GAS  /tmp/cctz3RzG.s 			page 89


 4755              	.LASF128:
 4756 0610 424B5035 		.ascii	"BKP5R\000"
 4756      5200
 4757              	.LASF199:
 4758 0616 5254435F 		.ascii	"RTC_BOOT_FAST\000"
 4758      424F4F54 
 4758      5F464153 
 4758      5400
 4759              	.LASF61:
 4760 0624 76697274 		.ascii	"virtual_timer_t\000"
 4760      75616C5F 
 4760      74696D65 
 4760      725F7400 
 4761              	.LASF115:
 4762 0634 54535452 		.ascii	"TSTR\000"
 4762      00
 4763              	.LASF214:
 4764 0639 7574635F 		.ascii	"utc_sec\000"
 4764      73656300 
 4765              	.LASF140:
 4766 0641 424B5031 		.ascii	"BKP17R\000"
 4766      375200
 4767              	.LASF166:
 4768 0648 6E5F6374 		.ascii	"n_ctxswc\000"
 4768      78737763 
 4768      00
 4769              	.LASF224:
 4770 0651 7365745F 		.ascii	"set_rtc_backup\000"
 4770      7274635F 
 4770      6261636B 
 4770      757000
 4771              	.LASF95:
 4772 0660 41504232 		.ascii	"APB2ENR\000"
 4772      454E5200 
 4773              	.LASF24:
 4774 0668 746D6F64 		.ascii	"tmode_t\000"
 4774      655F7400 
 4775              	.LASF31:
 4776 0670 75636E74 		.ascii	"ucnt_t\000"
 4776      5F7400
 4777              	.LASF75:
 4778 0677 6D61696E 		.ascii	"mainthread\000"
 4778      74687265 
 4778      616400
 4779              	.LASF187:
 4780 0682 4F535045 		.ascii	"OSPEEDR\000"
 4780      45445200 
 4781              	.LASF13:
 4782 068a 5F5F696E 		.ascii	"__int64_t\000"
 4782      7436345F 
 4782      7400
 4783              	.LASF190:
 4784 0694 4C4F434B 		.ascii	"LOCKR\000"
 4784      5200
 4785              	.LASF141:
 4786 069a 424B5031 		.ascii	"BKP18R\000"
 4786      385200
ARM GAS  /tmp/cctz3RzG.s 			page 90


 4787              	.LASF17:
 4788 06a1 75696E74 		.ascii	"uint16_t\000"
 4788      31365F74 
 4788      00
 4789              	.LASF129:
 4790 06aa 424B5036 		.ascii	"BKP6R\000"
 4790      5200
 4791              	.LASF208:
 4792 06b0 66696C74 		.ascii	"filter_mode\000"
 4792      65725F6D 
 4792      6F646500 
 4793              	.LASF84:
 4794 06bc 41484232 		.ascii	"AHB2RSTR\000"
 4794      52535452 
 4794      00
 4795              	.LASF237:
 4796 06c5 70617273 		.ascii	"parse_utc_seconds\000"
 4796      655F7574 
 4796      635F7365 
 4796      636F6E64 
 4796      7300
 4797              	.LASF65:
 4798 06d7 76697274 		.ascii	"virtual_timers_list_t\000"
 4798      75616C5F 
 4798      74696D65 
 4798      72735F6C 
 4798      6973745F 
 4799              	.LASF22:
 4800 06ed 7274636E 		.ascii	"rtcnt_t\000"
 4800      745F7400 
 4801              	.LASF207:
 4802 06f5 6368616E 		.ascii	"channel\000"
 4802      6E656C00 
 4803              	.LASF130:
 4804 06fd 424B5037 		.ascii	"BKP7R\000"
 4804      5200
 4805              	.LASF212:
 4806 0703 73746D33 		.ascii	"stm32_set_utc_usec\000"
 4806      325F7365 
 4806      745F7574 
 4806      635F7573 
 4806      656300
 4807              	.LASF165:
 4808 0716 6E5F6972 		.ascii	"n_irq\000"
 4808      7100
 4809              	.LASF113:
 4810 071c 414C524D 		.ascii	"ALRMBR\000"
 4810      425200
 4811              	.LASF220:
 4812 0723 6765745F 		.ascii	"get_fattime\000"
 4812      66617474 
 4812      696D6500 
 4813              	.LASF86:
 4814 072f 52455345 		.ascii	"RESERVED0\000"
 4814      52564544 
 4814      3000
 4815              	.LASF89:
ARM GAS  /tmp/cctz3RzG.s 			page 91


 4816 0739 52455345 		.ascii	"RESERVED1\000"
 4816      52564544 
 4816      3100
 4817              	.LASF93:
 4818 0743 52455345 		.ascii	"RESERVED2\000"
 4818      52564544 
 4818      3200
 4819              	.LASF213:
 4820 074d 74696D65 		.ascii	"time_utc_usec\000"
 4820      5F757463 
 4820      5F757365 
 4820      6300
 4821              	.LASF100:
 4822 075b 52455345 		.ascii	"RESERVED4\000"
 4822      52564544 
 4822      3400
 4823              	.LASF103:
 4824 0765 52455345 		.ascii	"RESERVED5\000"
 4824      52564544 
 4824      3500
 4825              	.LASF105:
 4826 076f 52455345 		.ascii	"RESERVED6\000"
 4826      52564544 
 4826      3600
 4827              	.LASF122:
 4828 0779 52455345 		.ascii	"RESERVED7\000"
 4828      52564544 
 4828      3700
 4829              	.LASF80:
 4830 0783 5057525F 		.ascii	"PWR_TypeDef\000"
 4830      54797065 
 4830      44656600 
 4831              	.LASF10:
 4832 078f 6C6F6E67 		.ascii	"long int\000"
 4832      20696E74 
 4832      00
 4833              	.LASF147:
 4834 0798 706F7274 		.ascii	"port_intctx\000"
 4834      5F696E74 
 4834      63747800 
 4835              	.LASF232:
 4836 07a4 49544D5F 		.ascii	"ITM_RxBuffer\000"
 4836      52784275 
 4836      66666572 
 4836      00
 4837              	.LASF156:
 4838 07b1 43435852 		.ascii	"CCXR\000"
 4838      00
 4839              	.LASF142:
 4840 07b6 424B5031 		.ascii	"BKP19R\000"
 4840      395200
 4841              	.LASF112:
 4842 07bd 414C524D 		.ascii	"ALRMAR\000"
 4842      415200
 4843              	.LASF72:
 4844 07c4 63685F73 		.ascii	"ch_system\000"
 4844      79737465 
ARM GAS  /tmp/cctz3RzG.s 			page 92


 4844      6D00
 4845              	.LASF167:
 4846 07ce 6D5F6372 		.ascii	"m_crit_thd\000"
 4846      69745F74 
 4846      686400
 4847              	.LASF186:
 4848 07d9 4F545950 		.ascii	"OTYPER\000"
 4848      455200
 4849              	.LASF131:
 4850 07e0 424B5038 		.ascii	"BKP8R\000"
 4850      5200
 4851              	.LASF119:
 4852 07e6 54414643 		.ascii	"TAFCR\000"
 4852      5200
 4853              	.LASF67:
 4854 07ec 6C617374 		.ascii	"lasttime\000"
 4854      74696D65 
 4854      00
 4855              	.LASF21:
 4856 07f5 75696E74 		.ascii	"uint64_t\000"
 4856      36345F74 
 4856      00
 4857              	.LASF82:
 4858 07fe 43464752 		.ascii	"CFGR\000"
 4858      00
 4859              	.LASF73:
 4860 0803 726C6973 		.ascii	"rlist\000"
 4860      7400
 4861              	.LASF4:
 4862 0809 5F5F7569 		.ascii	"__uint8_t\000"
 4862      6E74385F 
 4862      7400
 4863              	.LASF37:
 4864 0813 6E616D65 		.ascii	"name\000"
 4864      00
 4865              	.LASF81:
 4866 0818 504C4C43 		.ascii	"PLLCFGR\000"
 4866      46475200 
 4867              	.LASF121:
 4868 0820 414C524D 		.ascii	"ALRMBSSR\000"
 4868      42535352 
 4868      00
 4869              	.LASF222:
 4870 0829 66617474 		.ascii	"fattime\000"
 4870      696D6500 
 4871              	.LASF132:
 4872 0831 424B5039 		.ascii	"BKP9R\000"
 4872      5200
 4873              	.LASF99:
 4874 0837 41484233 		.ascii	"AHB3LPENR\000"
 4874      4C50454E 
 4874      5200
 4875              	.LASF79:
 4876 0841 73697A65 		.ascii	"sizetype\000"
 4876      74797065 
 4876      00
 4877              	.LASF26:
ARM GAS  /tmp/cctz3RzG.s 			page 93


 4878 084a 74726566 		.ascii	"trefs_t\000"
 4878      735F7400 
 4879              	.LASF78:
 4880 0852 73797369 		.ascii	"sysinterval_t\000"
 4880      6E746572 
 4880      76616C5F 
 4880      7400
 4881              	.LASF216:
 4882 0860 64617973 		.ascii	"days\000"
 4882      00
 4883              	.LASF12:
 4884 0865 6C6F6E67 		.ascii	"long unsigned int\000"
 4884      20756E73 
 4884      69676E65 
 4884      6420696E 
 4884      7400
 4885              	.LASF57:
 4886 0877 72656164 		.ascii	"ready_list_t\000"
 4886      795F6C69 
 4886      73745F74 
 4886      00
 4887              	.LASF33:
 4888 0884 71756575 		.ascii	"queue\000"
 4888      6500
 4889              	.LASF18:
 4890 088a 696E7433 		.ascii	"int32_t\000"
 4890      325F7400 
 4891              	.LASF229:
 4892 0892 706F7274 		.ascii	"port\000"
 4892      00
 4893              	.LASF175:
 4894 0897 77747365 		.ascii	"wtsemp\000"
 4894      6D7000
 4895              	.LASF205:
 4896 089e 746D5F6D 		.ascii	"tm_min\000"
 4896      696E00
 4897              	.LASF182:
 4898 08a5 6D757465 		.ascii	"mutex_t\000"
 4898      785F7400 
 4899              	.LASF35:
 4900 08ad 6E657765 		.ascii	"newer\000"
 4900      7200
 4901              	.LASF223:
 4902 08b3 6765745F 		.ascii	"get_rtc_backup\000"
 4902      7274635F 
 4902      6261636B 
 4902      757000
 4903              	.LASF107:
 4904 08c2 504C4C49 		.ascii	"PLLI2SCFGR\000"
 4904      32534346 
 4904      475200
 4905              	.LASF160:
 4906 08cd 62657374 		.ascii	"best\000"
 4906      00
 4907              	.LASF5:
 4908 08d2 756E7369 		.ascii	"unsigned char\000"
 4908      676E6564 
ARM GAS  /tmp/cctz3RzG.s 			page 94


 4908      20636861 
 4908      7200
 4909              	.LASF231:
 4910 08e0 6E646179 		.ascii	"ndays\000"
 4910      7300
 4911              	.LASF191:
 4912 08e6 4146524C 		.ascii	"AFRL\000"
 4912      00
 4913              	.LASF11:
 4914 08eb 5F5F7569 		.ascii	"__uint32_t\000"
 4914      6E743332 
 4914      5F7400
 4915              	.LASF42:
 4916 08f6 77616974 		.ascii	"waiting\000"
 4916      696E6700 
 4917              	.LASF228:
 4918 08fe 6C696E65 		.ascii	"line\000"
 4918      00
 4919              	.LASF210:
 4920 0903 73746D33 		.ascii	"stm32_timer_set_channel_input\000"
 4920      325F7469 
 4920      6D65725F 
 4920      7365745F 
 4920      6368616E 
 4921              	.LASF70:
 4922 0921 70616E69 		.ascii	"panic_msg\000"
 4922      635F6D73 
 4922      6700
 4923              	.LASF109:
 4924 092b 50524552 		.ascii	"PRER\000"
 4924      00
 4925              	.LASF39:
 4926 0930 73746174 		.ascii	"state\000"
 4926      6500
 4927              	.LASF239:
 4928 0936 70657269 		.ascii	"peripheral_power_enable\000"
 4928      70686572 
 4928      616C5F70 
 4928      6F776572 
 4928      5F656E61 
 4929              	.LASF198:
 4930 094e 5254435F 		.ascii	"RTC_BOOT_HOLD\000"
 4930      424F4F54 
 4930      5F484F4C 
 4930      4400
 4931              	.LASF230:
 4932 095c 7574635F 		.ascii	"utc_time_offset\000"
 4932      74696D65 
 4932      5F6F6666 
 4932      73657400 
 4933              	.LASF48:
 4934 096c 73746174 		.ascii	"stats\000"
 4934      7300
 4935              	.LASF71:
 4936 0972 63685F73 		.ascii	"ch_system_t\000"
 4936      79737465 
 4936      6D5F7400 
ARM GAS  /tmp/cctz3RzG.s 			page 95


 4937              	.LASF194:
 4938 097e 696F6D6F 		.ascii	"iomode_t\000"
 4938      64655F74 
 4938      00
 4939              	.LASF97:
 4940 0987 41484231 		.ascii	"AHB1LPENR\000"
 4940      4C50454E 
 4940      5200
 4941              	.LASF204:
 4942 0991 746D5F68 		.ascii	"tm_hour\000"
 4942      6F757200 
 4943              	.LASF2:
 4944 0999 7369676E 		.ascii	"signed char\000"
 4944      65642063 
 4944      68617200 
 4945              	.LASF104:
 4946 09a5 42444352 		.ascii	"BDCR\000"
 4946      00
 4947              	.LASF63:
 4948 09aa 64656C74 		.ascii	"delta\000"
 4948      6100
 4949              	.LASF8:
 4950 09b0 73686F72 		.ascii	"short unsigned int\000"
 4950      7420756E 
 4950      7369676E 
 4950      65642069 
 4950      6E7400
 4951              	.LASF206:
 4952 09c3 746D5F73 		.ascii	"tm_sec\000"
 4952      656300
 4953              	.LASF145:
 4954 09ca 73746B61 		.ascii	"stkalign_t\000"
 4954      6C69676E 
 4954      5F7400
 4955              	.LASF225:
 4956 09d5 63686563 		.ascii	"check_fast_reboot\000"
 4956      6B5F6661 
 4956      73745F72 
 4956      65626F6F 
 4956      7400
 4957              	.LASF59:
 4958 09e7 63757272 		.ascii	"current\000"
 4958      656E7400 
 4959              	.LASF217:
 4960 09ef 64617969 		.ascii	"dayinyear\000"
 4960      6E796561 
 4960      7200
 4961              	.LASF96:
 4962 09f9 52455345 		.ascii	"RESERVED3\000"
 4962      52564544 
 4962      3300
 4963              	.LASF215:
 4964 0a03 73656364 		.ascii	"secday\000"
 4964      617900
 4965              	.LASF173:
 4966 0a0a 77747472 		.ascii	"wttrp\000"
 4966      7000
ARM GAS  /tmp/cctz3RzG.s 			page 96


 4967              	.LASF36:
 4968 0a10 6F6C6465 		.ascii	"older\000"
 4968      7200
 4969              	.LASF171:
 4970 0a16 65786974 		.ascii	"exitcode\000"
 4970      636F6465 
 4970      00
 4971              	.LASF83:
 4972 0a1f 41484231 		.ascii	"AHB1RSTR\000"
 4972      52535452 
 4972      00
 4973              	.LASF47:
 4974 0a28 6D706F6F 		.ascii	"mpool\000"
 4974      6C00
 4975              		.ident	"GCC: (15:4.9.3+svn231177-1) 4.9.3 20150529 (prerelease)"
ARM GAS  /tmp/cctz3RzG.s 			page 97


DEFINED SYMBOLS
                            *ABS*:0000000000000000 stm32_util.c
     /tmp/cctz3RzG.s:21     .text.stm32_timer_set_input_filter:0000000000000000 $t
     /tmp/cctz3RzG.s:26     .text.stm32_timer_set_input_filter:0000000000000000 stm32_timer_set_input_filter
     /tmp/cctz3RzG.s:40     .text.stm32_timer_set_input_filter:0000000000000008 $d
     /tmp/cctz3RzG.s:44     .text.stm32_timer_set_input_filter:000000000000000c $t
     /tmp/cctz3RzG.s:82     .text.stm32_timer_set_channel_input:0000000000000000 $t
     /tmp/cctz3RzG.s:87     .text.stm32_timer_set_channel_input:0000000000000000 stm32_timer_set_channel_input
     /tmp/cctz3RzG.s:100    .text.stm32_timer_set_channel_input:0000000000000008 $d
     /tmp/cctz3RzG.s:104    .text.stm32_timer_set_channel_input:000000000000000c $t
     /tmp/cctz3RzG.s:187    .text.stm32_set_utc_usec:0000000000000000 $t
     /tmp/cctz3RzG.s:192    .text.stm32_set_utc_usec:0000000000000000 stm32_set_utc_usec
     /tmp/cctz3RzG.s:226    .text.stm32_set_utc_usec:0000000000000020 $d
     /tmp/cctz3RzG.s:231    .text.stm32_get_utc_usec:0000000000000000 $t
     /tmp/cctz3RzG.s:236    .text.stm32_get_utc_usec:0000000000000000 stm32_get_utc_usec
     /tmp/cctz3RzG.s:258    .text.stm32_get_utc_usec:0000000000000014 $d
     /tmp/cctz3RzG.s:264    .text.get_fattime:0000000000000000 $t
     /tmp/cctz3RzG.s:269    .text.get_fattime:0000000000000000 get_fattime
     /tmp/cctz3RzG.s:488    .text.get_fattime:0000000000000124 $d
     /tmp/cctz3RzG.s:497    .text.get_rtc_backup:0000000000000000 $t
     /tmp/cctz3RzG.s:502    .text.get_rtc_backup:0000000000000000 get_rtc_backup
     /tmp/cctz3RzG.s:538    .text.get_rtc_backup:000000000000001c $d
     /tmp/cctz3RzG.s:543    .text.set_rtc_backup:0000000000000000 $t
     /tmp/cctz3RzG.s:548    .text.set_rtc_backup:0000000000000000 set_rtc_backup
     /tmp/cctz3RzG.s:606    .text.set_rtc_backup:0000000000000044 $d
     /tmp/cctz3RzG.s:613    .text.check_fast_reboot:0000000000000000 $t
     /tmp/cctz3RzG.s:618    .text.check_fast_reboot:0000000000000000 check_fast_reboot
     /tmp/cctz3RzG.s:643    .text.set_fast_reboot:0000000000000000 $t
     /tmp/cctz3RzG.s:648    .text.set_fast_reboot:0000000000000000 set_fast_reboot
     /tmp/cctz3RzG.s:678    .text.peripheral_power_enable:0000000000000000 $t
     /tmp/cctz3RzG.s:683    .text.peripheral_power_enable:0000000000000000 peripheral_power_enable
     /tmp/cctz3RzG.s:695    .text.palReadLineMode:0000000000000000 $t
     /tmp/cctz3RzG.s:700    .text.palReadLineMode:0000000000000000 palReadLineMode
     /tmp/cctz3RzG.s:791    .rodata.ndays:0000000000000000 ndays
     /tmp/cctz3RzG.s:817    .bss.utc_time_offset:0000000000000000 $d
     /tmp/cctz3RzG.s:821    .bss.utc_time_offset:0000000000000000 utc_time_offset
                     .debug_frame:0000000000000010 $d

UNDEFINED SYMBOLS
hrt_micros64
__aeabi_uldivmod
