ARM GAS  /tmp/cctz3RzG.s 			page 1


   1              		.syntax unified
   2              		.cpu cortex-m4
   3              		.eabi_attribute 27, 1
   4              		.eabi_attribute 28, 1
   5              		.fpu fpv4-sp-d16
   6              		.eabi_attribute 20, 1
   7              		.eabi_attribute 21, 1
   8              		.eabi_attribute 23, 3
   9              		.eabi_attribute 24, 1
  10              		.eabi_attribute 25, 1
  11              		.eabi_attribute 26, 1
  12              		.eabi_attribute 30, 4
  13              		.eabi_attribute 34, 1
  14              		.eabi_attribute 18, 4
  15              		.thumb
  16              		.file	"stm32_util.c"
  17              		.text
  18              	.Ltext0:
  19              		.cfi_sections	.debug_frame
  20              		.section	.text.stm32_timer_set_input_filter,"ax",%progbits
  21              		.align	1
  22              		.global	stm32_timer_set_input_filter
  23              		.thumb
  24              		.thumb_func
  25              		.type	stm32_timer_set_input_filter, %function
  26              	stm32_timer_set_input_filter:
  27              	.LFB323:
  28              		.file 1 "../../libraries/AP_HAL_ChibiOS/hwdef/common/stm32_util.c"
  29              		.loc 1 29 0
  30              		.cfi_startproc
  31              		@ args = 0, pretend = 0, frame = 0
  32              		@ frame_needed = 0, uses_anonymous_args = 0
  33              		@ link register save eliminated.
  34              	.LVL0:
  35              		.loc 1 30 0
  36 0000 0329     		cmp	r1, #3
  37 0002 14D8     		bhi	.L1
  38 0004 DFE801F0 		tbb	[pc, r1]
  39              	.L4:
  40 0008 02       		.byte	(.L3-.L4)/2
  41 0009 06       		.byte	(.L5-.L4)/2
  42 000a 0B       		.byte	(.L6-.L4)/2
  43 000b 0F       		.byte	(.L7-.L4)/2
  44              		.p2align 1
  45              	.L3:
  46              		.loc 1 32 0
  47 000c 8369     		ldr	r3, [r0, #24]
  48 000e 43EA0212 		orr	r2, r3, r2, lsl #4
  49              	.LVL1:
  50 0012 02E0     		b	.L8
  51              	.LVL2:
  52              	.L5:
  53              		.loc 1 35 0
  54 0014 8369     		ldr	r3, [r0, #24]
  55 0016 43EA0232 		orr	r2, r3, r2, lsl #12
  56              	.LVL3:
  57              	.L8:
ARM GAS  /tmp/cctz3RzG.s 			page 2


  58 001a 8261     		str	r2, [r0, #24]
  59              		.loc 1 36 0
  60 001c 7047     		bx	lr
  61              	.LVL4:
  62              	.L6:
  63              		.loc 1 38 0
  64 001e C369     		ldr	r3, [r0, #28]
  65 0020 43EA0212 		orr	r2, r3, r2, lsl #4
  66              	.LVL5:
  67 0024 02E0     		b	.L9
  68              	.LVL6:
  69              	.L7:
  70              		.loc 1 41 0
  71 0026 C369     		ldr	r3, [r0, #28]
  72 0028 43EA0232 		orr	r2, r3, r2, lsl #12
  73              	.LVL7:
  74              	.L9:
  75 002c C261     		str	r2, [r0, #28]
  76              	.L1:
  77 002e 7047     		bx	lr
  78              		.cfi_endproc
  79              	.LFE323:
  80              		.size	stm32_timer_set_input_filter, .-stm32_timer_set_input_filter
  81              		.section	.text.stm32_timer_set_channel_input,"ax",%progbits
  82              		.align	1
  83              		.global	stm32_timer_set_channel_input
  84              		.thumb
  85              		.thumb_func
  86              		.type	stm32_timer_set_channel_input, %function
  87              	stm32_timer_set_channel_input:
  88              	.LFB324:
  89              		.loc 1 50 0
  90              		.cfi_startproc
  91              		@ args = 0, pretend = 0, frame = 0
  92              		@ frame_needed = 0, uses_anonymous_args = 0
  93              		@ link register save eliminated.
  94              	.LVL8:
  95              		.loc 1 51 0
  96 0000 0329     		cmp	r1, #3
  97 0002 41D8     		bhi	.L11
  98 0004 DFE801F0 		tbb	[pc, r1]
  99              	.L14:
 100 0008 02       		.byte	(.L13-.L14)/2
 101 0009 11       		.byte	(.L15-.L14)/2
 102 000a 21       		.byte	(.L16-.L14)/2
 103 000b 30       		.byte	(.L17-.L14)/2
 104              		.p2align 1
 105              	.L13:
 106              		.loc 1 53 0
 107 000c 036A     		ldr	r3, [r0, #32]
 108 000e 23F00103 		bic	r3, r3, #1
 109 0012 0362     		str	r3, [r0, #32]
 110              		.loc 1 54 0
 111 0014 8369     		ldr	r3, [r0, #24]
 112 0016 23F00303 		bic	r3, r3, #3
 113 001a 8361     		str	r3, [r0, #24]
 114              		.loc 1 55 0
ARM GAS  /tmp/cctz3RzG.s 			page 3


 115 001c 8369     		ldr	r3, [r0, #24]
 116 001e 1A43     		orrs	r2, r2, r3
 117              	.LVL9:
 118 0020 8261     		str	r2, [r0, #24]
 119              		.loc 1 56 0
 120 0022 036A     		ldr	r3, [r0, #32]
 121 0024 43F00103 		orr	r3, r3, #1
 122 0028 2DE0     		b	.L18
 123              	.LVL10:
 124              	.L15:
 125              		.loc 1 59 0
 126 002a 036A     		ldr	r3, [r0, #32]
 127 002c 23F01003 		bic	r3, r3, #16
 128 0030 0362     		str	r3, [r0, #32]
 129              		.loc 1 60 0
 130 0032 8369     		ldr	r3, [r0, #24]
 131 0034 23F44073 		bic	r3, r3, #768
 132 0038 8361     		str	r3, [r0, #24]
 133              		.loc 1 61 0
 134 003a 8369     		ldr	r3, [r0, #24]
 135 003c 43EA0222 		orr	r2, r3, r2, lsl #8
 136              	.LVL11:
 137 0040 8261     		str	r2, [r0, #24]
 138              		.loc 1 62 0
 139 0042 036A     		ldr	r3, [r0, #32]
 140 0044 43F01003 		orr	r3, r3, #16
 141 0048 1DE0     		b	.L18
 142              	.LVL12:
 143              	.L16:
 144              		.loc 1 65 0
 145 004a 036A     		ldr	r3, [r0, #32]
 146 004c 23F48073 		bic	r3, r3, #256
 147 0050 0362     		str	r3, [r0, #32]
 148              		.loc 1 66 0
 149 0052 C369     		ldr	r3, [r0, #28]
 150 0054 23F00303 		bic	r3, r3, #3
 151 0058 C361     		str	r3, [r0, #28]
 152              		.loc 1 67 0
 153 005a C369     		ldr	r3, [r0, #28]
 154 005c 1A43     		orrs	r2, r2, r3
 155              	.LVL13:
 156 005e C261     		str	r2, [r0, #28]
 157              		.loc 1 68 0
 158 0060 036A     		ldr	r3, [r0, #32]
 159 0062 43F48073 		orr	r3, r3, #256
 160 0066 0EE0     		b	.L18
 161              	.LVL14:
 162              	.L17:
 163              		.loc 1 71 0
 164 0068 036A     		ldr	r3, [r0, #32]
 165 006a 23F48053 		bic	r3, r3, #4096
 166 006e 0362     		str	r3, [r0, #32]
 167              		.loc 1 72 0
 168 0070 C369     		ldr	r3, [r0, #28]
 169 0072 23F44073 		bic	r3, r3, #768
 170 0076 C361     		str	r3, [r0, #28]
 171              		.loc 1 73 0
ARM GAS  /tmp/cctz3RzG.s 			page 4


 172 0078 C369     		ldr	r3, [r0, #28]
 173 007a 43EA0222 		orr	r2, r3, r2, lsl #8
 174              	.LVL15:
 175 007e C261     		str	r2, [r0, #28]
 176              		.loc 1 74 0
 177 0080 036A     		ldr	r3, [r0, #32]
 178 0082 43F48053 		orr	r3, r3, #4096
 179              	.L18:
 180 0086 0362     		str	r3, [r0, #32]
 181              	.L11:
 182 0088 7047     		bx	lr
 183              		.cfi_endproc
 184              	.LFE324:
 185              		.size	stm32_timer_set_channel_input, .-stm32_timer_set_channel_input
 186              		.section	.text.stm32_set_utc_usec,"ax",%progbits
 187              		.align	1
 188              		.global	stm32_set_utc_usec
 189              		.thumb
 190              		.thumb_func
 191              		.type	stm32_set_utc_usec, %function
 192              	stm32_set_utc_usec:
 193              	.LFB325:
 194              		.loc 1 102 0
 195              		.cfi_startproc
 196              		@ args = 0, pretend = 0, frame = 0
 197              		@ frame_needed = 0, uses_anonymous_args = 0
 198              	.LVL16:
 199 0000 38B5     		push	{r3, r4, r5, lr}
 200              		.cfi_def_cfa_offset 16
 201              		.cfi_offset 3, -16
 202              		.cfi_offset 4, -12
 203              		.cfi_offset 5, -8
 204              		.cfi_offset 14, -4
 205              		.loc 1 102 0
 206 0002 0446     		mov	r4, r0
 207 0004 0D46     		mov	r5, r1
 208              		.loc 1 103 0
 209 0006 FFF7FEFF 		bl	hrt_micros64
 210              	.LVL17:
 211              		.loc 1 104 0
 212 000a 8D42     		cmp	r5, r1
 213 000c 08BF     		it	eq
 214 000e 8442     		cmpeq	r4, r0
 215 0010 05D3     		bcc	.L19
 216              		.loc 1 105 0
 217 0012 241A     		subs	r4, r4, r0
 218 0014 024B     		ldr	r3, .L21
 219 0016 65EB0105 		sbc	r5, r5, r1
 220 001a C3E90045 		strd	r4, [r3]
 221              	.L19:
 222 001e 38BD     		pop	{r3, r4, r5, pc}
 223              	.L22:
 224              		.align	2
 225              	.L21:
 226 0020 00000000 		.word	.LANCHOR0
 227              		.cfi_endproc
 228              	.LFE325:
ARM GAS  /tmp/cctz3RzG.s 			page 5


 229              		.size	stm32_set_utc_usec, .-stm32_set_utc_usec
 230              		.section	.text.stm32_get_utc_usec,"ax",%progbits
 231              		.align	1
 232              		.global	stm32_get_utc_usec
 233              		.thumb
 234              		.thumb_func
 235              		.type	stm32_get_utc_usec, %function
 236              	stm32_get_utc_usec:
 237              	.LFB326:
 238              		.loc 1 113 0
 239              		.cfi_startproc
 240              		@ args = 0, pretend = 0, frame = 0
 241              		@ frame_needed = 0, uses_anonymous_args = 0
 242 0000 08B5     		push	{r3, lr}
 243              		.cfi_def_cfa_offset 8
 244              		.cfi_offset 3, -8
 245              		.cfi_offset 14, -4
 246              		.loc 1 114 0
 247 0002 FFF7FEFF 		bl	hrt_micros64
 248              	.LVL18:
 249 0006 034B     		ldr	r3, .L24
 250 0008 D3E90023 		ldrd	r2, [r3]
 251              		.loc 1 115 0
 252 000c 8018     		adds	r0, r0, r2
 253 000e 5941     		adcs	r1, r1, r3
 254 0010 08BD     		pop	{r3, pc}
 255              	.L25:
 256 0012 00BF     		.align	2
 257              	.L24:
 258 0014 00000000 		.word	.LANCHOR0
 259              		.cfi_endproc
 260              	.LFE326:
 261              		.size	stm32_get_utc_usec, .-stm32_get_utc_usec
 262              		.global	__aeabi_uldivmod
 263              		.section	.text.get_fattime,"ax",%progbits
 264              		.align	1
 265              		.global	get_fattime
 266              		.thumb
 267              		.thumb_func
 268              		.type	get_fattime, %function
 269              	get_fattime:
 270              	.LFB329:
 271              		.loc 1 189 0
 272              		.cfi_startproc
 273              		@ args = 0, pretend = 0, frame = 8
 274              		@ frame_needed = 0, uses_anonymous_args = 0
 275              		.loc 1 190 0
 276 0000 484B     		ldr	r3, .L38
 277              		.loc 1 189 0
 278 0002 2DE9F743 		push	{r0, r1, r2, r4, r5, r6, r7, r8, r9, lr}
 279              		.cfi_def_cfa_offset 40
 280              		.cfi_offset 4, -28
 281              		.cfi_offset 5, -24
 282              		.cfi_offset 6, -20
 283              		.cfi_offset 7, -16
 284              		.cfi_offset 8, -12
 285              		.cfi_offset 9, -8
ARM GAS  /tmp/cctz3RzG.s 			page 6


 286              		.cfi_offset 14, -4
 287              		.loc 1 190 0
 288 0006 D3E90023 		ldrd	r2, [r3]
 289 000a 1343     		orrs	r3, r2, r3
 290 000c 00F08580 		beq	.L34
 291              		.loc 1 194 0
 292 0010 FFF7FEFF 		bl	stm32_get_utc_usec
 293              	.LVL19:
 294              		.loc 1 195 0
 295 0014 444A     		ldr	r2, .L38+4
 296              	.LBB8:
 297              	.LBB9:
 298              		.loc 1 156 0
 299 0016 DFF81C81 		ldr	r8, .L38+16
 300              	.LBE9:
 301              	.LBE8:
 302              		.loc 1 195 0
 303 001a 0023     		movs	r3, #0
 304 001c FFF7FEFF 		bl	__aeabi_uldivmod
 305              	.LVL20:
 306              	.LBB18:
 307              	.LBB16:
 308              		.loc 1 146 0
 309 0020 424A     		ldr	r2, .L38+8
 310 0022 0023     		movs	r3, #0
 311              	.LBE16:
 312              	.LBE18:
 313              		.loc 1 195 0
 314 0024 0646     		mov	r6, r0
 315 0026 0F46     		mov	r7, r1
 316              	.LVL21:
 317              	.LBB19:
 318              	.LBB17:
 319              		.loc 1 146 0
 320 0028 FFF7FEFF 		bl	__aeabi_uldivmod
 321              	.LVL22:
 322              		.loc 1 147 0
 323 002c 3046     		mov	r0, r6
 324              		.loc 1 146 0
 325 002e 1446     		mov	r4, r2
 326              	.LVL23:
 327              		.loc 1 147 0
 328 0030 3946     		mov	r1, r7
 329 0032 3E4A     		ldr	r2, .L38+8
 330              	.LVL24:
 331 0034 0023     		movs	r3, #0
 332 0036 FFF7FEFF 		bl	__aeabi_uldivmod
 333              	.LVL25:
 334              		.loc 1 151 0
 335 003a 3C22     		movs	r2, #60
 336              		.loc 1 149 0
 337 003c 0023     		movs	r3, #0
 338 003e 0093     		str	r3, [sp]
 339              		.loc 1 156 0
 340 0040 4FF00009 		mov	r9, #0
 341              		.loc 1 151 0
 342 0044 B4FBF2F3 		udiv	r3, r4, r2
ARM GAS  /tmp/cctz3RzG.s 			page 7


 343 0048 02FB1343 		mls	r3, r2, r3, r4
 344 004c DEB2     		uxtb	r6, r3
 345              	.LVL26:
 346              		.loc 1 156 0
 347 004e 8945     		cmp	r9, r1
 348              		.loc 1 152 0
 349 0050 4FF46163 		mov	r3, #3600
 350              		.loc 1 156 0
 351 0054 08BF     		it	eq
 352 0056 8045     		cmpeq	r8, r0
 353              		.loc 1 152 0
 354 0058 B4FBF3F7 		udiv	r7, r4, r3
 355 005c 03FB1743 		mls	r3, r3, r7, r4
 356              		.loc 1 154 0
 357 0060 4FF04604 		mov	r4, #70
 358              	.LVL27:
 359              		.loc 1 152 0
 360 0064 B3FBF2F2 		udiv	r2, r3, r2
 361              		.loc 1 154 0
 362 0068 8DF80040 		strb	r4, [sp]
 363              		.loc 1 156 0
 364 006c 41D3     		bcc	.L28
 365              		.loc 1 147 0
 366 006e 0146     		mov	r1, r0
 367              	.LVL28:
 368              	.L32:
 369              	.LBB10:
 370              	.LBB11:
 371              	.LBB12:
 372              		.loc 1 132 0
 373 0070 04F26C73 		addw	r3, r4, #1900
 374              	.LVL29:
 375              		.loc 1 133 0
 376 0074 9807     		lsls	r0, r3, #30
 377 0076 16D1     		bne	.L35
 378 0078 6425     		movs	r5, #100
 379 007a B3FBF5F0 		udiv	r0, r3, r5
 380 007e 05FB1030 		mls	r0, r5, r0, r3
 381 0082 A8B9     		cbnz	r0, .L36
 382 0084 4FF4C875 		mov	r5, #400
 383 0088 B3FBF5F0 		udiv	r0, r3, r5
 384 008c 05FB1033 		mls	r3, r5, r0, r3
 385              	.LVL30:
 386 0090 002B     		cmp	r3, #0
 387 0092 40F26D15 		movw	r5, #365
 388 0096 12BF     		itee	ne
 389 0098 4FF0000E 		movne	lr, #0
 390 009c 4FF0010E 		moveq	lr, #1
 391 00a0 4FF4B775 		moveq	r5, #366
 392 00a4 08E0     		b	.L29
 393              	.LVL31:
 394              	.L35:
 395 00a6 4FF0000E 		mov	lr, #0
 396              	.LBE12:
 397              	.LBE11:
 398              		.loc 1 162 0
 399 00aa 40F26D15 		movw	r5, #365
ARM GAS  /tmp/cctz3RzG.s 			page 8


 400 00ae 03E0     		b	.L29
 401              	.L36:
 402              	.LBB14:
 403              	.LBB13:
 404              		.loc 1 133 0
 405 00b0 4FF0010E 		mov	lr, #1
 406              	.LBE13:
 407              	.LBE14:
 408              		.loc 1 162 0
 409 00b4 4FF4B775 		mov	r5, #366
 410              	.LVL32:
 411              	.L29:
 412 00b8 631C     		adds	r3, r4, #1
 413              		.loc 1 163 0
 414 00ba A942     		cmp	r1, r5
 415 00bc DBB2     		uxtb	r3, r3
 416 00be 04D2     		bcs	.L30
 417 00c0 8DF80040 		strb	r4, [sp]
 418 00c4 9DF80130 		ldrb	r3, [sp, #1]	@ zero_extendqisi2
 419 00c8 02E0     		b	.L31
 420              	.L30:
 421              		.loc 1 167 0
 422 00ca 491B     		subs	r1, r1, r5
 423              	.LVL33:
 424 00cc 1C46     		mov	r4, r3
 425              	.LVL34:
 426 00ce CFE7     		b	.L32
 427              	.L31:
 428              	.LBE10:
 429              	.LBB15:
 430              		.loc 1 172 0
 431 00d0 0C20     		movs	r0, #12
 432 00d2 00FB0E30 		mla	r0, r0, lr, r3
 433 00d6 164C     		ldr	r4, .L38+12
 434 00d8 245C     		ldrb	r4, [r4, r0]	@ zero_extendqisi2
 435              	.LVL35:
 436 00da 581C     		adds	r0, r3, #1
 437              		.loc 1 173 0
 438 00dc A142     		cmp	r1, r4
 439 00de C0B2     		uxtb	r0, r0
 440 00e0 02D3     		bcc	.L33
 441              		.loc 1 176 0
 442 00e2 091B     		subs	r1, r1, r4
 443              	.LVL36:
 444 00e4 0346     		mov	r3, r0
 445 00e6 F3E7     		b	.L31
 446              	.L33:
 447              	.LBE15:
 448              		.loc 1 179 0
 449 00e8 0131     		adds	r1, r1, #1
 450              	.LVL37:
 451 00ea 8DF80130 		strb	r3, [sp, #1]
 452 00ee 8DF80210 		strb	r1, [sp, #2]
 453              	.LVL38:
 454              	.L28:
 455              	.LBE17:
 456              	.LBE19:
ARM GAS  /tmp/cctz3RzG.s 			page 9


 457              		.loc 1 206 0
 458 00f2 9DF80110 		ldrb	r1, [sp, #1]	@ zero_extendqisi2
 459 00f6 4B1C     		adds	r3, r1, #1
 460              		.loc 1 207 0
 461 00f8 9DF80010 		ldrb	r1, [sp]	@ zero_extendqisi2
 462 00fc 5039     		subs	r1, r1, #80
 463 00fe 4906     		lsls	r1, r1, #25
 464 0100 41EA4351 		orr	r1, r1, r3, lsl #21
 465              		.loc 1 205 0
 466 0104 9DF80230 		ldrb	r3, [sp, #2]	@ zero_extendqisi2
 467 0108 41EA0341 		orr	r1, r1, r3, lsl #16
 468 010c 41EA5603 		orr	r3, r1, r6, lsr #1
 469 0110 43EAC723 		orr	r3, r3, r7, lsl #11
 470              		.loc 1 207 0
 471 0114 43EA4210 		orr	r0, r3, r2, lsl #5
 472              	.LVL39:
 473              		.loc 1 209 0
 474 0118 01E0     		b	.L27
 475              	.LVL40:
 476              	.L34:
 477              		.loc 1 192 0
 478 011a 4FF40410 		mov	r0, #2162688
 479              	.L27:
 480              		.loc 1 210 0
 481 011e 03B0     		add	sp, sp, #12
 482              		.cfi_def_cfa_offset 28
 483              		@ sp needed
 484 0120 BDE8F083 		pop	{r4, r5, r6, r7, r8, r9, pc}
 485              	.L39:
 486              		.align	2
 487              	.L38:
 488 0124 00000000 		.word	.LANCHOR0
 489 0128 40420F00 		.word	1000000
 490 012c 80510100 		.word	86400
 491 0130 00000000 		.word	.LANCHOR1
 492 0134 90230B00 		.word	730000
 493              		.cfi_endproc
 494              	.LFE329:
 495              		.size	get_fattime, .-get_fattime
 496              		.section	.text.get_rtc_backup,"ax",%progbits
 497              		.align	1
 498              		.global	get_rtc_backup
 499              		.thumb
 500              		.thumb_func
 501              		.type	get_rtc_backup, %function
 502              	get_rtc_backup:
 503              	.LFB330:
 504              		.loc 1 216 0
 505              		.cfi_startproc
 506              		@ args = 0, pretend = 0, frame = 0
 507              		@ frame_needed = 0, uses_anonymous_args = 0
 508              	.LVL41:
 509 0000 10B5     		push	{r4, lr}
 510              		.cfi_def_cfa_offset 8
 511              		.cfi_offset 4, -8
 512              		.cfi_offset 14, -4
 513 0002 0244     		add	r2, r2, r0
ARM GAS  /tmp/cctz3RzG.s 			page 10


 514              	.LVL42:
 515 0004 D2B2     		uxtb	r2, r2
 516              	.LVL43:
 517              	.L41:
 518              		.loc 1 217 0
 519 0006 9042     		cmp	r0, r2
 520 0008 07D0     		beq	.L43
 521              		.loc 1 218 0
 522 000a 441C     		adds	r4, r0, #1
 523              	.LVL44:
 524 000c 034B     		ldr	r3, .L44
 525 000e 8000     		lsls	r0, r0, #2
 526 0010 1B58     		ldr	r3, [r3, r0]
 527 0012 41F8043B 		str	r3, [r1], #4
 528              	.LVL45:
 529 0016 E0B2     		uxtb	r0, r4
 530 0018 F5E7     		b	.L41
 531              	.LVL46:
 532              	.L43:
 533              		.loc 1 220 0
 534 001a 10BD     		pop	{r4, pc}
 535              	.L45:
 536              		.align	2
 537              	.L44:
 538 001c 50280040 		.word	1073752144
 539              		.cfi_endproc
 540              	.LFE330:
 541              		.size	get_rtc_backup, .-get_rtc_backup
 542              		.section	.text.set_rtc_backup,"ax",%progbits
 543              		.align	1
 544              		.global	set_rtc_backup
 545              		.thumb
 546              		.thumb_func
 547              		.type	set_rtc_backup, %function
 548              	set_rtc_backup:
 549              	.LFB331:
 550              		.loc 1 224 0
 551              		.cfi_startproc
 552              		@ args = 0, pretend = 0, frame = 0
 553              		@ frame_needed = 0, uses_anonymous_args = 0
 554              	.LVL47:
 555              		.loc 1 225 0
 556 0000 104B     		ldr	r3, .L51
 557              		.loc 1 224 0
 558 0002 10B5     		push	{r4, lr}
 559              		.cfi_def_cfa_offset 8
 560              		.cfi_offset 4, -8
 561              		.cfi_offset 14, -4
 562              		.loc 1 225 0
 563 0004 1C6F     		ldr	r4, [r3, #112]
 564 0006 2404     		lsls	r4, r4, #16
 565              		.loc 1 226 0
 566 0008 5FBF     		itttt	pl
 567 000a 1C6F     		ldrpl	r4, [r3, #112]
 568 000c 44F40074 		orrpl	r4, r4, #512
 569 0010 1C67     		strpl	r4, [r3, #112]
 570              		.loc 1 227 0
ARM GAS  /tmp/cctz3RzG.s 			page 11


 571 0012 1C6F     		ldrpl	r4, [r3, #112]
 572 0014 5CBF     		itt	pl
 573 0016 44F40044 		orrpl	r4, r4, #32768
 574 001a 1C67     		strpl	r4, [r3, #112]
 575              		.loc 1 230 0
 576 001c 0A4C     		ldr	r4, .L51+4
 577 001e 2368     		ldr	r3, [r4]
 578 0020 0244     		add	r2, r2, r0
 579              	.LVL48:
 580 0022 43F48073 		orr	r3, r3, #256
 581 0026 2360     		str	r3, [r4]
 582 0028 D2B2     		uxtb	r2, r2
 583              	.LVL49:
 584              	.L48:
 585              		.loc 1 234 0
 586 002a 9042     		cmp	r0, r2
 587 002c 08D0     		beq	.L50
 588              		.loc 1 235 0
 589 002e 074B     		ldr	r3, .L51+8
 590 0030 441C     		adds	r4, r0, #1
 591              	.LVL50:
 592 0032 8000     		lsls	r0, r0, #2
 593 0034 0344     		add	r3, r3, r0
 594 0036 51F8040B 		ldr	r0, [r1], #4
 595              	.LVL51:
 596 003a 1860     		str	r0, [r3]
 597 003c E0B2     		uxtb	r0, r4
 598 003e F4E7     		b	.L48
 599              	.LVL52:
 600              	.L50:
 601              		.loc 1 237 0
 602 0040 10BD     		pop	{r4, pc}
 603              	.L52:
 604 0042 00BF     		.align	2
 605              	.L51:
 606 0044 00380240 		.word	1073887232
 607 0048 00700040 		.word	1073770496
 608 004c 50280040 		.word	1073752144
 609              		.cfi_endproc
 610              	.LFE331:
 611              		.size	set_rtc_backup, .-set_rtc_backup
 612              		.section	.text.check_fast_reboot,"ax",%progbits
 613              		.align	1
 614              		.global	check_fast_reboot
 615              		.thumb
 616              		.thumb_func
 617              		.type	check_fast_reboot, %function
 618              	check_fast_reboot:
 619              	.LFB332:
 620              		.loc 1 241 0
 621              		.cfi_startproc
 622              		@ args = 0, pretend = 0, frame = 8
 623              		@ frame_needed = 0, uses_anonymous_args = 0
 624 0000 07B5     		push	{r0, r1, r2, lr}
 625              		.cfi_def_cfa_offset 16
 626              		.cfi_offset 14, -4
 627              		.loc 1 243 0
ARM GAS  /tmp/cctz3RzG.s 			page 12


 628 0002 0020     		movs	r0, #0
 629 0004 01A9     		add	r1, sp, #4
 630 0006 0122     		movs	r2, #1
 631 0008 FFF7FEFF 		bl	get_rtc_backup
 632              	.LVL53:
 633              		.loc 1 245 0
 634 000c 0198     		ldr	r0, [sp, #4]
 635 000e 03B0     		add	sp, sp, #12
 636              		.cfi_def_cfa_offset 4
 637              		@ sp needed
 638 0010 5DF804FB 		ldr	pc, [sp], #4
 639              		.cfi_endproc
 640              	.LFE332:
 641              		.size	check_fast_reboot, .-check_fast_reboot
 642              		.section	.text.set_fast_reboot,"ax",%progbits
 643              		.align	1
 644              		.global	set_fast_reboot
 645              		.thumb
 646              		.thumb_func
 647              		.type	set_fast_reboot, %function
 648              	set_fast_reboot:
 649              	.LFB333:
 650              		.loc 1 249 0
 651              		.cfi_startproc
 652              		@ args = 0, pretend = 0, frame = 8
 653              		@ frame_needed = 0, uses_anonymous_args = 0
 654              	.LVL54:
 655 0000 07B5     		push	{r0, r1, r2, lr}
 656              		.cfi_def_cfa_offset 16
 657              		.cfi_offset 14, -4
 658              		.loc 1 250 0
 659 0002 02A9     		add	r1, sp, #8
 660              		.loc 1 251 0
 661 0004 0122     		movs	r2, #1
 662              		.loc 1 250 0
 663 0006 41F8040D 		str	r0, [r1, #-4]!
 664              		.loc 1 251 0
 665 000a 0020     		movs	r0, #0
 666              	.LVL55:
 667 000c FFF7FEFF 		bl	set_rtc_backup
 668              	.LVL56:
 669              		.loc 1 252 0
 670 0010 03B0     		add	sp, sp, #12
 671              		.cfi_def_cfa_offset 4
 672              		@ sp needed
 673 0012 5DF804FB 		ldr	pc, [sp], #4
 674              		.cfi_endproc
 675              	.LFE333:
 676              		.size	set_fast_reboot, .-set_fast_reboot
 677              		.section	.text.peripheral_power_enable,"ax",%progbits
 678              		.align	1
 679              		.global	peripheral_power_enable
 680              		.thumb
 681              		.thumb_func
 682              		.type	peripheral_power_enable, %function
 683              	peripheral_power_enable:
 684              	.LFB334:
ARM GAS  /tmp/cctz3RzG.s 			page 13


 685              		.loc 1 274 0
 686              		.cfi_startproc
 687              		@ args = 0, pretend = 0, frame = 0
 688              		@ frame_needed = 0, uses_anonymous_args = 0
 689              		@ link register save eliminated.
 690 0000 7047     		bx	lr
 691              		.cfi_endproc
 692              	.LFE334:
 693              		.size	peripheral_power_enable, .-peripheral_power_enable
 694              		.section	.text.palReadLineMode,"ax",%progbits
 695              		.align	1
 696              		.global	palReadLineMode
 697              		.thumb
 698              		.thumb_func
 699              		.type	palReadLineMode, %function
 700              	palReadLineMode:
 701              	.LFB335:
 702              		.loc 1 315 0
 703              		.cfi_startproc
 704              		@ args = 0, pretend = 0, frame = 0
 705              		@ frame_needed = 0, uses_anonymous_args = 0
 706              	.LVL57:
 707              		.loc 1 315 0
 708 0000 F0B5     		push	{r4, r5, r6, r7, lr}
 709              		.cfi_def_cfa_offset 20
 710              		.cfi_offset 4, -20
 711              		.cfi_offset 5, -16
 712              		.cfi_offset 6, -12
 713              		.cfi_offset 7, -8
 714              		.cfi_offset 14, -4
 715              		.loc 1 316 0
 716 0002 20F00F05 		bic	r5, r0, #15
 717              	.LVL58:
 718              		.loc 1 317 0
 719 0006 00F00F04 		and	r4, r0, #15
 720              	.LVL59:
 721              		.loc 1 319 0
 722 000a 2B68     		ldr	r3, [r5]
 723              		.loc 1 320 0
 724 000c 6A68     		ldr	r2, [r5, #4]
 725              		.loc 1 319 0
 726 000e 26B2     		sxth	r6, r4
 727 0010 7700     		lsls	r7, r6, #1
 728              	.LVL60:
 729              		.loc 1 320 0
 730 0012 E240     		lsrs	r2, r2, r4
 731              		.loc 1 319 0
 732 0014 FB40     		lsrs	r3, r3, r7
 733              	.LVL61:
 734              		.loc 1 320 0
 735 0016 02F00102 		and	r2, r2, #1
 736              		.loc 1 319 0
 737 001a 03F00303 		and	r3, r3, #3
 738              	.LVL62:
 739              		.loc 1 320 0
 740 001e 43EA8201 		orr	r1, r3, r2, lsl #2
 741              	.LVL63:
ARM GAS  /tmp/cctz3RzG.s 			page 14


 742              		.loc 1 321 0
 743 0022 AB68     		ldr	r3, [r5, #8]
 744              		.loc 1 322 0
 745 0024 E868     		ldr	r0, [r5, #12]
 746              	.LVL64:
 747              		.loc 1 321 0
 748 0026 FB40     		lsrs	r3, r3, r7
 749 0028 03F00303 		and	r3, r3, #3
 750              		.loc 1 322 0
 751 002c F840     		lsrs	r0, r0, r7
 752              		.loc 1 323 0
 753 002e 072C     		cmp	r4, #7
 754              		.loc 1 322 0
 755 0030 00F00300 		and	r0, r0, #3
 756              		.loc 1 321 0
 757 0034 41EAC302 		orr	r2, r1, r3, lsl #3
 758              	.LVL65:
 759              		.loc 1 322 0
 760 0038 42EA4013 		orr	r3, r2, r0, lsl #5
 761              	.LVL66:
 762              		.loc 1 326 0
 763 003c 8BBF     		itete	hi
 764 003e 083C     		subhi	r4, r4, #8
 765              	.LVL67:
 766              		.loc 1 324 0
 767 0040 286A     		ldrls	r0, [r5, #32]
 768              		.loc 1 326 0
 769 0042 686A     		ldrhi	r0, [r5, #36]
 770              		.loc 1 324 0
 771 0044 B600     		lslls	r6, r6, #2
 772              		.loc 1 326 0
 773 0046 8ABF     		itet	hi
 774 0048 A400     		lslhi	r4, r4, #2
 775              		.loc 1 324 0
 776 004a F040     		lsrls	r0, r0, r6
 777              		.loc 1 326 0
 778 004c E040     		lsrhi	r0, r0, r4
 779 004e 00F00F00 		and	r0, r0, #15
 780 0052 43EAC010 		orr	r0, r3, r0, lsl #7
 781              	.LVL68:
 782              		.loc 1 329 0
 783 0056 F0BD     		pop	{r4, r5, r6, r7, pc}
 784              		.cfi_endproc
 785              	.LFE335:
 786              		.size	palReadLineMode, .-palReadLineMode
 787              		.section	.rodata.ndays,"a",%progbits
 788              		.set	.LANCHOR1,. + 0
 789              		.type	ndays, %object
 790              		.size	ndays, 24
 791              	ndays:
 792 0000 1F       		.byte	31
 793 0001 1C       		.byte	28
 794 0002 1F       		.byte	31
 795 0003 1E       		.byte	30
 796 0004 1F       		.byte	31
 797 0005 1E       		.byte	30
 798 0006 1F       		.byte	31
ARM GAS  /tmp/cctz3RzG.s 			page 15


 799 0007 1F       		.byte	31
 800 0008 1E       		.byte	30
 801 0009 1F       		.byte	31
 802 000a 1E       		.byte	30
 803 000b 1F       		.byte	31
 804 000c 1F       		.byte	31
 805 000d 1D       		.byte	29
 806 000e 1F       		.byte	31
 807 000f 1E       		.byte	30
 808 0010 1F       		.byte	31
 809 0011 1E       		.byte	30
 810 0012 1F       		.byte	31
 811 0013 1F       		.byte	31
 812 0014 1E       		.byte	30
 813 0015 1F       		.byte	31
 814 0016 1E       		.byte	30
 815 0017 1F       		.byte	31
 816              		.section	.bss.utc_time_offset,"aw",%nobits
 817              		.align	3
 818              		.set	.LANCHOR0,. + 0
 819              		.type	utc_time_offset, %object
 820              		.size	utc_time_offset, 8
 821              	utc_time_offset:
 822 0000 00000000 		.space	8
 822      00000000 
 823              		.text
 824              	.Letext0:
 825              		.file 2 "/usr/lib/gcc/arm-none-eabi/4.9.3/include/stddef.h"
 826              		.file 3 "/usr/include/newlib/machine/_default_types.h"
 827              		.file 4 "/usr/include/newlib/sys/_stdint.h"
 828              		.file 5 "../../modules/ChibiOS/os/common/ports/ARMCMx/compilers/GCC/chtypes.h"
 829              		.file 6 "../../modules/ChibiOS/os/rt/include/chsystypes.h"
 830              		.file 7 "../../modules/ChibiOS/os/rt/include/chschd.h"
 831              		.file 8 "../../modules/ChibiOS/os/rt/include/chtime.h"
 832              		.file 9 "../../modules/ChibiOS/os/common/ext/ST/STM32F4xx/stm32f407xx.h"
 833              		.file 10 "../../modules/ChibiOS/os/common/ports/ARMCMx/chcore.h"
 834              		.file 11 "../../modules/ChibiOS/os/common/ports/ARMCMx/chcore_v7m.h"
 835              		.file 12 "../../modules/ChibiOS/os/hal/ports/STM32/LLD/TIMv1/stm32_tim.h"
 836              		.file 13 "../../modules/ChibiOS/os/rt/include/chtm.h"
 837              		.file 14 "../../modules/ChibiOS/os/rt/include/chstats.h"
 838              		.file 15 "../../modules/ChibiOS/os/rt/include/chsem.h"
 839              		.file 16 "../../modules/ChibiOS/os/rt/include/chmtx.h"
 840              		.file 17 "../../modules/ChibiOS/os/hal/ports/STM32/LLD/GPIOv2/stm32_gpio.h"
 841              		.file 18 "../../modules/ChibiOS/os/hal/ports/STM32/LLD/GPIOv2/hal_pal_lld.h"
 842              		.file 19 "../../libraries/AP_HAL_ChibiOS/hwdef/common/stm32_util.h"
 843              		.file 20 "../../modules/ChibiOS/os/common/ext/ARM/CMSIS/Core/Include/core_cm4.h"
 844              		.file 21 "../../libraries/AP_HAL_ChibiOS/hwdef/common/hrt.h"