ARM GAS  /tmp/ccsaIQFO.s 			page 1


   1              		.syntax unified
   2              		.cpu cortex-m4
   3              		.eabi_attribute 27, 1
   4              		.eabi_attribute 28, 1
   5              		.fpu fpv4-sp-d16
   6              		.eabi_attribute 20, 1
   7              		.eabi_attribute 21, 1
   8              		.eabi_attribute 23, 3
   9              		.eabi_attribute 24, 1
  10              		.eabi_attribute 25, 1
  11              		.eabi_attribute 26, 1
  12              		.eabi_attribute 30, 4
  13              		.eabi_attribute 34, 1
  14              		.eabi_attribute 18, 4
  15              		.thumb
  16              		.file	"stm32_dma.c"
  17              		.text
  18              	.Ltext0:
  19              		.cfi_sections	.debug_frame
  20              		.section	.text.Vector6C,"ax",%progbits
  21              		.align	1
  22              		.global	Vector6C
  23              		.thumb
  24              		.thumb_func
  25              		.type	Vector6C, %function
  26              	Vector6C:
  27              	.LFB323:
  28              		.file 1 "../../modules/ChibiOS/os/hal/ports/STM32/LLD/DMAv2/stm32_dma.c"
  29              		.loc 1 163 0
  30              		.cfi_startproc
  31              		@ args = 0, pretend = 0, frame = 0
  32              		@ frame_needed = 0, uses_anonymous_args = 0
  33 0000 08B5     		push	{r3, lr}
  34              		.cfi_def_cfa_offset 8
  35              		.cfi_offset 3, -8
  36              		.cfi_offset 14, -4
  37              		.loc 1 166 0
  38 0002 FFF7FEFF 		bl	_stats_increase_irq
  39              	.LVL0:
  40              		.loc 1 168 0
  41 0006 074B     		ldr	r3, .L7
  42              		.loc 1 170 0
  43 0008 074A     		ldr	r2, .L7+4
  44              		.loc 1 168 0
  45 000a 1968     		ldr	r1, [r3]
  46 000c 01F03D01 		and	r1, r1, #61
  47              	.LVL1:
  48              		.loc 1 169 0
  49 0010 9960     		str	r1, [r3, #8]
  50              		.loc 1 170 0
  51 0012 5368     		ldr	r3, [r2, #4]
  52 0014 0BB1     		cbz	r3, .L2
  53              		.loc 1 171 0
  54 0016 9068     		ldr	r0, [r2, #8]
  55 0018 9847     		blx	r3
  56              	.LVL2:
  57              	.L2:
ARM GAS  /tmp/ccsaIQFO.s 			page 2


  58              		.loc 1 174 0
  59 001a BDE80840 		pop	{r3, lr}
  60              		.cfi_restore 14
  61              		.cfi_restore 3
  62              		.cfi_def_cfa_offset 0
  63              		.loc 1 173 0
  64 001e FFF7FEBF 		b	_port_irq_epilogue
  65              	.LVL3:
  66              	.L8:
  67 0022 00BF     		.align	2
  68              	.L7:
  69 0024 00600240 		.word	1073897472
  70 0028 00000000 		.word	.LANCHOR0
  71              		.cfi_endproc
  72              	.LFE323:
  73              		.size	Vector6C, .-Vector6C
  74              		.section	.text.Vector70,"ax",%progbits
  75              		.align	1
  76              		.global	Vector70
  77              		.thumb
  78              		.thumb_func
  79              		.type	Vector70, %function
  80              	Vector70:
  81              	.LFB324:
  82              		.loc 1 181 0
  83              		.cfi_startproc
  84              		@ args = 0, pretend = 0, frame = 0
  85              		@ frame_needed = 0, uses_anonymous_args = 0
  86 0000 08B5     		push	{r3, lr}
  87              		.cfi_def_cfa_offset 8
  88              		.cfi_offset 3, -8
  89              		.cfi_offset 14, -4
  90              		.loc 1 184 0
  91 0002 FFF7FEFF 		bl	_stats_increase_irq
  92              	.LVL4:
  93              		.loc 1 186 0
  94 0006 084B     		ldr	r3, .L14
  95 0008 1968     		ldr	r1, [r3]
  96 000a 8909     		lsrs	r1, r1, #6
  97 000c 01F03D01 		and	r1, r1, #61
  98              	.LVL5:
  99              		.loc 1 187 0
 100 0010 8A01     		lsls	r2, r1, #6
 101 0012 9A60     		str	r2, [r3, #8]
 102              		.loc 1 188 0
 103 0014 054A     		ldr	r2, .L14+4
 104 0016 D368     		ldr	r3, [r2, #12]
 105 0018 0BB1     		cbz	r3, .L10
 106              		.loc 1 189 0
 107 001a 1069     		ldr	r0, [r2, #16]
 108 001c 9847     		blx	r3
 109              	.LVL6:
 110              	.L10:
 111              		.loc 1 192 0
 112 001e BDE80840 		pop	{r3, lr}
 113              		.cfi_restore 14
 114              		.cfi_restore 3
ARM GAS  /tmp/ccsaIQFO.s 			page 3


 115              		.cfi_def_cfa_offset 0
 116              		.loc 1 191 0
 117 0022 FFF7FEBF 		b	_port_irq_epilogue
 118              	.LVL7:
 119              	.L15:
 120 0026 00BF     		.align	2
 121              	.L14:
 122 0028 00600240 		.word	1073897472
 123 002c 00000000 		.word	.LANCHOR0
 124              		.cfi_endproc
 125              	.LFE324:
 126              		.size	Vector70, .-Vector70
 127              		.section	.text.Vector74,"ax",%progbits
 128              		.align	1
 129              		.global	Vector74
 130              		.thumb
 131              		.thumb_func
 132              		.type	Vector74, %function
 133              	Vector74:
 134              	.LFB325:
 135              		.loc 1 199 0
 136              		.cfi_startproc
 137              		@ args = 0, pretend = 0, frame = 0
 138              		@ frame_needed = 0, uses_anonymous_args = 0
 139 0000 08B5     		push	{r3, lr}
 140              		.cfi_def_cfa_offset 8
 141              		.cfi_offset 3, -8
 142              		.cfi_offset 14, -4
 143              		.loc 1 202 0
 144 0002 FFF7FEFF 		bl	_stats_increase_irq
 145              	.LVL8:
 146              		.loc 1 204 0
 147 0006 084B     		ldr	r3, .L21
 148 0008 1968     		ldr	r1, [r3]
 149 000a 090C     		lsrs	r1, r1, #16
 150 000c 01F03D01 		and	r1, r1, #61
 151              	.LVL9:
 152              		.loc 1 205 0
 153 0010 0A04     		lsls	r2, r1, #16
 154 0012 9A60     		str	r2, [r3, #8]
 155              		.loc 1 206 0
 156 0014 054A     		ldr	r2, .L21+4
 157 0016 5369     		ldr	r3, [r2, #20]
 158 0018 0BB1     		cbz	r3, .L17
 159              		.loc 1 207 0
 160 001a 9069     		ldr	r0, [r2, #24]
 161 001c 9847     		blx	r3
 162              	.LVL10:
 163              	.L17:
 164              		.loc 1 210 0
 165 001e BDE80840 		pop	{r3, lr}
 166              		.cfi_restore 14
 167              		.cfi_restore 3
 168              		.cfi_def_cfa_offset 0
 169              		.loc 1 209 0
 170 0022 FFF7FEBF 		b	_port_irq_epilogue
 171              	.LVL11:
ARM GAS  /tmp/ccsaIQFO.s 			page 4


 172              	.L22:
 173 0026 00BF     		.align	2
 174              	.L21:
 175 0028 00600240 		.word	1073897472
 176 002c 00000000 		.word	.LANCHOR0
 177              		.cfi_endproc
 178              	.LFE325:
 179              		.size	Vector74, .-Vector74
 180              		.section	.text.Vector78,"ax",%progbits
 181              		.align	1
 182              		.global	Vector78
 183              		.thumb
 184              		.thumb_func
 185              		.type	Vector78, %function
 186              	Vector78:
 187              	.LFB326:
 188              		.loc 1 217 0
 189              		.cfi_startproc
 190              		@ args = 0, pretend = 0, frame = 0
 191              		@ frame_needed = 0, uses_anonymous_args = 0
 192 0000 08B5     		push	{r3, lr}
 193              		.cfi_def_cfa_offset 8
 194              		.cfi_offset 3, -8
 195              		.cfi_offset 14, -4
 196              		.loc 1 220 0
 197 0002 FFF7FEFF 		bl	_stats_increase_irq
 198              	.LVL12:
 199              		.loc 1 222 0
 200 0006 084B     		ldr	r3, .L28
 201 0008 1968     		ldr	r1, [r3]
 202 000a 890D     		lsrs	r1, r1, #22
 203 000c 01F03D01 		and	r1, r1, #61
 204              	.LVL13:
 205              		.loc 1 223 0
 206 0010 8A05     		lsls	r2, r1, #22
 207 0012 9A60     		str	r2, [r3, #8]
 208              		.loc 1 224 0
 209 0014 054A     		ldr	r2, .L28+4
 210 0016 D369     		ldr	r3, [r2, #28]
 211 0018 0BB1     		cbz	r3, .L24
 212              		.loc 1 225 0
 213 001a 106A     		ldr	r0, [r2, #32]
 214 001c 9847     		blx	r3
 215              	.LVL14:
 216              	.L24:
 217              		.loc 1 228 0
 218 001e BDE80840 		pop	{r3, lr}
 219              		.cfi_restore 14
 220              		.cfi_restore 3
 221              		.cfi_def_cfa_offset 0
 222              		.loc 1 227 0
 223 0022 FFF7FEBF 		b	_port_irq_epilogue
 224              	.LVL15:
 225              	.L29:
 226 0026 00BF     		.align	2
 227              	.L28:
 228 0028 00600240 		.word	1073897472
ARM GAS  /tmp/ccsaIQFO.s 			page 5


 229 002c 00000000 		.word	.LANCHOR0
 230              		.cfi_endproc
 231              	.LFE326:
 232              		.size	Vector78, .-Vector78
 233              		.section	.text.Vector7C,"ax",%progbits
 234              		.align	1
 235              		.global	Vector7C
 236              		.thumb
 237              		.thumb_func
 238              		.type	Vector7C, %function
 239              	Vector7C:
 240              	.LFB327:
 241              		.loc 1 235 0
 242              		.cfi_startproc
 243              		@ args = 0, pretend = 0, frame = 0
 244              		@ frame_needed = 0, uses_anonymous_args = 0
 245 0000 08B5     		push	{r3, lr}
 246              		.cfi_def_cfa_offset 8
 247              		.cfi_offset 3, -8
 248              		.cfi_offset 14, -4
 249              		.loc 1 238 0
 250 0002 FFF7FEFF 		bl	_stats_increase_irq
 251              	.LVL16:
 252              		.loc 1 240 0
 253 0006 074B     		ldr	r3, .L35
 254              		.loc 1 242 0
 255 0008 074A     		ldr	r2, .L35+4
 256              		.loc 1 240 0
 257 000a 5968     		ldr	r1, [r3, #4]
 258 000c 01F03D01 		and	r1, r1, #61
 259              	.LVL17:
 260              		.loc 1 241 0
 261 0010 D960     		str	r1, [r3, #12]
 262              		.loc 1 242 0
 263 0012 536A     		ldr	r3, [r2, #36]
 264 0014 0BB1     		cbz	r3, .L31
 265              		.loc 1 243 0
 266 0016 906A     		ldr	r0, [r2, #40]
 267 0018 9847     		blx	r3
 268              	.LVL18:
 269              	.L31:
 270              		.loc 1 246 0
 271 001a BDE80840 		pop	{r3, lr}
 272              		.cfi_restore 14
 273              		.cfi_restore 3
 274              		.cfi_def_cfa_offset 0
 275              		.loc 1 245 0
 276 001e FFF7FEBF 		b	_port_irq_epilogue
 277              	.LVL19:
 278              	.L36:
 279 0022 00BF     		.align	2
 280              	.L35:
 281 0024 00600240 		.word	1073897472
 282 0028 00000000 		.word	.LANCHOR0
 283              		.cfi_endproc
 284              	.LFE327:
 285              		.size	Vector7C, .-Vector7C
ARM GAS  /tmp/ccsaIQFO.s 			page 6


 286              		.section	.text.Vector80,"ax",%progbits
 287              		.align	1
 288              		.global	Vector80
 289              		.thumb
 290              		.thumb_func
 291              		.type	Vector80, %function
 292              	Vector80:
 293              	.LFB328:
 294              		.loc 1 253 0
 295              		.cfi_startproc
 296              		@ args = 0, pretend = 0, frame = 0
 297              		@ frame_needed = 0, uses_anonymous_args = 0
 298 0000 08B5     		push	{r3, lr}
 299              		.cfi_def_cfa_offset 8
 300              		.cfi_offset 3, -8
 301              		.cfi_offset 14, -4
 302              		.loc 1 256 0
 303 0002 FFF7FEFF 		bl	_stats_increase_irq
 304              	.LVL20:
 305              		.loc 1 258 0
 306 0006 084B     		ldr	r3, .L42
 307 0008 5968     		ldr	r1, [r3, #4]
 308 000a 8909     		lsrs	r1, r1, #6
 309 000c 01F03D01 		and	r1, r1, #61
 310              	.LVL21:
 311              		.loc 1 259 0
 312 0010 8A01     		lsls	r2, r1, #6
 313 0012 DA60     		str	r2, [r3, #12]
 314              		.loc 1 260 0
 315 0014 054A     		ldr	r2, .L42+4
 316 0016 D36A     		ldr	r3, [r2, #44]
 317 0018 0BB1     		cbz	r3, .L38
 318              		.loc 1 261 0
 319 001a 106B     		ldr	r0, [r2, #48]
 320 001c 9847     		blx	r3
 321              	.LVL22:
 322              	.L38:
 323              		.loc 1 264 0
 324 001e BDE80840 		pop	{r3, lr}
 325              		.cfi_restore 14
 326              		.cfi_restore 3
 327              		.cfi_def_cfa_offset 0
 328              		.loc 1 263 0
 329 0022 FFF7FEBF 		b	_port_irq_epilogue
 330              	.LVL23:
 331              	.L43:
 332 0026 00BF     		.align	2
 333              	.L42:
 334 0028 00600240 		.word	1073897472
 335 002c 00000000 		.word	.LANCHOR0
 336              		.cfi_endproc
 337              	.LFE328:
 338              		.size	Vector80, .-Vector80
 339              		.section	.text.Vector84,"ax",%progbits
 340              		.align	1
 341              		.global	Vector84
 342              		.thumb
ARM GAS  /tmp/ccsaIQFO.s 			page 7


 343              		.thumb_func
 344              		.type	Vector84, %function
 345              	Vector84:
 346              	.LFB329:
 347              		.loc 1 271 0
 348              		.cfi_startproc
 349              		@ args = 0, pretend = 0, frame = 0
 350              		@ frame_needed = 0, uses_anonymous_args = 0
 351 0000 08B5     		push	{r3, lr}
 352              		.cfi_def_cfa_offset 8
 353              		.cfi_offset 3, -8
 354              		.cfi_offset 14, -4
 355              		.loc 1 274 0
 356 0002 FFF7FEFF 		bl	_stats_increase_irq
 357              	.LVL24:
 358              		.loc 1 276 0
 359 0006 084B     		ldr	r3, .L49
 360 0008 5968     		ldr	r1, [r3, #4]
 361 000a 090C     		lsrs	r1, r1, #16
 362 000c 01F03D01 		and	r1, r1, #61
 363              	.LVL25:
 364              		.loc 1 277 0
 365 0010 0A04     		lsls	r2, r1, #16
 366 0012 DA60     		str	r2, [r3, #12]
 367              		.loc 1 278 0
 368 0014 054A     		ldr	r2, .L49+4
 369 0016 536B     		ldr	r3, [r2, #52]
 370 0018 0BB1     		cbz	r3, .L45
 371              		.loc 1 279 0
 372 001a 906B     		ldr	r0, [r2, #56]
 373 001c 9847     		blx	r3
 374              	.LVL26:
 375              	.L45:
 376              		.loc 1 282 0
 377 001e BDE80840 		pop	{r3, lr}
 378              		.cfi_restore 14
 379              		.cfi_restore 3
 380              		.cfi_def_cfa_offset 0
 381              		.loc 1 281 0
 382 0022 FFF7FEBF 		b	_port_irq_epilogue
 383              	.LVL27:
 384              	.L50:
 385 0026 00BF     		.align	2
 386              	.L49:
 387 0028 00600240 		.word	1073897472
 388 002c 00000000 		.word	.LANCHOR0
 389              		.cfi_endproc
 390              	.LFE329:
 391              		.size	Vector84, .-Vector84
 392              		.section	.text.VectorFC,"ax",%progbits
 393              		.align	1
 394              		.global	VectorFC
 395              		.thumb
 396              		.thumb_func
 397              		.type	VectorFC, %function
 398              	VectorFC:
 399              	.LFB330:
ARM GAS  /tmp/ccsaIQFO.s 			page 8


 400              		.loc 1 289 0
 401              		.cfi_startproc
 402              		@ args = 0, pretend = 0, frame = 0
 403              		@ frame_needed = 0, uses_anonymous_args = 0
 404 0000 08B5     		push	{r3, lr}
 405              		.cfi_def_cfa_offset 8
 406              		.cfi_offset 3, -8
 407              		.cfi_offset 14, -4
 408              		.loc 1 292 0
 409 0002 FFF7FEFF 		bl	_stats_increase_irq
 410              	.LVL28:
 411              		.loc 1 294 0
 412 0006 084B     		ldr	r3, .L56
 413 0008 5968     		ldr	r1, [r3, #4]
 414 000a 890D     		lsrs	r1, r1, #22
 415 000c 01F03D01 		and	r1, r1, #61
 416              	.LVL29:
 417              		.loc 1 295 0
 418 0010 8A05     		lsls	r2, r1, #22
 419 0012 DA60     		str	r2, [r3, #12]
 420              		.loc 1 296 0
 421 0014 054A     		ldr	r2, .L56+4
 422 0016 D36B     		ldr	r3, [r2, #60]
 423 0018 0BB1     		cbz	r3, .L52
 424              		.loc 1 297 0
 425 001a 106C     		ldr	r0, [r2, #64]
 426 001c 9847     		blx	r3
 427              	.LVL30:
 428              	.L52:
 429              		.loc 1 300 0
 430 001e BDE80840 		pop	{r3, lr}
 431              		.cfi_restore 14
 432              		.cfi_restore 3
 433              		.cfi_def_cfa_offset 0
 434              		.loc 1 299 0
 435 0022 FFF7FEBF 		b	_port_irq_epilogue
 436              	.LVL31:
 437              	.L57:
 438 0026 00BF     		.align	2
 439              	.L56:
 440 0028 00600240 		.word	1073897472
 441 002c 00000000 		.word	.LANCHOR0
 442              		.cfi_endproc
 443              	.LFE330:
 444              		.size	VectorFC, .-VectorFC
 445              		.section	.text.Vector120,"ax",%progbits
 446              		.align	1
 447              		.global	Vector120
 448              		.thumb
 449              		.thumb_func
 450              		.type	Vector120, %function
 451              	Vector120:
 452              	.LFB331:
 453              		.loc 1 307 0
 454              		.cfi_startproc
 455              		@ args = 0, pretend = 0, frame = 0
 456              		@ frame_needed = 0, uses_anonymous_args = 0
ARM GAS  /tmp/ccsaIQFO.s 			page 9


 457 0000 08B5     		push	{r3, lr}
 458              		.cfi_def_cfa_offset 8
 459              		.cfi_offset 3, -8
 460              		.cfi_offset 14, -4
 461              		.loc 1 310 0
 462 0002 FFF7FEFF 		bl	_stats_increase_irq
 463              	.LVL32:
 464              		.loc 1 312 0
 465 0006 074B     		ldr	r3, .L63
 466              		.loc 1 314 0
 467 0008 074A     		ldr	r2, .L63+4
 468              		.loc 1 312 0
 469 000a 1968     		ldr	r1, [r3]
 470 000c 01F03D01 		and	r1, r1, #61
 471              	.LVL33:
 472              		.loc 1 313 0
 473 0010 9960     		str	r1, [r3, #8]
 474              		.loc 1 314 0
 475 0012 536C     		ldr	r3, [r2, #68]
 476 0014 0BB1     		cbz	r3, .L59
 477              		.loc 1 315 0
 478 0016 906C     		ldr	r0, [r2, #72]
 479 0018 9847     		blx	r3
 480              	.LVL34:
 481              	.L59:
 482              		.loc 1 318 0
 483 001a BDE80840 		pop	{r3, lr}
 484              		.cfi_restore 14
 485              		.cfi_restore 3
 486              		.cfi_def_cfa_offset 0
 487              		.loc 1 317 0
 488 001e FFF7FEBF 		b	_port_irq_epilogue
 489              	.LVL35:
 490              	.L64:
 491 0022 00BF     		.align	2
 492              	.L63:
 493 0024 00640240 		.word	1073898496
 494 0028 00000000 		.word	.LANCHOR0
 495              		.cfi_endproc
 496              	.LFE331:
 497              		.size	Vector120, .-Vector120
 498              		.section	.text.Vector124,"ax",%progbits
 499              		.align	1
 500              		.global	Vector124
 501              		.thumb
 502              		.thumb_func
 503              		.type	Vector124, %function
 504              	Vector124:
 505              	.LFB332:
 506              		.loc 1 325 0
 507              		.cfi_startproc
 508              		@ args = 0, pretend = 0, frame = 0
 509              		@ frame_needed = 0, uses_anonymous_args = 0
 510 0000 08B5     		push	{r3, lr}
 511              		.cfi_def_cfa_offset 8
 512              		.cfi_offset 3, -8
 513              		.cfi_offset 14, -4
ARM GAS  /tmp/ccsaIQFO.s 			page 10


 514              		.loc 1 328 0
 515 0002 FFF7FEFF 		bl	_stats_increase_irq
 516              	.LVL36:
 517              		.loc 1 330 0
 518 0006 084B     		ldr	r3, .L70
 519 0008 1968     		ldr	r1, [r3]
 520 000a 8909     		lsrs	r1, r1, #6
 521 000c 01F03D01 		and	r1, r1, #61
 522              	.LVL37:
 523              		.loc 1 331 0
 524 0010 8A01     		lsls	r2, r1, #6
 525 0012 9A60     		str	r2, [r3, #8]
 526              		.loc 1 332 0
 527 0014 054A     		ldr	r2, .L70+4
 528 0016 D36C     		ldr	r3, [r2, #76]
 529 0018 0BB1     		cbz	r3, .L66
 530              		.loc 1 333 0
 531 001a 106D     		ldr	r0, [r2, #80]
 532 001c 9847     		blx	r3
 533              	.LVL38:
 534              	.L66:
 535              		.loc 1 336 0
 536 001e BDE80840 		pop	{r3, lr}
 537              		.cfi_restore 14
 538              		.cfi_restore 3
 539              		.cfi_def_cfa_offset 0
 540              		.loc 1 335 0
 541 0022 FFF7FEBF 		b	_port_irq_epilogue
 542              	.LVL39:
 543              	.L71:
 544 0026 00BF     		.align	2
 545              	.L70:
 546 0028 00640240 		.word	1073898496
 547 002c 00000000 		.word	.LANCHOR0
 548              		.cfi_endproc
 549              	.LFE332:
 550              		.size	Vector124, .-Vector124
 551              		.section	.text.Vector128,"ax",%progbits
 552              		.align	1
 553              		.global	Vector128
 554              		.thumb
 555              		.thumb_func
 556              		.type	Vector128, %function
 557              	Vector128:
 558              	.LFB333:
 559              		.loc 1 343 0
 560              		.cfi_startproc
 561              		@ args = 0, pretend = 0, frame = 0
 562              		@ frame_needed = 0, uses_anonymous_args = 0
 563 0000 08B5     		push	{r3, lr}
 564              		.cfi_def_cfa_offset 8
 565              		.cfi_offset 3, -8
 566              		.cfi_offset 14, -4
 567              		.loc 1 346 0
 568 0002 FFF7FEFF 		bl	_stats_increase_irq
 569              	.LVL40:
 570              		.loc 1 348 0
ARM GAS  /tmp/ccsaIQFO.s 			page 11


 571 0006 084B     		ldr	r3, .L77
 572 0008 1968     		ldr	r1, [r3]
 573 000a 090C     		lsrs	r1, r1, #16
 574 000c 01F03D01 		and	r1, r1, #61
 575              	.LVL41:
 576              		.loc 1 349 0
 577 0010 0A04     		lsls	r2, r1, #16
 578 0012 9A60     		str	r2, [r3, #8]
 579              		.loc 1 350 0
 580 0014 054A     		ldr	r2, .L77+4
 581 0016 536D     		ldr	r3, [r2, #84]
 582 0018 0BB1     		cbz	r3, .L73
 583              		.loc 1 351 0
 584 001a 906D     		ldr	r0, [r2, #88]
 585 001c 9847     		blx	r3
 586              	.LVL42:
 587              	.L73:
 588              		.loc 1 354 0
 589 001e BDE80840 		pop	{r3, lr}
 590              		.cfi_restore 14
 591              		.cfi_restore 3
 592              		.cfi_def_cfa_offset 0
 593              		.loc 1 353 0
 594 0022 FFF7FEBF 		b	_port_irq_epilogue
 595              	.LVL43:
 596              	.L78:
 597 0026 00BF     		.align	2
 598              	.L77:
 599 0028 00640240 		.word	1073898496
 600 002c 00000000 		.word	.LANCHOR0
 601              		.cfi_endproc
 602              	.LFE333:
 603              		.size	Vector128, .-Vector128
 604              		.section	.text.Vector12C,"ax",%progbits
 605              		.align	1
 606              		.global	Vector12C
 607              		.thumb
 608              		.thumb_func
 609              		.type	Vector12C, %function
 610              	Vector12C:
 611              	.LFB334:
 612              		.loc 1 361 0
 613              		.cfi_startproc
 614              		@ args = 0, pretend = 0, frame = 0
 615              		@ frame_needed = 0, uses_anonymous_args = 0
 616 0000 08B5     		push	{r3, lr}
 617              		.cfi_def_cfa_offset 8
 618              		.cfi_offset 3, -8
 619              		.cfi_offset 14, -4
 620              		.loc 1 364 0
 621 0002 FFF7FEFF 		bl	_stats_increase_irq
 622              	.LVL44:
 623              		.loc 1 366 0
 624 0006 084B     		ldr	r3, .L84
 625 0008 1968     		ldr	r1, [r3]
 626 000a 890D     		lsrs	r1, r1, #22
 627 000c 01F03D01 		and	r1, r1, #61
ARM GAS  /tmp/ccsaIQFO.s 			page 12


 628              	.LVL45:
 629              		.loc 1 367 0
 630 0010 8A05     		lsls	r2, r1, #22
 631 0012 9A60     		str	r2, [r3, #8]
 632              		.loc 1 368 0
 633 0014 054A     		ldr	r2, .L84+4
 634 0016 D36D     		ldr	r3, [r2, #92]
 635 0018 0BB1     		cbz	r3, .L80
 636              		.loc 1 369 0
 637 001a 106E     		ldr	r0, [r2, #96]
 638 001c 9847     		blx	r3
 639              	.LVL46:
 640              	.L80:
 641              		.loc 1 372 0
 642 001e BDE80840 		pop	{r3, lr}
 643              		.cfi_restore 14
 644              		.cfi_restore 3
 645              		.cfi_def_cfa_offset 0
 646              		.loc 1 371 0
 647 0022 FFF7FEBF 		b	_port_irq_epilogue
 648              	.LVL47:
 649              	.L85:
 650 0026 00BF     		.align	2
 651              	.L84:
 652 0028 00640240 		.word	1073898496
 653 002c 00000000 		.word	.LANCHOR0
 654              		.cfi_endproc
 655              	.LFE334:
 656              		.size	Vector12C, .-Vector12C
 657              		.section	.text.Vector130,"ax",%progbits
 658              		.align	1
 659              		.global	Vector130
 660              		.thumb
 661              		.thumb_func
 662              		.type	Vector130, %function
 663              	Vector130:
 664              	.LFB335:
 665              		.loc 1 379 0
 666              		.cfi_startproc
 667              		@ args = 0, pretend = 0, frame = 0
 668              		@ frame_needed = 0, uses_anonymous_args = 0
 669 0000 08B5     		push	{r3, lr}
 670              		.cfi_def_cfa_offset 8
 671              		.cfi_offset 3, -8
 672              		.cfi_offset 14, -4
 673              		.loc 1 382 0
 674 0002 FFF7FEFF 		bl	_stats_increase_irq
 675              	.LVL48:
 676              		.loc 1 384 0
 677 0006 074B     		ldr	r3, .L91
 678              		.loc 1 386 0
 679 0008 074A     		ldr	r2, .L91+4
 680              		.loc 1 384 0
 681 000a 5968     		ldr	r1, [r3, #4]
 682 000c 01F03D01 		and	r1, r1, #61
 683              	.LVL49:
 684              		.loc 1 385 0
ARM GAS  /tmp/ccsaIQFO.s 			page 13


 685 0010 D960     		str	r1, [r3, #12]
 686              		.loc 1 386 0
 687 0012 536E     		ldr	r3, [r2, #100]
 688 0014 0BB1     		cbz	r3, .L87
 689              		.loc 1 387 0
 690 0016 906E     		ldr	r0, [r2, #104]
 691 0018 9847     		blx	r3
 692              	.LVL50:
 693              	.L87:
 694              		.loc 1 390 0
 695 001a BDE80840 		pop	{r3, lr}
 696              		.cfi_restore 14
 697              		.cfi_restore 3
 698              		.cfi_def_cfa_offset 0
 699              		.loc 1 389 0
 700 001e FFF7FEBF 		b	_port_irq_epilogue
 701              	.LVL51:
 702              	.L92:
 703 0022 00BF     		.align	2
 704              	.L91:
 705 0024 00640240 		.word	1073898496
 706 0028 00000000 		.word	.LANCHOR0
 707              		.cfi_endproc
 708              	.LFE335:
 709              		.size	Vector130, .-Vector130
 710              		.section	.text.Vector150,"ax",%progbits
 711              		.align	1
 712              		.global	Vector150
 713              		.thumb
 714              		.thumb_func
 715              		.type	Vector150, %function
 716              	Vector150:
 717              	.LFB336:
 718              		.loc 1 397 0
 719              		.cfi_startproc
 720              		@ args = 0, pretend = 0, frame = 0
 721              		@ frame_needed = 0, uses_anonymous_args = 0
 722 0000 08B5     		push	{r3, lr}
 723              		.cfi_def_cfa_offset 8
 724              		.cfi_offset 3, -8
 725              		.cfi_offset 14, -4
 726              		.loc 1 400 0
 727 0002 FFF7FEFF 		bl	_stats_increase_irq
 728              	.LVL52:
 729              		.loc 1 402 0
 730 0006 084B     		ldr	r3, .L98
 731 0008 5968     		ldr	r1, [r3, #4]
 732 000a 8909     		lsrs	r1, r1, #6
 733 000c 01F03D01 		and	r1, r1, #61
 734              	.LVL53:
 735              		.loc 1 403 0
 736 0010 8A01     		lsls	r2, r1, #6
 737 0012 DA60     		str	r2, [r3, #12]
 738              		.loc 1 404 0
 739 0014 054A     		ldr	r2, .L98+4
 740 0016 D36E     		ldr	r3, [r2, #108]
 741 0018 0BB1     		cbz	r3, .L94
ARM GAS  /tmp/ccsaIQFO.s 			page 14


 742              		.loc 1 405 0
 743 001a 106F     		ldr	r0, [r2, #112]
 744 001c 9847     		blx	r3
 745              	.LVL54:
 746              	.L94:
 747              		.loc 1 408 0
 748 001e BDE80840 		pop	{r3, lr}
 749              		.cfi_restore 14
 750              		.cfi_restore 3
 751              		.cfi_def_cfa_offset 0
 752              		.loc 1 407 0
 753 0022 FFF7FEBF 		b	_port_irq_epilogue
 754              	.LVL55:
 755              	.L99:
 756 0026 00BF     		.align	2
 757              	.L98:
 758 0028 00640240 		.word	1073898496
 759 002c 00000000 		.word	.LANCHOR0
 760              		.cfi_endproc
 761              	.LFE336:
 762              		.size	Vector150, .-Vector150
 763              		.section	.text.Vector154,"ax",%progbits
 764              		.align	1
 765              		.global	Vector154
 766              		.thumb
 767              		.thumb_func
 768              		.type	Vector154, %function
 769              	Vector154:
 770              	.LFB337:
 771              		.loc 1 415 0
 772              		.cfi_startproc
 773              		@ args = 0, pretend = 0, frame = 0
 774              		@ frame_needed = 0, uses_anonymous_args = 0
 775 0000 08B5     		push	{r3, lr}
 776              		.cfi_def_cfa_offset 8
 777              		.cfi_offset 3, -8
 778              		.cfi_offset 14, -4
 779              		.loc 1 418 0
 780 0002 FFF7FEFF 		bl	_stats_increase_irq
 781              	.LVL56:
 782              		.loc 1 420 0
 783 0006 084B     		ldr	r3, .L105
 784 0008 5968     		ldr	r1, [r3, #4]
 785 000a 090C     		lsrs	r1, r1, #16
 786 000c 01F03D01 		and	r1, r1, #61
 787              	.LVL57:
 788              		.loc 1 421 0
 789 0010 0A04     		lsls	r2, r1, #16
 790 0012 DA60     		str	r2, [r3, #12]
 791              		.loc 1 422 0
 792 0014 054A     		ldr	r2, .L105+4
 793 0016 536F     		ldr	r3, [r2, #116]
 794 0018 0BB1     		cbz	r3, .L101
 795              		.loc 1 423 0
 796 001a 906F     		ldr	r0, [r2, #120]
 797 001c 9847     		blx	r3
 798              	.LVL58:
ARM GAS  /tmp/ccsaIQFO.s 			page 15


 799              	.L101:
 800              		.loc 1 426 0
 801 001e BDE80840 		pop	{r3, lr}
 802              		.cfi_restore 14
 803              		.cfi_restore 3
 804              		.cfi_def_cfa_offset 0
 805              		.loc 1 425 0
 806 0022 FFF7FEBF 		b	_port_irq_epilogue
 807              	.LVL59:
 808              	.L106:
 809 0026 00BF     		.align	2
 810              	.L105:
 811 0028 00640240 		.word	1073898496
 812 002c 00000000 		.word	.LANCHOR0
 813              		.cfi_endproc
 814              	.LFE337:
 815              		.size	Vector154, .-Vector154
 816              		.section	.text.Vector158,"ax",%progbits
 817              		.align	1
 818              		.global	Vector158
 819              		.thumb
 820              		.thumb_func
 821              		.type	Vector158, %function
 822              	Vector158:
 823              	.LFB338:
 824              		.loc 1 433 0
 825              		.cfi_startproc
 826              		@ args = 0, pretend = 0, frame = 0
 827              		@ frame_needed = 0, uses_anonymous_args = 0
 828 0000 08B5     		push	{r3, lr}
 829              		.cfi_def_cfa_offset 8
 830              		.cfi_offset 3, -8
 831              		.cfi_offset 14, -4
 832              		.loc 1 436 0
 833 0002 FFF7FEFF 		bl	_stats_increase_irq
 834              	.LVL60:
 835              		.loc 1 438 0
 836 0006 084B     		ldr	r3, .L112
 837 0008 5968     		ldr	r1, [r3, #4]
 838 000a 890D     		lsrs	r1, r1, #22
 839 000c 01F03D01 		and	r1, r1, #61
 840              	.LVL61:
 841              		.loc 1 439 0
 842 0010 8A05     		lsls	r2, r1, #22
 843 0012 DA60     		str	r2, [r3, #12]
 844              		.loc 1 440 0
 845 0014 054A     		ldr	r2, .L112+4
 846 0016 D36F     		ldr	r3, [r2, #124]
 847 0018 13B1     		cbz	r3, .L108
 848              		.loc 1 441 0
 849 001a D2F88000 		ldr	r0, [r2, #128]
 850 001e 9847     		blx	r3
 851              	.LVL62:
 852              	.L108:
 853              		.loc 1 444 0
 854 0020 BDE80840 		pop	{r3, lr}
 855              		.cfi_restore 14
ARM GAS  /tmp/ccsaIQFO.s 			page 16


 856              		.cfi_restore 3
 857              		.cfi_def_cfa_offset 0
 858              		.loc 1 443 0
 859 0024 FFF7FEBF 		b	_port_irq_epilogue
 860              	.LVL63:
 861              	.L113:
 862              		.align	2
 863              	.L112:
 864 0028 00640240 		.word	1073898496
 865 002c 00000000 		.word	.LANCHOR0
 866              		.cfi_endproc
 867              	.LFE338:
 868              		.size	Vector158, .-Vector158
 869              		.section	.text.dmaInit,"ax",%progbits
 870              		.align	1
 871              		.global	dmaInit
 872              		.thumb
 873              		.thumb_func
 874              		.type	dmaInit, %function
 875              	dmaInit:
 876              	.LFB339:
 877              		.loc 1 455 0
 878              		.cfi_startproc
 879              		@ args = 0, pretend = 0, frame = 0
 880              		@ frame_needed = 0, uses_anonymous_args = 0
 881              		@ link register save eliminated.
 882              		.loc 1 458 0
 883 0000 0C4A     		ldr	r2, .L117
 884 0002 0023     		movs	r3, #0
 885 0004 1360     		str	r3, [r2]
 886              	.LVL64:
 887              	.L115:
 888 0006 0C21     		movs	r1, #12
 889 0008 5943     		muls	r1, r3, r1
 890              		.loc 1 460 0 discriminator 3
 891 000a 0B48     		ldr	r0, .L117+4
 892 000c 0858     		ldr	r0, [r1, r0]
 893 000e 0021     		movs	r1, #0
 894 0010 0160     		str	r1, [r0]
 895 0012 02EBC300 		add	r0, r2, r3, lsl #3
 896              		.loc 1 459 0 discriminator 3
 897 0016 0133     		adds	r3, r3, #1
 898              	.LVL65:
 899 0018 102B     		cmp	r3, #16
 900              		.loc 1 461 0 discriminator 3
 901 001a 4160     		str	r1, [r0, #4]
 902              		.loc 1 459 0 discriminator 3
 903 001c F3D1     		bne	.L115
 904              		.loc 1 463 0
 905 001e 074A     		ldr	r2, .L117+8
 906 0020 4FF0FF33 		mov	r3, #-1
 907              	.LVL66:
 908 0024 9360     		str	r3, [r2, #8]
 909              		.loc 1 464 0
 910 0026 D360     		str	r3, [r2, #12]
 911              		.loc 1 465 0
 912 0028 C2F80834 		str	r3, [r2, #1032]
ARM GAS  /tmp/ccsaIQFO.s 			page 17


 913              		.loc 1 466 0
 914 002c C2F80C34 		str	r3, [r2, #1036]
 915              		.loc 1 465 0
 916 0030 7047     		bx	lr
 917              	.L118:
 918 0032 00BF     		.align	2
 919              	.L117:
 920 0034 00000000 		.word	.LANCHOR0
 921 0038 00000000 		.word	.LANCHOR1
 922 003c 00600240 		.word	1073897472
 923              		.cfi_endproc
 924              	.LFE339:
 925              		.size	dmaInit, .-dmaInit
 926              		.section	.text.dmaStreamAllocI,"ax",%progbits
 927              		.align	1
 928              		.global	dmaStreamAllocI
 929              		.thumb
 930              		.thumb_func
 931              		.type	dmaStreamAllocI, %function
 932              	dmaStreamAllocI:
 933              	.LFB340:
 934              		.loc 1 494 0
 935              		.cfi_startproc
 936              		@ args = 0, pretend = 0, frame = 0
 937              		@ frame_needed = 0, uses_anonymous_args = 0
 938              	.LVL67:
 939              		.loc 1 499 0
 940 0000 0F28     		cmp	r0, #15
 941              		.loc 1 494 0
 942 0002 F8B5     		push	{r3, r4, r5, r6, r7, lr}
 943              		.cfi_def_cfa_offset 24
 944              		.cfi_offset 3, -24
 945              		.cfi_offset 4, -20
 946              		.cfi_offset 5, -16
 947              		.cfi_offset 6, -12
 948              		.cfi_offset 7, -8
 949              		.cfi_offset 14, -4
 950              		.loc 1 494 0
 951 0004 9C46     		mov	ip, r3
 952              		.loc 1 499 0
 953 0006 49D8     		bhi	.L125
 954              	.LVL68:
 955              	.LBB22:
 956              		.loc 1 523 0 discriminator 1
 957 0008 264F     		ldr	r7, .L134
 958              		.loc 1 522 0 discriminator 1
 959 000a 0125     		movs	r5, #1
 960              		.loc 1 523 0 discriminator 1
 961 000c 3E68     		ldr	r6, [r7]
 962              		.loc 1 522 0 discriminator 1
 963 000e 8540     		lsls	r5, r5, r0
 964              	.LVL69:
 965              		.loc 1 523 0 discriminator 1
 966 0010 3542     		tst	r5, r6
 967 0012 43D1     		bne	.L125
 968              	.LBB23:
 969              		.loc 1 527 0
ARM GAS  /tmp/ccsaIQFO.s 			page 18


 970 0014 07EBC00E 		add	lr, r7, r0, lsl #3
 971              		.loc 1 524 0
 972 0018 234B     		ldr	r3, .L134+4
 973              	.LVL70:
 974              		.loc 1 527 0
 975 001a CEF80420 		str	r2, [lr, #4]
 976              		.loc 1 524 0
 977 001e 0C24     		movs	r4, #12
 978              		.loc 1 529 0
 979 0020 2E43     		orrs	r6, r6, r5
 980              		.loc 1 532 0
 981 0022 15F0FF0F 		tst	r5, #255
 982              		.loc 1 524 0
 983 0026 04FB0034 		mla	r4, r4, r0, r3
 984              	.LVL71:
 985              		.loc 1 528 0
 986 002a CEF808C0 		str	ip, [lr, #8]
 987              		.loc 1 529 0
 988 002e 3E60     		str	r6, [r7]
 989              		.loc 1 532 0
 990 0030 09D0     		beq	.L121
 991              		.loc 1 533 0
 992 0032 1E4E     		ldr	r6, .L134+8
 993 0034 376B     		ldr	r7, [r6, #48]
 994 0036 47F40017 		orr	r7, r7, #2097152
 995 003a 3763     		str	r7, [r6, #48]
 996 003c 376D     		ldr	r7, [r6, #80]
 997 003e 47F40017 		orr	r7, r7, #2097152
 998 0042 3765     		str	r7, [r6, #80]
 999 0044 366D     		ldr	r6, [r6, #80]
 1000              	.L121:
 1001              		.loc 1 535 0
 1002 0046 15F47F4F 		tst	r5, #65280
 1003 004a 09D0     		beq	.L122
 1004              		.loc 1 536 0
 1005 004c 174D     		ldr	r5, .L134+8
 1006              	.LVL72:
 1007 004e 2E6B     		ldr	r6, [r5, #48]
 1008 0050 46F48006 		orr	r6, r6, #4194304
 1009 0054 2E63     		str	r6, [r5, #48]
 1010 0056 2E6D     		ldr	r6, [r5, #80]
 1011 0058 46F48006 		orr	r6, r6, #4194304
 1012 005c 2E65     		str	r6, [r5, #80]
 1013 005e 2D6D     		ldr	r5, [r5, #80]
 1014              	.L122:
 1015              		.loc 1 547 0
 1016 0060 0C25     		movs	r5, #12
 1017 0062 4543     		muls	r5, r0, r5
 1018 0064 5D59     		ldr	r5, [r3, r5]
 1019 0066 2E68     		ldr	r6, [r5]
 1020 0068 26F01F06 		bic	r6, r6, #31
 1021 006c 2E60     		str	r6, [r5]
 1022              	.L123:
 1023              		.loc 1 547 0 is_stmt 0 discriminator 2
 1024 006e 2E68     		ldr	r6, [r5]
 1025 0070 16F00106 		ands	r6, r6, #1
 1026 0074 FBD1     		bne	.L123
ARM GAS  /tmp/ccsaIQFO.s 			page 19


 1027              		.loc 1 547 0 discriminator 3
 1028 0076 0C27     		movs	r7, #12
 1029 0078 07FB0033 		mla	r3, r7, r0, r3
 1030 007c 3D20     		movs	r0, #61
 1031              	.LVL73:
 1032 007e 93F809E0 		ldrb	lr, [r3, #9]	@ zero_extendqisi2
 1033 0082 5F68     		ldr	r7, [r3, #4]
 1034 0084 00FA0EF0 		lsl	r0, r0, lr
 1035 0088 3860     		str	r0, [r7]
 1036              		.loc 1 549 0 is_stmt 1 discriminator 3
 1037 008a 2120     		movs	r0, #33
 1038              		.loc 1 548 0 discriminator 3
 1039 008c 2E60     		str	r6, [r5]
 1040              		.loc 1 547 0 discriminator 3
 1041 008e 0833     		adds	r3, r3, #8
 1042              		.loc 1 549 0 discriminator 3
 1043 0090 6861     		str	r0, [r5, #20]
 1044              		.loc 1 552 0 discriminator 3
 1045 0092 2AB1     		cbz	r2, .L126
 1046              		.loc 1 553 0
 1047 0094 D878     		ldrb	r0, [r3, #3]	@ zero_extendqisi2
 1048 0096 FFF7FEFF 		bl	nvicEnableVector
 1049              	.LVL74:
 1050 009a 01E0     		b	.L126
 1051              	.LVL75:
 1052              	.L125:
 1053              	.LBE23:
 1054              	.LBE22:
 1055              		.loc 1 518 0
 1056 009c 0020     		movs	r0, #0
 1057              	.LVL76:
 1058 009e F8BD     		pop	{r3, r4, r5, r6, r7, pc}
 1059              	.LVL77:
 1060              	.L126:
 1061              	.LBB25:
 1062              	.LBB24:
 1063              		.loc 1 556 0
 1064 00a0 2046     		mov	r0, r4
 1065              	.LBE24:
 1066              	.LBE25:
 1067              		.loc 1 561 0
 1068 00a2 F8BD     		pop	{r3, r4, r5, r6, r7, pc}
 1069              	.LVL78:
 1070              	.L135:
 1071              		.align	2
 1072              	.L134:
 1073 00a4 00000000 		.word	.LANCHOR0
 1074 00a8 00000000 		.word	.LANCHOR1
 1075 00ac 00380240 		.word	1073887232
 1076              		.cfi_endproc
 1077              	.LFE340:
 1078              		.size	dmaStreamAllocI, .-dmaStreamAllocI
 1079              		.section	.text.dmaStreamAlloc,"ax",%progbits
 1080              		.align	1
 1081              		.global	dmaStreamAlloc
 1082              		.thumb
 1083              		.thumb_func
ARM GAS  /tmp/ccsaIQFO.s 			page 20


 1084              		.type	dmaStreamAlloc, %function
 1085              	dmaStreamAlloc:
 1086              	.LFB341:
 1087              		.loc 1 588 0
 1088              		.cfi_startproc
 1089              		@ args = 0, pretend = 0, frame = 0
 1090              		@ frame_needed = 0, uses_anonymous_args = 0
 1091              	.LVL79:
 1092 0000 F8B5     		push	{r3, r4, r5, r6, r7, lr}
 1093              		.cfi_def_cfa_offset 24
 1094              		.cfi_offset 3, -24
 1095              		.cfi_offset 4, -20
 1096              		.cfi_offset 5, -16
 1097              		.cfi_offset 6, -12
 1098              		.cfi_offset 7, -8
 1099              		.cfi_offset 14, -4
 1100              		.loc 1 588 0
 1101 0002 1C46     		mov	r4, r3
 1102 0004 0746     		mov	r7, r0
 1103 0006 0E46     		mov	r6, r1
 1104 0008 1546     		mov	r5, r2
 1105              	.LBB40:
 1106              	.LBB41:
 1107              	.LBB42:
 1108              	.LBB43:
 1109              	.LBB44:
 1110              	.LBB45:
 1111              		.file 2 "../../modules/ChibiOS/os/common/ext/ARM/CMSIS/Core/Include/cmsis_gcc.h"
 1112              		.loc 2 493 0
 1113 000a 2023     		movs	r3, #32
 1114              	.LVL80:
 1115              	@ 493 "../../modules/ChibiOS/os/common/ext/ARM/CMSIS/Core/Include/cmsis_gcc.h" 1
 1116 000c 83F31188 		MSR basepri, r3
 1117              	@ 0 "" 2
 1118              		.thumb
 1119              	.LBE45:
 1120              	.LBE44:
 1121              	.LBE43:
 1122              		.file 3 "../../modules/ChibiOS/os/rt/include/chsys.h"
 1123              		.loc 3 356 0
 1124 0010 FFF7FEFF 		bl	_stats_start_measure_crit_thd
 1125              	.LVL81:
 1126              	.LBE42:
 1127              	.LBE41:
 1128              	.LBE40:
 1129              		.loc 1 592 0
 1130 0014 2346     		mov	r3, r4
 1131 0016 3146     		mov	r1, r6
 1132 0018 2A46     		mov	r2, r5
 1133 001a 3846     		mov	r0, r7
 1134 001c FFF7FEFF 		bl	dmaStreamAllocI
 1135              	.LVL82:
 1136 0020 0446     		mov	r4, r0
 1137              	.LVL83:
 1138              	.LBB46:
 1139              	.LBB47:
 1140              	.LBB48:
ARM GAS  /tmp/ccsaIQFO.s 			page 21


 1141              		.loc 3 368 0
 1142 0022 FFF7FEFF 		bl	_stats_stop_measure_crit_thd
 1143              	.LVL84:
 1144              	.LBB49:
 1145              	.LBB50:
 1146              	.LBB51:
 1147              		.loc 2 493 0
 1148 0026 0023     		movs	r3, #0
 1149              	@ 493 "../../modules/ChibiOS/os/common/ext/ARM/CMSIS/Core/Include/cmsis_gcc.h" 1
 1150 0028 83F31188 		MSR basepri, r3
 1151              	@ 0 "" 2
 1152              		.thumb
 1153              	.LBE51:
 1154              	.LBE50:
 1155              	.LBE49:
 1156              	.LBE48:
 1157              	.LBE47:
 1158              	.LBE46:
 1159              		.loc 1 596 0
 1160 002c 2046     		mov	r0, r4
 1161 002e F8BD     		pop	{r3, r4, r5, r6, r7, pc}
 1162              		.cfi_endproc
 1163              	.LFE341:
 1164              		.size	dmaStreamAlloc, .-dmaStreamAlloc
 1165              		.section	.text.dmaStreamFreeI,"ax",%progbits
 1166              		.align	1
 1167              		.global	dmaStreamFreeI
 1168              		.thumb
 1169              		.thumb_func
 1170              		.type	dmaStreamFreeI, %function
 1171              	dmaStreamFreeI:
 1172              	.LFB342:
 1173              		.loc 1 608 0
 1174              		.cfi_startproc
 1175              		@ args = 0, pretend = 0, frame = 0
 1176              		@ frame_needed = 0, uses_anonymous_args = 0
 1177              	.LVL85:
 1178 0000 10B5     		push	{r4, lr}
 1179              		.cfi_def_cfa_offset 8
 1180              		.cfi_offset 4, -8
 1181              		.cfi_offset 14, -4
 1182              		.loc 1 608 0
 1183 0002 0446     		mov	r4, r0
 1184              		.loc 1 617 0
 1185 0004 C07A     		ldrb	r0, [r0, #11]	@ zero_extendqisi2
 1186              	.LVL86:
 1187 0006 FFF7FEFF 		bl	nvicDisableVector
 1188              	.LVL87:
 1189              		.loc 1 620 0
 1190 000a A27A     		ldrb	r2, [r4, #10]	@ zero_extendqisi2
 1191 000c 1049     		ldr	r1, .L140
 1192 000e 0123     		movs	r3, #1
 1193 0010 9340     		lsls	r3, r3, r2
 1194 0012 0A68     		ldr	r2, [r1]
 1195 0014 22EA0303 		bic	r3, r2, r3
 1196              		.loc 1 623 0
 1197 0018 13F0FF0F 		tst	r3, #255
ARM GAS  /tmp/ccsaIQFO.s 			page 22


 1198              		.loc 1 620 0
 1199 001c 0B60     		str	r3, [r1]
 1200              		.loc 1 623 0
 1201 001e 09D1     		bne	.L138
 1202              		.loc 1 624 0
 1203 0020 0C4A     		ldr	r2, .L140+4
 1204 0022 116B     		ldr	r1, [r2, #48]
 1205 0024 21F40011 		bic	r1, r1, #2097152
 1206 0028 1163     		str	r1, [r2, #48]
 1207 002a 116D     		ldr	r1, [r2, #80]
 1208 002c 21F40011 		bic	r1, r1, #2097152
 1209 0030 1165     		str	r1, [r2, #80]
 1210 0032 126D     		ldr	r2, [r2, #80]
 1211              	.L138:
 1212              		.loc 1 626 0
 1213 0034 13F47F4F 		tst	r3, #65280
 1214 0038 09D1     		bne	.L137
 1215              	.LVL88:
 1216              	.LBB54:
 1217              	.LBB55:
 1218              		.loc 1 627 0
 1219 003a 064B     		ldr	r3, .L140+4
 1220 003c 1A6B     		ldr	r2, [r3, #48]
 1221 003e 22F48002 		bic	r2, r2, #4194304
 1222 0042 1A63     		str	r2, [r3, #48]
 1223 0044 1A6D     		ldr	r2, [r3, #80]
 1224 0046 22F48002 		bic	r2, r2, #4194304
 1225 004a 1A65     		str	r2, [r3, #80]
 1226 004c 1B6D     		ldr	r3, [r3, #80]
 1227              	.LVL89:
 1228              	.L137:
 1229 004e 10BD     		pop	{r4, pc}
 1230              	.LVL90:
 1231              	.L141:
 1232              		.align	2
 1233              	.L140:
 1234 0050 00000000 		.word	.LANCHOR0
 1235 0054 00380240 		.word	1073887232
 1236              	.LBE55:
 1237              	.LBE54:
 1238              		.cfi_endproc
 1239              	.LFE342:
 1240              		.size	dmaStreamFreeI, .-dmaStreamFreeI
 1241              		.section	.text.dmaStreamFree,"ax",%progbits
 1242              		.align	1
 1243              		.global	dmaStreamFree
 1244              		.thumb
 1245              		.thumb_func
 1246              		.type	dmaStreamFree, %function
 1247              	dmaStreamFree:
 1248              	.LFB343:
 1249              		.loc 1 648 0
 1250              		.cfi_startproc
 1251              		@ args = 0, pretend = 0, frame = 0
 1252              		@ frame_needed = 0, uses_anonymous_args = 0
 1253              	.LVL91:
 1254 0000 10B5     		push	{r4, lr}
ARM GAS  /tmp/ccsaIQFO.s 			page 23


 1255              		.cfi_def_cfa_offset 8
 1256              		.cfi_offset 4, -8
 1257              		.cfi_offset 14, -4
 1258              	.LBB70:
 1259              	.LBB71:
 1260              	.LBB72:
 1261              	.LBB73:
 1262              	.LBB74:
 1263              	.LBB75:
 1264              		.loc 2 493 0
 1265 0002 2023     		movs	r3, #32
 1266              	.LBE75:
 1267              	.LBE74:
 1268              	.LBE73:
 1269              	.LBE72:
 1270              	.LBE71:
 1271              	.LBE70:
 1272              		.loc 1 648 0
 1273 0004 0446     		mov	r4, r0
 1274              	.LBB81:
 1275              	.LBB80:
 1276              	.LBB79:
 1277              	.LBB78:
 1278              	.LBB77:
 1279              	.LBB76:
 1280              		.loc 2 493 0
 1281              	@ 493 "../../modules/ChibiOS/os/common/ext/ARM/CMSIS/Core/Include/cmsis_gcc.h" 1
 1282 0006 83F31188 		MSR basepri, r3
 1283              	@ 0 "" 2
 1284              		.thumb
 1285              	.LBE76:
 1286              	.LBE77:
 1287              	.LBE78:
 1288              		.loc 3 356 0
 1289 000a FFF7FEFF 		bl	_stats_start_measure_crit_thd
 1290              	.LVL92:
 1291              	.LBE79:
 1292              	.LBE80:
 1293              	.LBE81:
 1294              		.loc 1 651 0
 1295 000e 2046     		mov	r0, r4
 1296 0010 FFF7FEFF 		bl	dmaStreamFreeI
 1297              	.LVL93:
 1298              	.LBB82:
 1299              	.LBB83:
 1300              	.LBB84:
 1301              		.loc 3 368 0
 1302 0014 FFF7FEFF 		bl	_stats_stop_measure_crit_thd
 1303              	.LVL94:
 1304              	.LBB85:
 1305              	.LBB86:
 1306              	.LBB87:
 1307              		.loc 2 493 0
 1308 0018 0023     		movs	r3, #0
 1309              	@ 493 "../../modules/ChibiOS/os/common/ext/ARM/CMSIS/Core/Include/cmsis_gcc.h" 1
 1310 001a 83F31188 		MSR basepri, r3
 1311              	@ 0 "" 2
ARM GAS  /tmp/ccsaIQFO.s 			page 24


 1312              		.thumb
 1313 001e 10BD     		pop	{r4, pc}
 1314              	.LBE87:
 1315              	.LBE86:
 1316              	.LBE85:
 1317              	.LBE84:
 1318              	.LBE83:
 1319              	.LBE82:
 1320              		.cfi_endproc
 1321              	.LFE343:
 1322              		.size	dmaStreamFree, .-dmaStreamFree
 1323              		.global	_stm32_dma_streams
 1324              		.section	.rodata._stm32_dma_streams,"a",%progbits
 1325              		.align	2
 1326              		.set	.LANCHOR1,. + 0
 1327              		.type	_stm32_dma_streams, %object
 1328              		.size	_stm32_dma_streams, 192
 1329              	_stm32_dma_streams:
 1330 0000 10600240 		.word	1073897488
 1331 0004 08600240 		.word	1073897480
 1332 0008 00       		.byte	0
 1333 0009 00       		.byte	0
 1334 000a 00       		.byte	0
 1335 000b 0B       		.byte	11
 1336 000c 28600240 		.word	1073897512
 1337 0010 08600240 		.word	1073897480
 1338 0014 00       		.byte	0
 1339 0015 06       		.byte	6
 1340 0016 01       		.byte	1
 1341 0017 0C       		.byte	12
 1342 0018 40600240 		.word	1073897536
 1343 001c 08600240 		.word	1073897480
 1344 0020 00       		.byte	0
 1345 0021 10       		.byte	16
 1346 0022 02       		.byte	2
 1347 0023 0D       		.byte	13
 1348 0024 58600240 		.word	1073897560
 1349 0028 08600240 		.word	1073897480
 1350 002c 00       		.byte	0
 1351 002d 16       		.byte	22
 1352 002e 03       		.byte	3
 1353 002f 0E       		.byte	14
 1354 0030 70600240 		.word	1073897584
 1355 0034 0C600240 		.word	1073897484
 1356 0038 00       		.byte	0
 1357 0039 00       		.byte	0
 1358 003a 04       		.byte	4
 1359 003b 0F       		.byte	15
 1360 003c 88600240 		.word	1073897608
 1361 0040 0C600240 		.word	1073897484
 1362 0044 00       		.byte	0
 1363 0045 06       		.byte	6
 1364 0046 05       		.byte	5
 1365 0047 10       		.byte	16
 1366 0048 A0600240 		.word	1073897632
 1367 004c 0C600240 		.word	1073897484
 1368 0050 00       		.byte	0
ARM GAS  /tmp/ccsaIQFO.s 			page 25


 1369 0051 10       		.byte	16
 1370 0052 06       		.byte	6
 1371 0053 11       		.byte	17
 1372 0054 B8600240 		.word	1073897656
 1373 0058 0C600240 		.word	1073897484
 1374 005c 00       		.byte	0
 1375 005d 16       		.byte	22
 1376 005e 07       		.byte	7
 1377 005f 2F       		.byte	47
 1378 0060 10640240 		.word	1073898512
 1379 0064 08640240 		.word	1073898504
 1380 0068 00       		.byte	0
 1381 0069 00       		.byte	0
 1382 006a 08       		.byte	8
 1383 006b 38       		.byte	56
 1384 006c 28640240 		.word	1073898536
 1385 0070 08640240 		.word	1073898504
 1386 0074 00       		.byte	0
 1387 0075 06       		.byte	6
 1388 0076 09       		.byte	9
 1389 0077 39       		.byte	57
 1390 0078 40640240 		.word	1073898560
 1391 007c 08640240 		.word	1073898504
 1392 0080 00       		.byte	0
 1393 0081 10       		.byte	16
 1394 0082 0A       		.byte	10
 1395 0083 3A       		.byte	58
 1396 0084 58640240 		.word	1073898584
 1397 0088 08640240 		.word	1073898504
 1398 008c 00       		.byte	0
 1399 008d 16       		.byte	22
 1400 008e 0B       		.byte	11
 1401 008f 3B       		.byte	59
 1402 0090 70640240 		.word	1073898608
 1403 0094 0C640240 		.word	1073898508
 1404 0098 00       		.byte	0
 1405 0099 00       		.byte	0
 1406 009a 0C       		.byte	12
 1407 009b 3C       		.byte	60
 1408 009c 88640240 		.word	1073898632
 1409 00a0 0C640240 		.word	1073898508
 1410 00a4 00       		.byte	0
 1411 00a5 06       		.byte	6
 1412 00a6 0D       		.byte	13
 1413 00a7 44       		.byte	68
 1414 00a8 A0640240 		.word	1073898656
 1415 00ac 0C640240 		.word	1073898508
 1416 00b0 00       		.byte	0
 1417 00b1 10       		.byte	16
 1418 00b2 0E       		.byte	14
 1419 00b3 45       		.byte	69
 1420 00b4 B8640240 		.word	1073898680
 1421 00b8 0C640240 		.word	1073898508
 1422 00bc 00       		.byte	0
 1423 00bd 16       		.byte	22
 1424 00be 0F       		.byte	15
 1425 00bf 46       		.byte	70
ARM GAS  /tmp/ccsaIQFO.s 			page 26


 1426              		.section	.bss.dma,"aw",%nobits
 1427              		.align	2
 1428              		.set	.LANCHOR0,. + 0
 1429              		.type	dma, %object
 1430              		.size	dma, 132
 1431              	dma:
 1432 0000 00000000 		.space	132
 1432      00000000 
 1432      00000000 
 1432      00000000 
 1432      00000000 
 1433              		.text
 1434              	.Letext0:
 1435              		.file 4 "/usr/lib/gcc/arm-none-eabi/4.9.3/include/stddef.h"
 1436              		.file 5 "/usr/include/newlib/machine/_default_types.h"
 1437              		.file 6 "/usr/include/newlib/sys/_stdint.h"
 1438              		.file 7 "../../modules/ChibiOS/os/common/ports/ARMCMx/compilers/GCC/chtypes.h"
 1439              		.file 8 "../../modules/ChibiOS/os/rt/include/chsystypes.h"
 1440              		.file 9 "../../modules/ChibiOS/os/rt/include/chschd.h"
 1441              		.file 10 "../../modules/ChibiOS/os/rt/include/chtime.h"
 1442              		.file 11 "../../modules/ChibiOS/os/common/ext/ST/STM32F4xx/stm32f407xx.h"
 1443              		.file 12 "../../modules/ChibiOS/os/common/ports/ARMCMx/chcore.h"
 1444              		.file 13 "../../modules/ChibiOS/os/common/ports/ARMCMx/chcore_v7m.h"
 1445              		.file 14 "../../modules/ChibiOS/os/rt/include/chtm.h"
 1446              		.file 15 "../../modules/ChibiOS/os/rt/include/chstats.h"
 1447              		.file 16 "../../modules/ChibiOS/os/rt/include/chsem.h"
 1448              		.file 17 "../../modules/ChibiOS/os/rt/include/chmtx.h"
 1449              		.file 18 "../../modules/ChibiOS/os/hal/ports/STM32/LLD/DMAv2/stm32_dma.h"
 1450              		.file 19 "../../modules/ChibiOS/os/hal/osal/rt/osal.h"
 1451              		.file 20 "../../modules/ChibiOS/os/common/ext/ARM/CMSIS/Core/Include/core_cm4.h"
 1452              		.file 21 "../../modules/ChibiOS/os/hal/ports/common/ARMCMx/nvic.h"