ARM GAS  /tmp/ccNeVBbf.s 			page 1


   1              		.syntax unified
   2              		.cpu cortex-m4
   3              		.eabi_attribute 27, 1
   4              		.eabi_attribute 28, 1
   5              		.fpu fpv4-sp-d16
   6              		.eabi_attribute 20, 1
   7              		.eabi_attribute 21, 1
   8              		.eabi_attribute 23, 3
   9              		.eabi_attribute 24, 1
  10              		.eabi_attribute 25, 1
  11              		.eabi_attribute 26, 1
  12              		.eabi_attribute 30, 4
  13              		.eabi_attribute 34, 1
  14              		.eabi_attribute 18, 4
  15              		.thumb
  16              		.file	"stubs.c"
  17              		.text
  18              	.Ltext0:
  19              		.cfi_sections	.debug_frame
  20              		.section	.text._read,"ax",%progbits
  21              		.align	1
  22              		.global	_read
  23              		.thumb
  24              		.thumb_func
  25              		.type	_read, %function
  26              	_read:
  27              	.LFB290:
  28              		.file 1 "../../libraries/AP_HAL_ChibiOS/hwdef/common/stubs.c"
  29              		.loc 1 90 0
  30              		.cfi_startproc
  31              		@ args = 0, pretend = 0, frame = 0
  32              		@ frame_needed = 0, uses_anonymous_args = 0
  33              		@ link register save eliminated.
  34              	.LVL0:
  35              		.loc 1 103 0
  36 0000 1623     		movs	r3, #22
  37              	.LVL1:
  38 0002 0360     		str	r3, [r0]
  39              		.loc 1 106 0
  40 0004 4FF0FF30 		mov	r0, #-1
  41              	.LVL2:
  42 0008 7047     		bx	lr
  43              		.cfi_endproc
  44              	.LFE290:
  45              		.size	_read, .-_read
  46              		.section	.text._lseek,"ax",%progbits
  47              		.align	1
  48              		.global	_lseek
  49              		.thumb
  50              		.thumb_func
  51              		.type	_lseek, %function
  52              	_lseek:
  53              	.LFB291:
  54              		.loc 1 112 0
  55              		.cfi_startproc
  56              		@ args = 0, pretend = 0, frame = 0
  57              		@ frame_needed = 0, uses_anonymous_args = 0
ARM GAS  /tmp/ccNeVBbf.s 			page 2


  58              		@ link register save eliminated.
  59              	.LVL3:
  60              		.loc 1 119 0
  61 0000 0020     		movs	r0, #0
  62              	.LVL4:
  63 0002 7047     		bx	lr
  64              		.cfi_endproc
  65              	.LFE291:
  66              		.size	_lseek, .-_lseek
  67              		.section	.text._write,"ax",%progbits
  68              		.align	1
  69              		.global	_write
  70              		.thumb
  71              		.thumb_func
  72              		.type	_write, %function
  73              	_write:
  74              	.LFB292:
  75              		.loc 1 125 0
  76              		.cfi_startproc
  77              		@ args = 0, pretend = 0, frame = 0
  78              		@ frame_needed = 0, uses_anonymous_args = 0
  79              		@ link register save eliminated.
  80              	.LVL5:
  81              		.loc 1 137 0
  82 0000 1846     		mov	r0, r3
  83              	.LVL6:
  84 0002 7047     		bx	lr
  85              		.cfi_endproc
  86              	.LFE292:
  87              		.size	_write, .-_write
  88              		.section	.text._close,"ax",%progbits
  89              		.align	1
  90              		.global	_close
  91              		.thumb
  92              		.thumb_func
  93              		.type	_close, %function
  94              	_close:
  95              	.LFB293:
  96              		.loc 1 143 0
  97              		.cfi_startproc
  98              		@ args = 0, pretend = 0, frame = 0
  99              		@ frame_needed = 0, uses_anonymous_args = 0
 100              		@ link register save eliminated.
 101              	.LVL7:
 102              		.loc 1 148 0
 103 0000 0020     		movs	r0, #0
 104              	.LVL8:
 105 0002 7047     		bx	lr
 106              		.cfi_endproc
 107              	.LFE293:
 108              		.size	_close, .-_close
 109              		.section	.text._sbrk,"ax",%progbits
 110              		.align	1
 111              		.global	_sbrk
 112              		.thumb
 113              		.thumb_func
 114              		.type	_sbrk, %function
ARM GAS  /tmp/ccNeVBbf.s 			page 3


 115              	_sbrk:
 116              	.LFB294:
 117              		.loc 1 154 0
 118              		.cfi_startproc
 119              		@ args = 0, pretend = 0, frame = 0
 120              		@ frame_needed = 0, uses_anonymous_args = 0
 121              	.LVL9:
 122 0000 10B5     		push	{r4, lr}
 123              		.cfi_def_cfa_offset 8
 124              		.cfi_offset 4, -8
 125              		.cfi_offset 14, -4
 126              	.LBB4:
 127              	.LBB5:
 128              		.file 2 "../../modules/ChibiOS/os/oslib/include/chmemheaps.h"
 129              		.loc 2 156 0
 130 0002 0822     		movs	r2, #8
 131              	.LBE5:
 132              	.LBE4:
 133              		.loc 1 154 0
 134 0004 0446     		mov	r4, r0
 135              	.LVL10:
 136              	.LBB7:
 137              	.LBB6:
 138              		.loc 2 156 0
 139 0006 0020     		movs	r0, #0
 140              	.LVL11:
 141 0008 FFF7FEFF 		bl	chHeapAllocAligned
 142              	.LVL12:
 143              	.LBE6:
 144              	.LBE7:
 145              		.loc 1 160 0
 146 000c 18B9     		cbnz	r0, .L6
 147              		.loc 1 161 0
 148 000e 0C23     		movs	r3, #12
 149 0010 2360     		str	r3, [r4]
 150              		.loc 1 162 0
 151 0012 4FF0FF30 		mov	r0, #-1
 152              	.L6:
 153              		.loc 1 170 0
 154 0016 10BD     		pop	{r4, pc}
 155              		.cfi_endproc
 156              	.LFE294:
 157              		.size	_sbrk, .-_sbrk
 158              		.section	.text._fstat,"ax",%progbits
 159              		.align	1
 160              		.global	_fstat
 161              		.thumb
 162              		.thumb_func
 163              		.type	_fstat, %function
 164              	_fstat:
 165              	.LFB295:
 166              		.loc 1 177 0
 167              		.cfi_startproc
 168              		@ args = 0, pretend = 0, frame = 0
 169              		@ frame_needed = 0, uses_anonymous_args = 0
 170              	.LVL13:
 171 0000 10B5     		push	{r4, lr}
ARM GAS  /tmp/ccNeVBbf.s 			page 4


 172              		.cfi_def_cfa_offset 8
 173              		.cfi_offset 4, -8
 174              		.cfi_offset 14, -4
 175              		.loc 1 181 0
 176 0002 1046     		mov	r0, r2
 177              	.LVL14:
 178              		.loc 1 177 0
 179 0004 1446     		mov	r4, r2
 180              		.loc 1 181 0
 181 0006 0021     		movs	r1, #0
 182              	.LVL15:
 183 0008 3C22     		movs	r2, #60
 184              	.LVL16:
 185 000a FFF7FEFF 		bl	memset
 186              	.LVL17:
 187              		.loc 1 182 0
 188 000e 4FF40053 		mov	r3, #8192
 189 0012 6360     		str	r3, [r4, #4]
 190              		.loc 1 184 0
 191 0014 0020     		movs	r0, #0
 192 0016 10BD     		pop	{r4, pc}
 193              		.cfi_endproc
 194              	.LFE295:
 195              		.size	_fstat, .-_fstat
 196              		.section	.text._isatty,"ax",%progbits
 197              		.align	1
 198              		.global	_isatty
 199              		.thumb
 200              		.thumb_func
 201              		.type	_isatty, %function
 202              	_isatty:
 203              	.LFB296:
 204              		.loc 1 190 0
 205              		.cfi_startproc
 206              		@ args = 0, pretend = 0, frame = 0
 207              		@ frame_needed = 0, uses_anonymous_args = 0
 208              		@ link register save eliminated.
 209              	.LVL18:
 210              		.loc 1 195 0
 211 0000 0120     		movs	r0, #1
 212              	.LVL19:
 213 0002 7047     		bx	lr
 214              		.cfi_endproc
 215              	.LFE296:
 216              		.size	_isatty, .-_isatty
 217              		.section	.text._getpid,"ax",%progbits
 218              		.align	1
 219              		.global	_getpid
 220              		.thumb
 221              		.thumb_func
 222              		.type	_getpid, %function
 223              	_getpid:
 224              	.LFB297:
 225              		.loc 1 199 0
 226              		.cfi_startproc
 227              		@ args = 0, pretend = 0, frame = 0
 228              		@ frame_needed = 0, uses_anonymous_args = 0
ARM GAS  /tmp/ccNeVBbf.s 			page 5


 229              		@ link register save eliminated.
 230              		.loc 1 201 0
 231 0000 0020     		movs	r0, #0
 232 0002 7047     		bx	lr
 233              		.cfi_endproc
 234              	.LFE297:
 235              		.size	_getpid, .-_getpid
 236              		.section	.text._exit,"ax",%progbits
 237              		.align	1
 238              		.global	_exit
 239              		.thumb
 240              		.thumb_func
 241              		.type	_exit, %function
 242              	_exit:
 243              	.LFB298:
 244              		.loc 1 205 0
 245              		.cfi_startproc
 246              		@ Volatile: function does not return.
 247              		@ args = 0, pretend = 0, frame = 0
 248              		@ frame_needed = 0, uses_anonymous_args = 0
 249              		@ link register save eliminated.
 250              	.LVL20:
 251              	.L13:
 252              		.loc 1 207 0 discriminator 1
 253 0000 FEE7     		b	.L13
 254              		.cfi_endproc
 255              	.LFE298:
 256              		.size	_exit, .-_exit
 257              		.section	.text._fini,"ax",%progbits
 258              		.align	1
 259              		.global	_fini
 260              		.thumb
 261              		.thumb_func
 262              		.type	_fini, %function
 263              	_fini:
 264              	.LFB299:
 265              		.loc 1 212 0
 266              		.cfi_startproc
 267              		@ args = 0, pretend = 0, frame = 0
 268              		@ frame_needed = 0, uses_anonymous_args = 0
 269              		@ link register save eliminated.
 270 0000 7047     		bx	lr
 271              		.cfi_endproc
 272              	.LFE299:
 273              		.size	_fini, .-_fini
 274              		.section	.text._kill,"ax",%progbits
 275              		.align	1
 276              		.global	_kill
 277              		.thumb
 278              		.thumb_func
 279              		.type	_kill, %function
 280              	_kill:
 281              	.LFB300:
 282              		.loc 1 217 0
 283              		.cfi_startproc
 284              		@ args = 0, pretend = 0, frame = 0
 285              		@ frame_needed = 0, uses_anonymous_args = 0
ARM GAS  /tmp/ccNeVBbf.s 			page 6


 286              		@ link register save eliminated.
 287              	.LVL21:
 288              		.loc 1 220 0
 289 0000 4FF0FF30 		mov	r0, #-1
 290              	.LVL22:
 291 0004 7047     		bx	lr
 292              		.cfi_endproc
 293              	.LFE300:
 294              		.size	_kill, .-_kill
 295              		.global	_before_main
 296              		.section	.data._before_main,"aw",%progbits
 297              		.type	_before_main, %object
 298              		.size	_before_main, 1
 299              	_before_main:
 300 0000 01       		.byte	1
 301              		.text
 302              	.Letext0:
 303              		.file 3 "/usr/include/newlib/machine/_default_types.h"
 304              		.file 4 "/usr/lib/gcc/arm-none-eabi/4.9.3/include/stddef.h"
 305              		.file 5 "/usr/include/newlib/sys/lock.h"
 306              		.file 6 "/usr/include/newlib/sys/_types.h"
 307              		.file 7 "/usr/include/newlib/sys/_stdint.h"
 308              		.file 8 "/usr/include/newlib/sys/types.h"
 309              		.file 9 "/usr/include/newlib/sys/reent.h"
 310              		.file 10 "/usr/include/newlib/sys/stat.h"
 311              		.file 11 "../../modules/ChibiOS/os/common/ports/ARMCMx/compilers/GCC/chtypes.h"
 312              		.file 12 "../../modules/ChibiOS/os/rt/include/chsystypes.h"
 313              		.file 13 "../../modules/ChibiOS/os/rt/include/chschd.h"
 314              		.file 14 "../../modules/ChibiOS/os/rt/include/chtime.h"
 315              		.file 15 "../../modules/ChibiOS/os/common/ports/ARMCMx/chcore.h"
 316              		.file 16 "../../modules/ChibiOS/os/common/ports/ARMCMx/chcore_v7m.h"
 317              		.file 17 "../../modules/ChibiOS/os/rt/include/chtm.h"
 318              		.file 18 "../../modules/ChibiOS/os/rt/include/chstats.h"
 319              		.file 19 "../../modules/ChibiOS/os/rt/include/chsem.h"
 320              		.file 20 "../../modules/ChibiOS/os/rt/include/chmtx.h"
 321              		.file 21 "../../modules/ChibiOS/os/oslib/include/chmemcore.h"
 322              		.file 22 "../../modules/ChibiOS/os/common/ext/ARM/CMSIS/Core/Include/core_cm4.h"
 323              		.file 23 "/usr/include/newlib/sys/unistd.h"