ARM GAS  /tmp/ccNeVBbf.s 			page 1


   1              		.syntax unified
   2              		.cpu cortex-m4
   3              		.eabi_attribute 27, 1
   4              		.eabi_attribute 28, 1
   5              		.fpu fpv4-sp-d16
   6              		.eabi_attribute 20, 1
   7              		.eabi_attribute 21, 1
   8              		.eabi_attribute 23, 3
   9              		.eabi_attribute 24, 1
  10              		.eabi_attribute 25, 1
  11              		.eabi_attribute 26, 1
  12              		.eabi_attribute 30, 4
  13              		.eabi_attribute 34, 1
  14              		.eabi_attribute 18, 4
  15              		.thumb
  16              		.file	"stubs.c"
  17              		.text
  18              	.Ltext0:
  19              		.cfi_sections	.debug_frame
  20              		.section	.text._read,"ax",%progbits
  21              		.align	1
  22              		.global	_read
  23              		.thumb
  24              		.thumb_func
  25              		.type	_read, %function
  26              	_read:
  27              	.LFB290:
  28              		.file 1 "../../libraries/AP_HAL_ChibiOS/hwdef/common/stubs.c"
  29              		.loc 1 90 0
  30              		.cfi_startproc
  31              		@ args = 0, pretend = 0, frame = 0
  32              		@ frame_needed = 0, uses_anonymous_args = 0
  33              		@ link register save eliminated.
  34              	.LVL0:
  35              		.loc 1 103 0
  36 0000 1623     		movs	r3, #22
  37              	.LVL1:
  38 0002 0360     		str	r3, [r0]
  39              		.loc 1 106 0
  40 0004 4FF0FF30 		mov	r0, #-1
  41              	.LVL2:
  42 0008 7047     		bx	lr
  43              		.cfi_endproc
  44              	.LFE290:
  45              		.size	_read, .-_read
  46              		.section	.text._lseek,"ax",%progbits
  47              		.align	1
  48              		.global	_lseek
  49              		.thumb
  50              		.thumb_func
  51              		.type	_lseek, %function
  52              	_lseek:
  53              	.LFB291:
  54              		.loc 1 112 0
  55              		.cfi_startproc
  56              		@ args = 0, pretend = 0, frame = 0
  57              		@ frame_needed = 0, uses_anonymous_args = 0
ARM GAS  /tmp/ccNeVBbf.s 			page 2


  58              		@ link register save eliminated.
  59              	.LVL3:
  60              		.loc 1 119 0
  61 0000 0020     		movs	r0, #0
  62              	.LVL4:
  63 0002 7047     		bx	lr
  64              		.cfi_endproc
  65              	.LFE291:
  66              		.size	_lseek, .-_lseek
  67              		.section	.text._write,"ax",%progbits
  68              		.align	1
  69              		.global	_write
  70              		.thumb
  71              		.thumb_func
  72              		.type	_write, %function
  73              	_write:
  74              	.LFB292:
  75              		.loc 1 125 0
  76              		.cfi_startproc
  77              		@ args = 0, pretend = 0, frame = 0
  78              		@ frame_needed = 0, uses_anonymous_args = 0
  79              		@ link register save eliminated.
  80              	.LVL5:
  81              		.loc 1 137 0
  82 0000 1846     		mov	r0, r3
  83              	.LVL6:
  84 0002 7047     		bx	lr
  85              		.cfi_endproc
  86              	.LFE292:
  87              		.size	_write, .-_write
  88              		.section	.text._close,"ax",%progbits
  89              		.align	1
  90              		.global	_close
  91              		.thumb
  92              		.thumb_func
  93              		.type	_close, %function
  94              	_close:
  95              	.LFB293:
  96              		.loc 1 143 0
  97              		.cfi_startproc
  98              		@ args = 0, pretend = 0, frame = 0
  99              		@ frame_needed = 0, uses_anonymous_args = 0
 100              		@ link register save eliminated.
 101              	.LVL7:
 102              		.loc 1 148 0
 103 0000 0020     		movs	r0, #0
 104              	.LVL8:
 105 0002 7047     		bx	lr
 106              		.cfi_endproc
 107              	.LFE293:
 108              		.size	_close, .-_close
 109              		.section	.text._sbrk,"ax",%progbits
 110              		.align	1
 111              		.global	_sbrk
 112              		.thumb
 113              		.thumb_func
 114              		.type	_sbrk, %function
ARM GAS  /tmp/ccNeVBbf.s 			page 3


 115              	_sbrk:
 116              	.LFB294:
 117              		.loc 1 154 0
 118              		.cfi_startproc
 119              		@ args = 0, pretend = 0, frame = 0
 120              		@ frame_needed = 0, uses_anonymous_args = 0
 121              	.LVL9:
 122 0000 10B5     		push	{r4, lr}
 123              		.cfi_def_cfa_offset 8
 124              		.cfi_offset 4, -8
 125              		.cfi_offset 14, -4
 126              	.LBB4:
 127              	.LBB5:
 128              		.file 2 "../../modules/ChibiOS/os/oslib/include/chmemheaps.h"
 129              		.loc 2 156 0
 130 0002 0822     		movs	r2, #8
 131              	.LBE5:
 132              	.LBE4:
 133              		.loc 1 154 0
 134 0004 0446     		mov	r4, r0
 135              	.LVL10:
 136              	.LBB7:
 137              	.LBB6:
 138              		.loc 2 156 0
 139 0006 0020     		movs	r0, #0
 140              	.LVL11:
 141 0008 FFF7FEFF 		bl	chHeapAllocAligned
 142              	.LVL12:
 143              	.LBE6:
 144              	.LBE7:
 145              		.loc 1 160 0
 146 000c 18B9     		cbnz	r0, .L6
 147              		.loc 1 161 0
 148 000e 0C23     		movs	r3, #12
 149 0010 2360     		str	r3, [r4]
 150              		.loc 1 162 0
 151 0012 4FF0FF30 		mov	r0, #-1
 152              	.L6:
 153              		.loc 1 170 0
 154 0016 10BD     		pop	{r4, pc}
 155              		.cfi_endproc
 156              	.LFE294:
 157              		.size	_sbrk, .-_sbrk
 158              		.section	.text._fstat,"ax",%progbits
 159              		.align	1
 160              		.global	_fstat
 161              		.thumb
 162              		.thumb_func
 163              		.type	_fstat, %function
 164              	_fstat:
 165              	.LFB295:
 166              		.loc 1 177 0
 167              		.cfi_startproc
 168              		@ args = 0, pretend = 0, frame = 0
 169              		@ frame_needed = 0, uses_anonymous_args = 0
 170              	.LVL13:
 171 0000 10B5     		push	{r4, lr}
ARM GAS  /tmp/ccNeVBbf.s 			page 4


 172              		.cfi_def_cfa_offset 8
 173              		.cfi_offset 4, -8
 174              		.cfi_offset 14, -4
 175              		.loc 1 181 0
 176 0002 1046     		mov	r0, r2
 177              	.LVL14:
 178              		.loc 1 177 0
 179 0004 1446     		mov	r4, r2
 180              		.loc 1 181 0
 181 0006 0021     		movs	r1, #0
 182              	.LVL15:
 183 0008 3C22     		movs	r2, #60
 184              	.LVL16:
 185 000a FFF7FEFF 		bl	memset
 186              	.LVL17:
 187              		.loc 1 182 0
 188 000e 4FF40053 		mov	r3, #8192
 189 0012 6360     		str	r3, [r4, #4]
 190              		.loc 1 184 0
 191 0014 0020     		movs	r0, #0
 192 0016 10BD     		pop	{r4, pc}
 193              		.cfi_endproc
 194              	.LFE295:
 195              		.size	_fstat, .-_fstat
 196              		.section	.text._isatty,"ax",%progbits
 197              		.align	1
 198              		.global	_isatty
 199              		.thumb
 200              		.thumb_func
 201              		.type	_isatty, %function
 202              	_isatty:
 203              	.LFB296:
 204              		.loc 1 190 0
 205              		.cfi_startproc
 206              		@ args = 0, pretend = 0, frame = 0
 207              		@ frame_needed = 0, uses_anonymous_args = 0
 208              		@ link register save eliminated.
 209              	.LVL18:
 210              		.loc 1 195 0
 211 0000 0120     		movs	r0, #1
 212              	.LVL19:
 213 0002 7047     		bx	lr
 214              		.cfi_endproc
 215              	.LFE296:
 216              		.size	_isatty, .-_isatty
 217              		.section	.text._getpid,"ax",%progbits
 218              		.align	1
 219              		.global	_getpid
 220              		.thumb
 221              		.thumb_func
 222              		.type	_getpid, %function
 223              	_getpid:
 224              	.LFB297:
 225              		.loc 1 199 0
 226              		.cfi_startproc
 227              		@ args = 0, pretend = 0, frame = 0
 228              		@ frame_needed = 0, uses_anonymous_args = 0
ARM GAS  /tmp/ccNeVBbf.s 			page 5


 229              		@ link register save eliminated.
 230              		.loc 1 201 0
 231 0000 0020     		movs	r0, #0
 232 0002 7047     		bx	lr
 233              		.cfi_endproc
 234              	.LFE297:
 235              		.size	_getpid, .-_getpid
 236              		.section	.text._exit,"ax",%progbits
 237              		.align	1
 238              		.global	_exit
 239              		.thumb
 240              		.thumb_func
 241              		.type	_exit, %function
 242              	_exit:
 243              	.LFB298:
 244              		.loc 1 205 0
 245              		.cfi_startproc
 246              		@ Volatile: function does not return.
 247              		@ args = 0, pretend = 0, frame = 0
 248              		@ frame_needed = 0, uses_anonymous_args = 0
 249              		@ link register save eliminated.
 250              	.LVL20:
 251              	.L13:
 252              		.loc 1 207 0 discriminator 1
 253 0000 FEE7     		b	.L13
 254              		.cfi_endproc
 255              	.LFE298:
 256              		.size	_exit, .-_exit
 257              		.section	.text._fini,"ax",%progbits
 258              		.align	1
 259              		.global	_fini
 260              		.thumb
 261              		.thumb_func
 262              		.type	_fini, %function
 263              	_fini:
 264              	.LFB299:
 265              		.loc 1 212 0
 266              		.cfi_startproc
 267              		@ args = 0, pretend = 0, frame = 0
 268              		@ frame_needed = 0, uses_anonymous_args = 0
 269              		@ link register save eliminated.
 270 0000 7047     		bx	lr
 271              		.cfi_endproc
 272              	.LFE299:
 273              		.size	_fini, .-_fini
 274              		.section	.text._kill,"ax",%progbits
 275              		.align	1
 276              		.global	_kill
 277              		.thumb
 278              		.thumb_func
 279              		.type	_kill, %function
 280              	_kill:
 281              	.LFB300:
 282              		.loc 1 217 0
 283              		.cfi_startproc
 284              		@ args = 0, pretend = 0, frame = 0
 285              		@ frame_needed = 0, uses_anonymous_args = 0
ARM GAS  /tmp/ccNeVBbf.s 			page 6


 286              		@ link register save eliminated.
 287              	.LVL21:
 288              		.loc 1 220 0
 289 0000 4FF0FF30 		mov	r0, #-1
 290              	.LVL22:
 291 0004 7047     		bx	lr
 292              		.cfi_endproc
 293              	.LFE300:
 294              		.size	_kill, .-_kill
 295              		.global	_before_main
 296              		.section	.data._before_main,"aw",%progbits
 297              		.type	_before_main, %object
 298              		.size	_before_main, 1
 299              	_before_main:
 300 0000 01       		.byte	1
 301              		.text
 302              	.Letext0:
 303              		.file 3 "/usr/include/newlib/machine/_default_types.h"
 304              		.file 4 "/usr/lib/gcc/arm-none-eabi/4.9.3/include/stddef.h"
 305              		.file 5 "/usr/include/newlib/sys/lock.h"
 306              		.file 6 "/usr/include/newlib/sys/_types.h"
 307              		.file 7 "/usr/include/newlib/sys/_stdint.h"
 308              		.file 8 "/usr/include/newlib/sys/types.h"
 309              		.file 9 "/usr/include/newlib/sys/reent.h"
 310              		.file 10 "/usr/include/newlib/sys/stat.h"
 311              		.file 11 "../../modules/ChibiOS/os/common/ports/ARMCMx/compilers/GCC/chtypes.h"
 312              		.file 12 "../../modules/ChibiOS/os/rt/include/chsystypes.h"
 313              		.file 13 "../../modules/ChibiOS/os/rt/include/chschd.h"
 314              		.file 14 "../../modules/ChibiOS/os/rt/include/chtime.h"
 315              		.file 15 "../../modules/ChibiOS/os/common/ports/ARMCMx/chcore.h"
 316              		.file 16 "../../modules/ChibiOS/os/common/ports/ARMCMx/chcore_v7m.h"
 317              		.file 17 "../../modules/ChibiOS/os/rt/include/chtm.h"
 318              		.file 18 "../../modules/ChibiOS/os/rt/include/chstats.h"
 319              		.file 19 "../../modules/ChibiOS/os/rt/include/chsem.h"
 320              		.file 20 "../../modules/ChibiOS/os/rt/include/chmtx.h"
 321              		.file 21 "../../modules/ChibiOS/os/oslib/include/chmemcore.h"
 322              		.file 22 "../../modules/ChibiOS/os/common/ext/ARM/CMSIS/Core/Include/core_cm4.h"
 323              		.file 23 "/usr/include/newlib/sys/unistd.h"
 324              		.section	.debug_info,"",%progbits
 325              	.Ldebug_info0:
 326 0000 2F150000 		.4byte	0x152f
 327 0004 0400     		.2byte	0x4
 328 0006 00000000 		.4byte	.Ldebug_abbrev0
 329 000a 04       		.byte	0x4
 330 000b 01       		.uleb128 0x1
 331 000c 74070000 		.4byte	.LASF265
 332 0010 01       		.byte	0x1
 333 0011 D3050000 		.4byte	.LASF266
 334 0015 44030000 		.4byte	.LASF267
 335 0019 18000000 		.4byte	.Ldebug_ranges0+0x18
 336 001d 00000000 		.4byte	0
 337 0021 00000000 		.4byte	.Ldebug_line0
 338 0025 02       		.uleb128 0x2
 339 0026 01       		.byte	0x1
 340 0027 06       		.byte	0x6
 341 0028 10020000 		.4byte	.LASF0
 342 002c 03       		.uleb128 0x3
ARM GAS  /tmp/ccNeVBbf.s 			page 7


 343 002d 3A010000 		.4byte	.LASF4
 344 0031 03       		.byte	0x3
 345 0032 1D       		.byte	0x1d
 346 0033 37000000 		.4byte	0x37
 347 0037 02       		.uleb128 0x2
 348 0038 01       		.byte	0x1
 349 0039 08       		.byte	0x8
 350 003a 62020000 		.4byte	.LASF1
 351 003e 02       		.uleb128 0x2
 352 003f 02       		.byte	0x2
 353 0040 05       		.byte	0x5
 354 0041 7A090000 		.4byte	.LASF2
 355 0045 02       		.uleb128 0x2
 356 0046 02       		.byte	0x2
 357 0047 07       		.byte	0x7
 358 0048 7B0A0000 		.4byte	.LASF3
 359 004c 03       		.uleb128 0x3
 360 004d C10A0000 		.4byte	.LASF5
 361 0051 03       		.byte	0x3
 362 0052 3F       		.byte	0x3f
 363 0053 57000000 		.4byte	0x57
 364 0057 02       		.uleb128 0x2
 365 0058 04       		.byte	0x4
 366 0059 05       		.byte	0x5
 367 005a 74010000 		.4byte	.LASF6
 368 005e 03       		.uleb128 0x3
 369 005f EC040000 		.4byte	.LASF7
 370 0063 03       		.byte	0x3
 371 0064 41       		.byte	0x41
 372 0065 69000000 		.4byte	0x69
 373 0069 02       		.uleb128 0x2
 374 006a 04       		.byte	0x4
 375 006b 07       		.byte	0x7
 376 006c CB030000 		.4byte	.LASF8
 377 0070 02       		.uleb128 0x2
 378 0071 08       		.byte	0x8
 379 0072 05       		.byte	0x5
 380 0073 0A050000 		.4byte	.LASF9
 381 0077 03       		.uleb128 0x3
 382 0078 B5030000 		.4byte	.LASF10
 383 007c 03       		.byte	0x3
 384 007d 5B       		.byte	0x5b
 385 007e 82000000 		.4byte	0x82
 386 0082 02       		.uleb128 0x2
 387 0083 08       		.byte	0x8
 388 0084 07       		.byte	0x7
 389 0085 5D070000 		.4byte	.LASF11
 390 0089 04       		.uleb128 0x4
 391 008a 04       		.byte	0x4
 392 008b 05       		.byte	0x5
 393 008c 696E7400 		.ascii	"int\000"
 394 0090 02       		.uleb128 0x2
 395 0091 04       		.byte	0x4
 396 0092 07       		.byte	0x7
 397 0093 A3050000 		.4byte	.LASF12
 398 0097 03       		.uleb128 0x3
 399 0098 0C000000 		.4byte	.LASF13
ARM GAS  /tmp/ccNeVBbf.s 			page 8


 400 009c 04       		.byte	0x4
 401 009d D4       		.byte	0xd4
 402 009e 90000000 		.4byte	0x90
 403 00a2 03       		.uleb128 0x3
 404 00a3 2D040000 		.4byte	.LASF14
 405 00a7 05       		.byte	0x5
 406 00a8 07       		.byte	0x7
 407 00a9 89000000 		.4byte	0x89
 408 00ad 03       		.uleb128 0x3
 409 00ae 630A0000 		.4byte	.LASF15
 410 00b2 06       		.byte	0x6
 411 00b3 10       		.byte	0x10
 412 00b4 57000000 		.4byte	0x57
 413 00b8 03       		.uleb128 0x3
 414 00b9 44010000 		.4byte	.LASF16
 415 00bd 06       		.byte	0x6
 416 00be 14       		.byte	0x14
 417 00bf 3E000000 		.4byte	0x3e
 418 00c3 03       		.uleb128 0x3
 419 00c4 080A0000 		.4byte	.LASF17
 420 00c8 06       		.byte	0x6
 421 00c9 18       		.byte	0x18
 422 00ca 45000000 		.4byte	0x45
 423 00ce 03       		.uleb128 0x3
 424 00cf B5000000 		.4byte	.LASF18
 425 00d3 06       		.byte	0x6
 426 00d4 1B       		.byte	0x1b
 427 00d5 45000000 		.4byte	0x45
 428 00d9 03       		.uleb128 0x3
 429 00da 1D070000 		.4byte	.LASF19
 430 00de 06       		.byte	0x6
 431 00df 27       		.byte	0x27
 432 00e0 57000000 		.4byte	0x57
 433 00e4 05       		.uleb128 0x5
 434 00e5 13090000 		.4byte	.LASF20
 435 00e9 04       		.byte	0x4
 436 00ea 6101     		.2byte	0x161
 437 00ec 90000000 		.4byte	0x90
 438 00f0 06       		.uleb128 0x6
 439 00f1 04       		.byte	0x4
 440 00f2 06       		.byte	0x6
 441 00f3 4A       		.byte	0x4a
 442 00f4 0F010000 		.4byte	0x10f
 443 00f8 07       		.uleb128 0x7
 444 00f9 2B010000 		.4byte	.LASF21
 445 00fd 06       		.byte	0x6
 446 00fe 4C       		.byte	0x4c
 447 00ff E4000000 		.4byte	0xe4
 448 0103 07       		.uleb128 0x7
 449 0104 25070000 		.4byte	.LASF22
 450 0108 06       		.byte	0x6
 451 0109 4D       		.byte	0x4d
 452 010a 0F010000 		.4byte	0x10f
 453 010e 00       		.byte	0
 454 010f 08       		.uleb128 0x8
 455 0110 37000000 		.4byte	0x37
 456 0114 1F010000 		.4byte	0x11f
ARM GAS  /tmp/ccNeVBbf.s 			page 9


 457 0118 09       		.uleb128 0x9
 458 0119 1F010000 		.4byte	0x11f
 459 011d 03       		.byte	0x3
 460 011e 00       		.byte	0
 461 011f 02       		.uleb128 0x2
 462 0120 04       		.byte	0x4
 463 0121 07       		.byte	0x7
 464 0122 13000000 		.4byte	.LASF23
 465 0126 0A       		.uleb128 0xa
 466 0127 08       		.byte	0x8
 467 0128 06       		.byte	0x6
 468 0129 47       		.byte	0x47
 469 012a 47010000 		.4byte	0x147
 470 012e 0B       		.uleb128 0xb
 471 012f 8C060000 		.4byte	.LASF24
 472 0133 06       		.byte	0x6
 473 0134 49       		.byte	0x49
 474 0135 89000000 		.4byte	0x89
 475 0139 00       		.byte	0
 476 013a 0B       		.uleb128 0xb
 477 013b 1C000000 		.4byte	.LASF25
 478 013f 06       		.byte	0x6
 479 0140 4E       		.byte	0x4e
 480 0141 F0000000 		.4byte	0xf0
 481 0145 04       		.byte	0x4
 482 0146 00       		.byte	0
 483 0147 03       		.uleb128 0x3
 484 0148 F6080000 		.4byte	.LASF26
 485 014c 06       		.byte	0x6
 486 014d 4F       		.byte	0x4f
 487 014e 26010000 		.4byte	0x126
 488 0152 03       		.uleb128 0x3
 489 0153 E1080000 		.4byte	.LASF27
 490 0157 06       		.byte	0x6
 491 0158 53       		.byte	0x53
 492 0159 A2000000 		.4byte	0xa2
 493 015d 0C       		.uleb128 0xc
 494 015e 04       		.byte	0x4
 495 015f 03       		.uleb128 0x3
 496 0160 23020000 		.4byte	.LASF28
 497 0164 07       		.byte	0x7
 498 0165 14       		.byte	0x14
 499 0166 2C000000 		.4byte	0x2c
 500 016a 03       		.uleb128 0x3
 501 016b 61000000 		.4byte	.LASF29
 502 016f 07       		.byte	0x7
 503 0170 1F       		.byte	0x1f
 504 0171 4C000000 		.4byte	0x4c
 505 0175 03       		.uleb128 0x3
 506 0176 520A0000 		.4byte	.LASF30
 507 017a 07       		.byte	0x7
 508 017b 20       		.byte	0x20
 509 017c 5E000000 		.4byte	0x5e
 510 0180 03       		.uleb128 0x3
 511 0181 84090000 		.4byte	.LASF31
 512 0185 07       		.byte	0x7
 513 0186 26       		.byte	0x26
ARM GAS  /tmp/ccNeVBbf.s 			page 10


 514 0187 77000000 		.4byte	0x77
 515 018b 03       		.uleb128 0x3
 516 018c F4000000 		.4byte	.LASF32
 517 0190 08       		.byte	0x8
 518 0191 7C       		.byte	0x7c
 519 0192 57000000 		.4byte	0x57
 520 0196 03       		.uleb128 0x3
 521 0197 B0050000 		.4byte	.LASF33
 522 019b 08       		.byte	0x8
 523 019c 85       		.byte	0x85
 524 019d A1010000 		.4byte	0x1a1
 525 01a1 0D       		.uleb128 0xd
 526 01a2 04       		.byte	0x4
 527 01a3 A7010000 		.4byte	0x1a7
 528 01a7 02       		.uleb128 0x2
 529 01a8 01       		.byte	0x1
 530 01a9 08       		.byte	0x8
 531 01aa B6020000 		.4byte	.LASF34
 532 01ae 03       		.uleb128 0x3
 533 01af C0030000 		.4byte	.LASF35
 534 01b3 08       		.byte	0x8
 535 01b4 8E       		.byte	0x8e
 536 01b5 45000000 		.4byte	0x45
 537 01b9 03       		.uleb128 0x3
 538 01ba 9D060000 		.4byte	.LASF36
 539 01be 08       		.byte	0x8
 540 01bf AB       		.byte	0xab
 541 01c0 AD000000 		.4byte	0xad
 542 01c4 03       		.uleb128 0x3
 543 01c5 A7000000 		.4byte	.LASF37
 544 01c9 08       		.byte	0x8
 545 01ca AC       		.byte	0xac
 546 01cb B8000000 		.4byte	0xb8
 547 01cf 03       		.uleb128 0x3
 548 01d0 4C010000 		.4byte	.LASF38
 549 01d4 08       		.byte	0x8
 550 01d5 AD       		.byte	0xad
 551 01d6 C3000000 		.4byte	0xc3
 552 01da 03       		.uleb128 0x3
 553 01db F90A0000 		.4byte	.LASF39
 554 01df 08       		.byte	0x8
 555 01e0 AE       		.byte	0xae
 556 01e1 CE000000 		.4byte	0xce
 557 01e5 03       		.uleb128 0x3
 558 01e6 07060000 		.4byte	.LASF40
 559 01ea 08       		.byte	0x8
 560 01eb B4       		.byte	0xb4
 561 01ec 89000000 		.4byte	0x89
 562 01f0 03       		.uleb128 0x3
 563 01f1 B1060000 		.4byte	.LASF41
 564 01f5 08       		.byte	0x8
 565 01f6 CC       		.byte	0xcc
 566 01f7 90000000 		.4byte	0x90
 567 01fb 03       		.uleb128 0x3
 568 01fc AD000000 		.4byte	.LASF42
 569 0200 08       		.byte	0x8
 570 0201 D1       		.byte	0xd1
ARM GAS  /tmp/ccNeVBbf.s 			page 11


 571 0202 45000000 		.4byte	0x45
 572 0206 03       		.uleb128 0x3
 573 0207 440A0000 		.4byte	.LASF43
 574 020b 09       		.byte	0x9
 575 020c 16       		.byte	0x16
 576 020d 69000000 		.4byte	0x69
 577 0211 0E       		.uleb128 0xe
 578 0212 8F040000 		.4byte	.LASF48
 579 0216 18       		.byte	0x18
 580 0217 09       		.byte	0x9
 581 0218 2D       		.byte	0x2d
 582 0219 64020000 		.4byte	0x264
 583 021d 0B       		.uleb128 0xb
 584 021e 1A090000 		.4byte	.LASF44
 585 0222 09       		.byte	0x9
 586 0223 2F       		.byte	0x2f
 587 0224 64020000 		.4byte	0x264
 588 0228 00       		.byte	0
 589 0229 0F       		.uleb128 0xf
 590 022a 5F6B00   		.ascii	"_k\000"
 591 022d 09       		.byte	0x9
 592 022e 30       		.byte	0x30
 593 022f 89000000 		.4byte	0x89
 594 0233 04       		.byte	0x4
 595 0234 0B       		.uleb128 0xb
 596 0235 A7040000 		.4byte	.LASF45
 597 0239 09       		.byte	0x9
 598 023a 30       		.byte	0x30
 599 023b 89000000 		.4byte	0x89
 600 023f 08       		.byte	0x8
 601 0240 0B       		.uleb128 0xb
 602 0241 80050000 		.4byte	.LASF46
 603 0245 09       		.byte	0x9
 604 0246 30       		.byte	0x30
 605 0247 89000000 		.4byte	0x89
 606 024b 0C       		.byte	0xc
 607 024c 0B       		.uleb128 0xb
 608 024d 3F030000 		.4byte	.LASF47
 609 0251 09       		.byte	0x9
 610 0252 30       		.byte	0x30
 611 0253 89000000 		.4byte	0x89
 612 0257 10       		.byte	0x10
 613 0258 0F       		.uleb128 0xf
 614 0259 5F7800   		.ascii	"_x\000"
 615 025c 09       		.byte	0x9
 616 025d 31       		.byte	0x31
 617 025e 6A020000 		.4byte	0x26a
 618 0262 14       		.byte	0x14
 619 0263 00       		.byte	0
 620 0264 0D       		.uleb128 0xd
 621 0265 04       		.byte	0x4
 622 0266 11020000 		.4byte	0x211
 623 026a 08       		.uleb128 0x8
 624 026b 06020000 		.4byte	0x206
 625 026f 7A020000 		.4byte	0x27a
 626 0273 09       		.uleb128 0x9
 627 0274 1F010000 		.4byte	0x11f
ARM GAS  /tmp/ccNeVBbf.s 			page 12


 628 0278 00       		.byte	0
 629 0279 00       		.byte	0
 630 027a 0E       		.uleb128 0xe
 631 027b C5000000 		.4byte	.LASF49
 632 027f 24       		.byte	0x24
 633 0280 09       		.byte	0x9
 634 0281 35       		.byte	0x35
 635 0282 F3020000 		.4byte	0x2f3
 636 0286 0B       		.uleb128 0xb
 637 0287 E1000000 		.4byte	.LASF50
 638 028b 09       		.byte	0x9
 639 028c 37       		.byte	0x37
 640 028d 89000000 		.4byte	0x89
 641 0291 00       		.byte	0
 642 0292 0B       		.uleb128 0xb
 643 0293 FF0A0000 		.4byte	.LASF51
 644 0297 09       		.byte	0x9
 645 0298 38       		.byte	0x38
 646 0299 89000000 		.4byte	0x89
 647 029d 04       		.byte	0x4
 648 029e 0B       		.uleb128 0xb
 649 029f 8E0A0000 		.4byte	.LASF52
 650 02a3 09       		.byte	0x9
 651 02a4 39       		.byte	0x39
 652 02a5 89000000 		.4byte	0x89
 653 02a9 08       		.byte	0x8
 654 02aa 0B       		.uleb128 0xb
 655 02ab 0D060000 		.4byte	.LASF53
 656 02af 09       		.byte	0x9
 657 02b0 3A       		.byte	0x3a
 658 02b1 89000000 		.4byte	0x89
 659 02b5 0C       		.byte	0xc
 660 02b6 0B       		.uleb128 0xb
 661 02b7 D5010000 		.4byte	.LASF54
 662 02bb 09       		.byte	0x9
 663 02bc 3B       		.byte	0x3b
 664 02bd 89000000 		.4byte	0x89
 665 02c1 10       		.byte	0x10
 666 02c2 0B       		.uleb128 0xb
 667 02c3 BD090000 		.4byte	.LASF55
 668 02c7 09       		.byte	0x9
 669 02c8 3C       		.byte	0x3c
 670 02c9 89000000 		.4byte	0x89
 671 02cd 14       		.byte	0x14
 672 02ce 0B       		.uleb128 0xb
 673 02cf CA060000 		.4byte	.LASF56
 674 02d3 09       		.byte	0x9
 675 02d4 3D       		.byte	0x3d
 676 02d5 89000000 		.4byte	0x89
 677 02d9 18       		.byte	0x18
 678 02da 0B       		.uleb128 0xb
 679 02db E6060000 		.4byte	.LASF57
 680 02df 09       		.byte	0x9
 681 02e0 3E       		.byte	0x3e
 682 02e1 89000000 		.4byte	0x89
 683 02e5 1C       		.byte	0x1c
 684 02e6 0B       		.uleb128 0xb
ARM GAS  /tmp/ccNeVBbf.s 			page 13


 685 02e7 E90A0000 		.4byte	.LASF58
 686 02eb 09       		.byte	0x9
 687 02ec 3F       		.byte	0x3f
 688 02ed 89000000 		.4byte	0x89
 689 02f1 20       		.byte	0x20
 690 02f2 00       		.byte	0
 691 02f3 10       		.uleb128 0x10
 692 02f4 58010000 		.4byte	.LASF59
 693 02f8 0801     		.2byte	0x108
 694 02fa 09       		.byte	0x9
 695 02fb 48       		.byte	0x48
 696 02fc 33030000 		.4byte	0x333
 697 0300 0B       		.uleb128 0xb
 698 0301 D20A0000 		.4byte	.LASF60
 699 0305 09       		.byte	0x9
 700 0306 49       		.byte	0x49
 701 0307 33030000 		.4byte	0x333
 702 030b 00       		.byte	0
 703 030c 0B       		.uleb128 0xb
 704 030d 63080000 		.4byte	.LASF61
 705 0311 09       		.byte	0x9
 706 0312 4A       		.byte	0x4a
 707 0313 33030000 		.4byte	0x333
 708 0317 80       		.byte	0x80
 709 0318 11       		.uleb128 0x11
 710 0319 A4090000 		.4byte	.LASF62
 711 031d 09       		.byte	0x9
 712 031e 4C       		.byte	0x4c
 713 031f 06020000 		.4byte	0x206
 714 0323 0001     		.2byte	0x100
 715 0325 11       		.uleb128 0x11
 716 0326 F0090000 		.4byte	.LASF63
 717 032a 09       		.byte	0x9
 718 032b 4F       		.byte	0x4f
 719 032c 06020000 		.4byte	0x206
 720 0330 0401     		.2byte	0x104
 721 0332 00       		.byte	0
 722 0333 08       		.uleb128 0x8
 723 0334 5D010000 		.4byte	0x15d
 724 0338 43030000 		.4byte	0x343
 725 033c 09       		.uleb128 0x9
 726 033d 1F010000 		.4byte	0x11f
 727 0341 1F       		.byte	0x1f
 728 0342 00       		.byte	0
 729 0343 10       		.uleb128 0x10
 730 0344 84060000 		.4byte	.LASF64
 731 0348 9001     		.2byte	0x190
 732 034a 09       		.byte	0x9
 733 034b 5B       		.byte	0x5b
 734 034c 81030000 		.4byte	0x381
 735 0350 0B       		.uleb128 0xb
 736 0351 1A090000 		.4byte	.LASF44
 737 0355 09       		.byte	0x9
 738 0356 5C       		.byte	0x5c
 739 0357 81030000 		.4byte	0x381
 740 035b 00       		.byte	0
 741 035c 0B       		.uleb128 0xb
ARM GAS  /tmp/ccNeVBbf.s 			page 14


 742 035d DC090000 		.4byte	.LASF65
 743 0361 09       		.byte	0x9
 744 0362 5D       		.byte	0x5d
 745 0363 89000000 		.4byte	0x89
 746 0367 04       		.byte	0x4
 747 0368 0B       		.uleb128 0xb
 748 0369 C2020000 		.4byte	.LASF66
 749 036d 09       		.byte	0x9
 750 036e 5F       		.byte	0x5f
 751 036f 87030000 		.4byte	0x387
 752 0373 08       		.byte	0x8
 753 0374 0B       		.uleb128 0xb
 754 0375 58010000 		.4byte	.LASF59
 755 0379 09       		.byte	0x9
 756 037a 60       		.byte	0x60
 757 037b F3020000 		.4byte	0x2f3
 758 037f 88       		.byte	0x88
 759 0380 00       		.byte	0
 760 0381 0D       		.uleb128 0xd
 761 0382 04       		.byte	0x4
 762 0383 43030000 		.4byte	0x343
 763 0387 08       		.uleb128 0x8
 764 0388 97030000 		.4byte	0x397
 765 038c 97030000 		.4byte	0x397
 766 0390 09       		.uleb128 0x9
 767 0391 1F010000 		.4byte	0x11f
 768 0395 1F       		.byte	0x1f
 769 0396 00       		.byte	0
 770 0397 0D       		.uleb128 0xd
 771 0398 04       		.byte	0x4
 772 0399 9D030000 		.4byte	0x39d
 773 039d 12       		.uleb128 0x12
 774 039e 0E       		.uleb128 0xe
 775 039f E9090000 		.4byte	.LASF67
 776 03a3 08       		.byte	0x8
 777 03a4 09       		.byte	0x9
 778 03a5 73       		.byte	0x73
 779 03a6 C3030000 		.4byte	0x3c3
 780 03aa 0B       		.uleb128 0xb
 781 03ab A5080000 		.4byte	.LASF68
 782 03af 09       		.byte	0x9
 783 03b0 74       		.byte	0x74
 784 03b1 C3030000 		.4byte	0x3c3
 785 03b5 00       		.byte	0
 786 03b6 0B       		.uleb128 0xb
 787 03b7 95010000 		.4byte	.LASF69
 788 03bb 09       		.byte	0x9
 789 03bc 75       		.byte	0x75
 790 03bd 89000000 		.4byte	0x89
 791 03c1 04       		.byte	0x4
 792 03c2 00       		.byte	0
 793 03c3 0D       		.uleb128 0xd
 794 03c4 04       		.byte	0x4
 795 03c5 37000000 		.4byte	0x37
 796 03c9 0E       		.uleb128 0xe
 797 03ca DD030000 		.4byte	.LASF70
 798 03ce 68       		.byte	0x68
ARM GAS  /tmp/ccNeVBbf.s 			page 15


 799 03cf 09       		.byte	0x9
 800 03d0 B3       		.byte	0xb3
 801 03d1 F3040000 		.4byte	0x4f3
 802 03d5 0F       		.uleb128 0xf
 803 03d6 5F7000   		.ascii	"_p\000"
 804 03d9 09       		.byte	0x9
 805 03da B4       		.byte	0xb4
 806 03db C3030000 		.4byte	0x3c3
 807 03df 00       		.byte	0
 808 03e0 0F       		.uleb128 0xf
 809 03e1 5F7200   		.ascii	"_r\000"
 810 03e4 09       		.byte	0x9
 811 03e5 B5       		.byte	0xb5
 812 03e6 89000000 		.4byte	0x89
 813 03ea 04       		.byte	0x4
 814 03eb 0F       		.uleb128 0xf
 815 03ec 5F7700   		.ascii	"_w\000"
 816 03ef 09       		.byte	0x9
 817 03f0 B6       		.byte	0xb6
 818 03f1 89000000 		.4byte	0x89
 819 03f5 08       		.byte	0x8
 820 03f6 0B       		.uleb128 0xb
 821 03f7 63060000 		.4byte	.LASF71
 822 03fb 09       		.byte	0x9
 823 03fc B7       		.byte	0xb7
 824 03fd 3E000000 		.4byte	0x3e
 825 0401 0C       		.byte	0xc
 826 0402 0B       		.uleb128 0xb
 827 0403 52010000 		.4byte	.LASF72
 828 0407 09       		.byte	0x9
 829 0408 B8       		.byte	0xb8
 830 0409 3E000000 		.4byte	0x3e
 831 040d 0E       		.byte	0xe
 832 040e 0F       		.uleb128 0xf
 833 040f 5F626600 		.ascii	"_bf\000"
 834 0413 09       		.byte	0x9
 835 0414 B9       		.byte	0xb9
 836 0415 9E030000 		.4byte	0x39e
 837 0419 10       		.byte	0x10
 838 041a 0B       		.uleb128 0xb
 839 041b C7090000 		.4byte	.LASF73
 840 041f 09       		.byte	0x9
 841 0420 BA       		.byte	0xba
 842 0421 89000000 		.4byte	0x89
 843 0425 18       		.byte	0x18
 844 0426 0B       		.uleb128 0xb
 845 0427 30030000 		.4byte	.LASF74
 846 042b 09       		.byte	0x9
 847 042c C1       		.byte	0xc1
 848 042d 5D010000 		.4byte	0x15d
 849 0431 1C       		.byte	0x1c
 850 0432 0B       		.uleb128 0xb
 851 0433 39000000 		.4byte	.LASF75
 852 0437 09       		.byte	0x9
 853 0438 C3       		.byte	0xc3
 854 0439 49060000 		.4byte	0x649
 855 043d 20       		.byte	0x20
ARM GAS  /tmp/ccNeVBbf.s 			page 16


 856 043e 0B       		.uleb128 0xb
 857 043f 5A000000 		.4byte	.LASF76
 858 0443 09       		.byte	0x9
 859 0444 C5       		.byte	0xc5
 860 0445 78060000 		.4byte	0x678
 861 0449 24       		.byte	0x24
 862 044a 0B       		.uleb128 0xb
 863 044b 10070000 		.4byte	.LASF77
 864 044f 09       		.byte	0x9
 865 0450 C8       		.byte	0xc8
 866 0451 9C060000 		.4byte	0x69c
 867 0455 28       		.byte	0x28
 868 0456 0B       		.uleb128 0xb
 869 0457 C7020000 		.4byte	.LASF78
 870 045b 09       		.byte	0x9
 871 045c C9       		.byte	0xc9
 872 045d B6060000 		.4byte	0x6b6
 873 0461 2C       		.byte	0x2c
 874 0462 0F       		.uleb128 0xf
 875 0463 5F756200 		.ascii	"_ub\000"
 876 0467 09       		.byte	0x9
 877 0468 CC       		.byte	0xcc
 878 0469 9E030000 		.4byte	0x39e
 879 046d 30       		.byte	0x30
 880 046e 0F       		.uleb128 0xf
 881 046f 5F757000 		.ascii	"_up\000"
 882 0473 09       		.byte	0x9
 883 0474 CD       		.byte	0xcd
 884 0475 C3030000 		.4byte	0x3c3
 885 0479 38       		.byte	0x38
 886 047a 0F       		.uleb128 0xf
 887 047b 5F757200 		.ascii	"_ur\000"
 888 047f 09       		.byte	0x9
 889 0480 CE       		.byte	0xce
 890 0481 89000000 		.4byte	0x89
 891 0485 3C       		.byte	0x3c
 892 0486 0B       		.uleb128 0xb
 893 0487 2B060000 		.4byte	.LASF79
 894 048b 09       		.byte	0x9
 895 048c D1       		.byte	0xd1
 896 048d BC060000 		.4byte	0x6bc
 897 0491 40       		.byte	0x40
 898 0492 0B       		.uleb128 0xb
 899 0493 DB000000 		.4byte	.LASF80
 900 0497 09       		.byte	0x9
 901 0498 D2       		.byte	0xd2
 902 0499 CC060000 		.4byte	0x6cc
 903 049d 43       		.byte	0x43
 904 049e 0F       		.uleb128 0xf
 905 049f 5F6C6200 		.ascii	"_lb\000"
 906 04a3 09       		.byte	0x9
 907 04a4 D5       		.byte	0xd5
 908 04a5 9E030000 		.4byte	0x39e
 909 04a9 44       		.byte	0x44
 910 04aa 0B       		.uleb128 0xb
 911 04ab 9C080000 		.4byte	.LASF81
 912 04af 09       		.byte	0x9
ARM GAS  /tmp/ccNeVBbf.s 			page 17


 913 04b0 D8       		.byte	0xd8
 914 04b1 89000000 		.4byte	0x89
 915 04b5 4C       		.byte	0x4c
 916 04b6 0B       		.uleb128 0xb
 917 04b7 88030000 		.4byte	.LASF82
 918 04bb 09       		.byte	0x9
 919 04bc D9       		.byte	0xd9
 920 04bd AD000000 		.4byte	0xad
 921 04c1 50       		.byte	0x50
 922 04c2 0B       		.uleb128 0xb
 923 04c3 20090000 		.4byte	.LASF83
 924 04c7 09       		.byte	0x9
 925 04c8 DC       		.byte	0xdc
 926 04c9 11050000 		.4byte	0x511
 927 04cd 54       		.byte	0x54
 928 04ce 0B       		.uleb128 0xb
 929 04cf 01010000 		.4byte	.LASF84
 930 04d3 09       		.byte	0x9
 931 04d4 E0       		.byte	0xe0
 932 04d5 52010000 		.4byte	0x152
 933 04d9 58       		.byte	0x58
 934 04da 0B       		.uleb128 0xb
 935 04db 47060000 		.4byte	.LASF85
 936 04df 09       		.byte	0x9
 937 04e0 E2       		.byte	0xe2
 938 04e1 47010000 		.4byte	0x147
 939 04e5 5C       		.byte	0x5c
 940 04e6 0B       		.uleb128 0xb
 941 04e7 F0030000 		.4byte	.LASF86
 942 04eb 09       		.byte	0x9
 943 04ec E3       		.byte	0xe3
 944 04ed 89000000 		.4byte	0x89
 945 04f1 64       		.byte	0x64
 946 04f2 00       		.byte	0
 947 04f3 13       		.uleb128 0x13
 948 04f4 89000000 		.4byte	0x89
 949 04f8 11050000 		.4byte	0x511
 950 04fc 14       		.uleb128 0x14
 951 04fd 11050000 		.4byte	0x511
 952 0501 14       		.uleb128 0x14
 953 0502 5D010000 		.4byte	0x15d
 954 0506 14       		.uleb128 0x14
 955 0507 A1010000 		.4byte	0x1a1
 956 050b 14       		.uleb128 0x14
 957 050c 89000000 		.4byte	0x89
 958 0510 00       		.byte	0
 959 0511 0D       		.uleb128 0xd
 960 0512 04       		.byte	0x4
 961 0513 17050000 		.4byte	0x517
 962 0517 15       		.uleb128 0x15
 963 0518 93020000 		.4byte	.LASF87
 964 051c 2804     		.2byte	0x428
 965 051e 09       		.byte	0x9
 966 051f 3902     		.2byte	0x239
 967 0521 49060000 		.4byte	0x649
 968 0525 16       		.uleb128 0x16
 969 0526 3F040000 		.4byte	.LASF88
ARM GAS  /tmp/ccNeVBbf.s 			page 18


 970 052a 09       		.byte	0x9
 971 052b 3B02     		.2byte	0x23b
 972 052d 89000000 		.4byte	0x89
 973 0531 00       		.byte	0
 974 0532 16       		.uleb128 0x16
 975 0533 DE020000 		.4byte	.LASF89
 976 0537 09       		.byte	0x9
 977 0538 4002     		.2byte	0x240
 978 053a 23070000 		.4byte	0x723
 979 053e 04       		.byte	0x4
 980 053f 16       		.uleb128 0x16
 981 0540 8E080000 		.4byte	.LASF90
 982 0544 09       		.byte	0x9
 983 0545 4002     		.2byte	0x240
 984 0547 23070000 		.4byte	0x723
 985 054b 08       		.byte	0x8
 986 054c 16       		.uleb128 0x16
 987 054d 31060000 		.4byte	.LASF91
 988 0551 09       		.byte	0x9
 989 0552 4002     		.2byte	0x240
 990 0554 23070000 		.4byte	0x723
 991 0558 0C       		.byte	0xc
 992 0559 16       		.uleb128 0x16
 993 055a D7090000 		.4byte	.LASF92
 994 055e 09       		.byte	0x9
 995 055f 4202     		.2byte	0x242
 996 0561 89000000 		.4byte	0x89
 997 0565 10       		.byte	0x10
 998 0566 16       		.uleb128 0x16
 999 0567 F7040000 		.4byte	.LASF93
 1000 056b 09       		.byte	0x9
 1001 056c 4302     		.2byte	0x243
 1002 056e 05090000 		.4byte	0x905
 1003 0572 14       		.byte	0x14
 1004 0573 16       		.uleb128 0x16
 1005 0574 E3010000 		.4byte	.LASF94
 1006 0578 09       		.byte	0x9
 1007 0579 4502     		.2byte	0x245
 1008 057b 89000000 		.4byte	0x89
 1009 057f 30       		.byte	0x30
 1010 0580 16       		.uleb128 0x16
 1011 0581 4D050000 		.4byte	.LASF95
 1012 0585 09       		.byte	0x9
 1013 0586 4602     		.2byte	0x246
 1014 0588 6D060000 		.4byte	0x66d
 1015 058c 34       		.byte	0x34
 1016 058d 16       		.uleb128 0x16
 1017 058e E5030000 		.4byte	.LASF96
 1018 0592 09       		.byte	0x9
 1019 0593 4802     		.2byte	0x248
 1020 0595 89000000 		.4byte	0x89
 1021 0599 38       		.byte	0x38
 1022 059a 16       		.uleb128 0x16
 1023 059b B5040000 		.4byte	.LASF97
 1024 059f 09       		.byte	0x9
 1025 05a0 4A02     		.2byte	0x24a
 1026 05a2 20090000 		.4byte	0x920
ARM GAS  /tmp/ccNeVBbf.s 			page 19


 1027 05a6 3C       		.byte	0x3c
 1028 05a7 16       		.uleb128 0x16
 1029 05a8 5B0A0000 		.4byte	.LASF98
 1030 05ac 09       		.byte	0x9
 1031 05ad 4D02     		.2byte	0x24d
 1032 05af 64020000 		.4byte	0x264
 1033 05b3 40       		.byte	0x40
 1034 05b4 16       		.uleb128 0x16
 1035 05b5 8B010000 		.4byte	.LASF99
 1036 05b9 09       		.byte	0x9
 1037 05ba 4E02     		.2byte	0x24e
 1038 05bc 89000000 		.4byte	0x89
 1039 05c0 44       		.byte	0x44
 1040 05c1 16       		.uleb128 0x16
 1041 05c2 C6030000 		.4byte	.LASF100
 1042 05c6 09       		.byte	0x9
 1043 05c7 4F02     		.2byte	0x24f
 1044 05c9 64020000 		.4byte	0x264
 1045 05cd 48       		.byte	0x48
 1046 05ce 16       		.uleb128 0x16
 1047 05cf 5D050000 		.4byte	.LASF101
 1048 05d3 09       		.byte	0x9
 1049 05d4 5002     		.2byte	0x250
 1050 05d6 26090000 		.4byte	0x926
 1051 05da 4C       		.byte	0x4c
 1052 05db 16       		.uleb128 0x16
 1053 05dc 76000000 		.4byte	.LASF102
 1054 05e0 09       		.byte	0x9
 1055 05e1 5302     		.2byte	0x253
 1056 05e3 89000000 		.4byte	0x89
 1057 05e7 50       		.byte	0x50
 1058 05e8 16       		.uleb128 0x16
 1059 05e9 90030000 		.4byte	.LASF103
 1060 05ed 09       		.byte	0x9
 1061 05ee 5402     		.2byte	0x254
 1062 05f0 A1010000 		.4byte	0x1a1
 1063 05f4 54       		.byte	0x54
 1064 05f5 16       		.uleb128 0x16
 1065 05f6 26060000 		.4byte	.LASF104
 1066 05fa 09       		.byte	0x9
 1067 05fb 7702     		.2byte	0x277
 1068 05fd E3080000 		.4byte	0x8e3
 1069 0601 58       		.byte	0x58
 1070 0602 17       		.uleb128 0x17
 1071 0603 84060000 		.4byte	.LASF64
 1072 0607 09       		.byte	0x9
 1073 0608 7B02     		.2byte	0x27b
 1074 060a 81030000 		.4byte	0x381
 1075 060e 4801     		.2byte	0x148
 1076 0610 17       		.uleb128 0x17
 1077 0611 BF040000 		.4byte	.LASF105
 1078 0615 09       		.byte	0x9
 1079 0616 7C02     		.2byte	0x27c
 1080 0618 43030000 		.4byte	0x343
 1081 061c 4C01     		.2byte	0x14c
 1082 061e 17       		.uleb128 0x17
 1083 061f 7E030000 		.4byte	.LASF106
ARM GAS  /tmp/ccNeVBbf.s 			page 20


 1084 0623 09       		.byte	0x9
 1085 0624 8002     		.2byte	0x280
 1086 0626 37090000 		.4byte	0x937
 1087 062a DC02     		.2byte	0x2dc
 1088 062c 17       		.uleb128 0x17
 1089 062d 2D050000 		.4byte	.LASF107
 1090 0631 09       		.byte	0x9
 1091 0632 8502     		.2byte	0x285
 1092 0634 E8060000 		.4byte	0x6e8
 1093 0638 E002     		.2byte	0x2e0
 1094 063a 17       		.uleb128 0x17
 1095 063b 2E000000 		.4byte	.LASF108
 1096 063f 09       		.byte	0x9
 1097 0640 8602     		.2byte	0x286
 1098 0642 43090000 		.4byte	0x943
 1099 0646 EC02     		.2byte	0x2ec
 1100 0648 00       		.byte	0
 1101 0649 0D       		.uleb128 0xd
 1102 064a 04       		.byte	0x4
 1103 064b F3040000 		.4byte	0x4f3
 1104 064f 13       		.uleb128 0x13
 1105 0650 89000000 		.4byte	0x89
 1106 0654 6D060000 		.4byte	0x66d
 1107 0658 14       		.uleb128 0x14
 1108 0659 11050000 		.4byte	0x511
 1109 065d 14       		.uleb128 0x14
 1110 065e 5D010000 		.4byte	0x15d
 1111 0662 14       		.uleb128 0x14
 1112 0663 6D060000 		.4byte	0x66d
 1113 0667 14       		.uleb128 0x14
 1114 0668 89000000 		.4byte	0x89
 1115 066c 00       		.byte	0
 1116 066d 0D       		.uleb128 0xd
 1117 066e 04       		.byte	0x4
 1118 066f 73060000 		.4byte	0x673
 1119 0673 18       		.uleb128 0x18
 1120 0674 A7010000 		.4byte	0x1a7
 1121 0678 0D       		.uleb128 0xd
 1122 0679 04       		.byte	0x4
 1123 067a 4F060000 		.4byte	0x64f
 1124 067e 13       		.uleb128 0x13
 1125 067f D9000000 		.4byte	0xd9
 1126 0683 9C060000 		.4byte	0x69c
 1127 0687 14       		.uleb128 0x14
 1128 0688 11050000 		.4byte	0x511
 1129 068c 14       		.uleb128 0x14
 1130 068d 5D010000 		.4byte	0x15d
 1131 0691 14       		.uleb128 0x14
 1132 0692 D9000000 		.4byte	0xd9
 1133 0696 14       		.uleb128 0x14
 1134 0697 89000000 		.4byte	0x89
 1135 069b 00       		.byte	0
 1136 069c 0D       		.uleb128 0xd
 1137 069d 04       		.byte	0x4
 1138 069e 7E060000 		.4byte	0x67e
 1139 06a2 13       		.uleb128 0x13
 1140 06a3 89000000 		.4byte	0x89
ARM GAS  /tmp/ccNeVBbf.s 			page 21


 1141 06a7 B6060000 		.4byte	0x6b6
 1142 06ab 14       		.uleb128 0x14
 1143 06ac 11050000 		.4byte	0x511
 1144 06b0 14       		.uleb128 0x14
 1145 06b1 5D010000 		.4byte	0x15d
 1146 06b5 00       		.byte	0
 1147 06b6 0D       		.uleb128 0xd
 1148 06b7 04       		.byte	0x4
 1149 06b8 A2060000 		.4byte	0x6a2
 1150 06bc 08       		.uleb128 0x8
 1151 06bd 37000000 		.4byte	0x37
 1152 06c1 CC060000 		.4byte	0x6cc
 1153 06c5 09       		.uleb128 0x9
 1154 06c6 1F010000 		.4byte	0x11f
 1155 06ca 02       		.byte	0x2
 1156 06cb 00       		.byte	0
 1157 06cc 08       		.uleb128 0x8
 1158 06cd 37000000 		.4byte	0x37
 1159 06d1 DC060000 		.4byte	0x6dc
 1160 06d5 09       		.uleb128 0x9
 1161 06d6 1F010000 		.4byte	0x11f
 1162 06da 00       		.byte	0
 1163 06db 00       		.byte	0
 1164 06dc 05       		.uleb128 0x5
 1165 06dd EA080000 		.4byte	.LASF109
 1166 06e1 09       		.byte	0x9
 1167 06e2 1D01     		.2byte	0x11d
 1168 06e4 C9030000 		.4byte	0x3c9
 1169 06e8 19       		.uleb128 0x19
 1170 06e9 6D050000 		.4byte	.LASF110
 1171 06ed 0C       		.byte	0xc
 1172 06ee 09       		.byte	0x9
 1173 06ef 2101     		.2byte	0x121
 1174 06f1 1D070000 		.4byte	0x71d
 1175 06f5 16       		.uleb128 0x16
 1176 06f6 1A090000 		.4byte	.LASF44
 1177 06fa 09       		.byte	0x9
 1178 06fb 2301     		.2byte	0x123
 1179 06fd 1D070000 		.4byte	0x71d
 1180 0701 00       		.byte	0
 1181 0702 16       		.uleb128 0x16
 1182 0703 26050000 		.4byte	.LASF111
 1183 0707 09       		.byte	0x9
 1184 0708 2401     		.2byte	0x124
 1185 070a 89000000 		.4byte	0x89
 1186 070e 04       		.byte	0x4
 1187 070f 16       		.uleb128 0x16
 1188 0710 67050000 		.4byte	.LASF112
 1189 0714 09       		.byte	0x9
 1190 0715 2501     		.2byte	0x125
 1191 0717 23070000 		.4byte	0x723
 1192 071b 08       		.byte	0x8
 1193 071c 00       		.byte	0
 1194 071d 0D       		.uleb128 0xd
 1195 071e 04       		.byte	0x4
 1196 071f E8060000 		.4byte	0x6e8
 1197 0723 0D       		.uleb128 0xd
ARM GAS  /tmp/ccNeVBbf.s 			page 22


 1198 0724 04       		.byte	0x4
 1199 0725 DC060000 		.4byte	0x6dc
 1200 0729 19       		.uleb128 0x19
 1201 072a 86080000 		.4byte	.LASF113
 1202 072e 0E       		.byte	0xe
 1203 072f 09       		.byte	0x9
 1204 0730 3D01     		.2byte	0x13d
 1205 0732 5E070000 		.4byte	0x75e
 1206 0736 16       		.uleb128 0x16
 1207 0737 0A070000 		.4byte	.LASF114
 1208 073b 09       		.byte	0x9
 1209 073c 3E01     		.2byte	0x13e
 1210 073e 5E070000 		.4byte	0x75e
 1211 0742 00       		.byte	0
 1212 0743 16       		.uleb128 0x16
 1213 0744 0D010000 		.4byte	.LASF115
 1214 0748 09       		.byte	0x9
 1215 0749 3F01     		.2byte	0x13f
 1216 074b 5E070000 		.4byte	0x75e
 1217 074f 06       		.byte	0x6
 1218 0750 16       		.uleb128 0x16
 1219 0751 760A0000 		.4byte	.LASF116
 1220 0755 09       		.byte	0x9
 1221 0756 4001     		.2byte	0x140
 1222 0758 45000000 		.4byte	0x45
 1223 075c 0C       		.byte	0xc
 1224 075d 00       		.byte	0
 1225 075e 08       		.uleb128 0x8
 1226 075f 45000000 		.4byte	0x45
 1227 0763 6E070000 		.4byte	0x76e
 1228 0767 09       		.uleb128 0x9
 1229 0768 1F010000 		.4byte	0x11f
 1230 076c 02       		.byte	0x2
 1231 076d 00       		.byte	0
 1232 076e 1A       		.uleb128 0x1a
 1233 076f D0       		.byte	0xd0
 1234 0770 09       		.byte	0x9
 1235 0771 5802     		.2byte	0x258
 1236 0773 6F080000 		.4byte	0x86f
 1237 0777 16       		.uleb128 0x16
 1238 0778 03020000 		.4byte	.LASF117
 1239 077c 09       		.byte	0x9
 1240 077d 5A02     		.2byte	0x25a
 1241 077f 90000000 		.4byte	0x90
 1242 0783 00       		.byte	0
 1243 0784 16       		.uleb128 0x16
 1244 0785 BA080000 		.4byte	.LASF118
 1245 0789 09       		.byte	0x9
 1246 078a 5B02     		.2byte	0x25b
 1247 078c A1010000 		.4byte	0x1a1
 1248 0790 04       		.byte	0x4
 1249 0791 16       		.uleb128 0x16
 1250 0792 69000000 		.4byte	.LASF119
 1251 0796 09       		.byte	0x9
 1252 0797 5C02     		.2byte	0x25c
 1253 0799 6F080000 		.4byte	0x86f
 1254 079d 08       		.byte	0x8
ARM GAS  /tmp/ccNeVBbf.s 			page 23


 1255 079e 16       		.uleb128 0x16
 1256 079f 9B010000 		.4byte	.LASF120
 1257 07a3 09       		.byte	0x9
 1258 07a4 5D02     		.2byte	0x25d
 1259 07a6 7A020000 		.4byte	0x27a
 1260 07aa 24       		.byte	0x24
 1261 07ab 16       		.uleb128 0x16
 1262 07ac 3E050000 		.4byte	.LASF121
 1263 07b0 09       		.byte	0x9
 1264 07b1 5E02     		.2byte	0x25e
 1265 07b3 89000000 		.4byte	0x89
 1266 07b7 48       		.byte	0x48
 1267 07b8 16       		.uleb128 0x16
 1268 07b9 58060000 		.4byte	.LASF122
 1269 07bd 09       		.byte	0x9
 1270 07be 5F02     		.2byte	0x25f
 1271 07c0 82000000 		.4byte	0x82
 1272 07c4 50       		.byte	0x50
 1273 07c5 16       		.uleb128 0x16
 1274 07c6 07090000 		.4byte	.LASF123
 1275 07ca 09       		.byte	0x9
 1276 07cb 6002     		.2byte	0x260
 1277 07cd 29070000 		.4byte	0x729
 1278 07d1 58       		.byte	0x58
 1279 07d2 16       		.uleb128 0x16
 1280 07d3 6D090000 		.4byte	.LASF124
 1281 07d7 09       		.byte	0x9
 1282 07d8 6102     		.2byte	0x261
 1283 07da 47010000 		.4byte	0x147
 1284 07de 68       		.byte	0x68
 1285 07df 16       		.uleb128 0x16
 1286 07e0 3D070000 		.4byte	.LASF125
 1287 07e4 09       		.byte	0x9
 1288 07e5 6202     		.2byte	0x262
 1289 07e7 47010000 		.4byte	0x147
 1290 07eb 70       		.byte	0x70
 1291 07ec 16       		.uleb128 0x16
 1292 07ed 39060000 		.4byte	.LASF126
 1293 07f1 09       		.byte	0x9
 1294 07f2 6302     		.2byte	0x263
 1295 07f4 47010000 		.4byte	0x147
 1296 07f8 78       		.byte	0x78
 1297 07f9 16       		.uleb128 0x16
 1298 07fa EA000000 		.4byte	.LASF127
 1299 07fe 09       		.byte	0x9
 1300 07ff 6402     		.2byte	0x264
 1301 0801 7F080000 		.4byte	0x87f
 1302 0805 80       		.byte	0x80
 1303 0806 16       		.uleb128 0x16
 1304 0807 73040000 		.4byte	.LASF128
 1305 080b 09       		.byte	0x9
 1306 080c 6502     		.2byte	0x265
 1307 080e 8F080000 		.4byte	0x88f
 1308 0812 88       		.byte	0x88
 1309 0813 16       		.uleb128 0x16
 1310 0814 080B0000 		.4byte	.LASF129
 1311 0818 09       		.byte	0x9
ARM GAS  /tmp/ccNeVBbf.s 			page 24


 1312 0819 6602     		.2byte	0x266
 1313 081b 89000000 		.4byte	0x89
 1314 081f A0       		.byte	0xa0
 1315 0820 16       		.uleb128 0x16
 1316 0821 66010000 		.4byte	.LASF130
 1317 0825 09       		.byte	0x9
 1318 0826 6702     		.2byte	0x267
 1319 0828 47010000 		.4byte	0x147
 1320 082c A4       		.byte	0xa4
 1321 082d 16       		.uleb128 0x16
 1322 082e C7080000 		.4byte	.LASF131
 1323 0832 09       		.byte	0x9
 1324 0833 6802     		.2byte	0x268
 1325 0835 47010000 		.4byte	0x147
 1326 0839 AC       		.byte	0xac
 1327 083a 16       		.uleb128 0x16
 1328 083b A40A0000 		.4byte	.LASF132
 1329 083f 09       		.byte	0x9
 1330 0840 6902     		.2byte	0x269
 1331 0842 47010000 		.4byte	0x147
 1332 0846 B4       		.byte	0xb4
 1333 0847 16       		.uleb128 0x16
 1334 0848 DA0A0000 		.4byte	.LASF133
 1335 084c 09       		.byte	0x9
 1336 084d 6A02     		.2byte	0x26a
 1337 084f 47010000 		.4byte	0x147
 1338 0853 BC       		.byte	0xbc
 1339 0854 16       		.uleb128 0x16
 1340 0855 CA000000 		.4byte	.LASF134
 1341 0859 09       		.byte	0x9
 1342 085a 6B02     		.2byte	0x26b
 1343 085c 47010000 		.4byte	0x147
 1344 0860 C4       		.byte	0xc4
 1345 0861 16       		.uleb128 0x16
 1346 0862 C5050000 		.4byte	.LASF135
 1347 0866 09       		.byte	0x9
 1348 0867 6C02     		.2byte	0x26c
 1349 0869 89000000 		.4byte	0x89
 1350 086d CC       		.byte	0xcc
 1351 086e 00       		.byte	0
 1352 086f 08       		.uleb128 0x8
 1353 0870 A7010000 		.4byte	0x1a7
 1354 0874 7F080000 		.4byte	0x87f
 1355 0878 09       		.uleb128 0x9
 1356 0879 1F010000 		.4byte	0x11f
 1357 087d 19       		.byte	0x19
 1358 087e 00       		.byte	0
 1359 087f 08       		.uleb128 0x8
 1360 0880 A7010000 		.4byte	0x1a7
 1361 0884 8F080000 		.4byte	0x88f
 1362 0888 09       		.uleb128 0x9
 1363 0889 1F010000 		.4byte	0x11f
 1364 088d 07       		.byte	0x7
 1365 088e 00       		.byte	0
 1366 088f 08       		.uleb128 0x8
 1367 0890 A7010000 		.4byte	0x1a7
 1368 0894 9F080000 		.4byte	0x89f
ARM GAS  /tmp/ccNeVBbf.s 			page 25


 1369 0898 09       		.uleb128 0x9
 1370 0899 1F010000 		.4byte	0x11f
 1371 089d 17       		.byte	0x17
 1372 089e 00       		.byte	0
 1373 089f 1A       		.uleb128 0x1a
 1374 08a0 F0       		.byte	0xf0
 1375 08a1 09       		.byte	0x9
 1376 08a2 7102     		.2byte	0x271
 1377 08a4 C3080000 		.4byte	0x8c3
 1378 08a8 16       		.uleb128 0x16
 1379 08a9 100A0000 		.4byte	.LASF136
 1380 08ad 09       		.byte	0x9
 1381 08ae 7402     		.2byte	0x274
 1382 08b0 C3080000 		.4byte	0x8c3
 1383 08b4 00       		.byte	0
 1384 08b5 16       		.uleb128 0x16
 1385 08b6 35050000 		.4byte	.LASF137
 1386 08ba 09       		.byte	0x9
 1387 08bb 7502     		.2byte	0x275
 1388 08bd D3080000 		.4byte	0x8d3
 1389 08c1 78       		.byte	0x78
 1390 08c2 00       		.byte	0
 1391 08c3 08       		.uleb128 0x8
 1392 08c4 C3030000 		.4byte	0x3c3
 1393 08c8 D3080000 		.4byte	0x8d3
 1394 08cc 09       		.uleb128 0x9
 1395 08cd 1F010000 		.4byte	0x11f
 1396 08d1 1D       		.byte	0x1d
 1397 08d2 00       		.byte	0
 1398 08d3 08       		.uleb128 0x8
 1399 08d4 90000000 		.4byte	0x90
 1400 08d8 E3080000 		.4byte	0x8e3
 1401 08dc 09       		.uleb128 0x9
 1402 08dd 1F010000 		.4byte	0x11f
 1403 08e1 1D       		.byte	0x1d
 1404 08e2 00       		.byte	0
 1405 08e3 1B       		.uleb128 0x1b
 1406 08e4 F0       		.byte	0xf0
 1407 08e5 09       		.byte	0x9
 1408 08e6 5602     		.2byte	0x256
 1409 08e8 05090000 		.4byte	0x905
 1410 08ec 1C       		.uleb128 0x1c
 1411 08ed 93020000 		.4byte	.LASF87
 1412 08f1 09       		.byte	0x9
 1413 08f2 6D02     		.2byte	0x26d
 1414 08f4 6E070000 		.4byte	0x76e
 1415 08f8 1C       		.uleb128 0x1c
 1416 08f9 BD000000 		.4byte	.LASF138
 1417 08fd 09       		.byte	0x9
 1418 08fe 7602     		.2byte	0x276
 1419 0900 9F080000 		.4byte	0x89f
 1420 0904 00       		.byte	0
 1421 0905 08       		.uleb128 0x8
 1422 0906 A7010000 		.4byte	0x1a7
 1423 090a 15090000 		.4byte	0x915
 1424 090e 09       		.uleb128 0x9
 1425 090f 1F010000 		.4byte	0x11f
ARM GAS  /tmp/ccNeVBbf.s 			page 26


 1426 0913 18       		.byte	0x18
 1427 0914 00       		.byte	0
 1428 0915 1D       		.uleb128 0x1d
 1429 0916 20090000 		.4byte	0x920
 1430 091a 14       		.uleb128 0x14
 1431 091b 11050000 		.4byte	0x511
 1432 091f 00       		.byte	0
 1433 0920 0D       		.uleb128 0xd
 1434 0921 04       		.byte	0x4
 1435 0922 15090000 		.4byte	0x915
 1436 0926 0D       		.uleb128 0xd
 1437 0927 04       		.byte	0x4
 1438 0928 64020000 		.4byte	0x264
 1439 092c 1D       		.uleb128 0x1d
 1440 092d 37090000 		.4byte	0x937
 1441 0931 14       		.uleb128 0x14
 1442 0932 89000000 		.4byte	0x89
 1443 0936 00       		.byte	0
 1444 0937 0D       		.uleb128 0xd
 1445 0938 04       		.byte	0x4
 1446 0939 3D090000 		.4byte	0x93d
 1447 093d 0D       		.uleb128 0xd
 1448 093e 04       		.byte	0x4
 1449 093f 2C090000 		.4byte	0x92c
 1450 0943 08       		.uleb128 0x8
 1451 0944 DC060000 		.4byte	0x6dc
 1452 0948 53090000 		.4byte	0x953
 1453 094c 09       		.uleb128 0x9
 1454 094d 1F010000 		.4byte	0x11f
 1455 0951 02       		.byte	0x2
 1456 0952 00       		.byte	0
 1457 0953 0E       		.uleb128 0xe
 1458 0954 C8040000 		.4byte	.LASF139
 1459 0958 3C       		.byte	0x3c
 1460 0959 0A       		.byte	0xa
 1461 095a 1B       		.byte	0x1b
 1462 095b 2C0A0000 		.4byte	0xa2c
 1463 095f 0B       		.uleb128 0xb
 1464 0960 16070000 		.4byte	.LASF140
 1465 0964 0A       		.byte	0xa
 1466 0965 1D       		.byte	0x1d
 1467 0966 C4010000 		.4byte	0x1c4
 1468 096a 00       		.byte	0
 1469 096b 0B       		.uleb128 0xb
 1470 096c CB0A0000 		.4byte	.LASF141
 1471 0970 0A       		.byte	0xa
 1472 0971 1E       		.byte	0x1e
 1473 0972 AE010000 		.4byte	0x1ae
 1474 0976 02       		.byte	0x2
 1475 0977 0B       		.uleb128 0xb
 1476 0978 000A0000 		.4byte	.LASF142
 1477 097c 0A       		.byte	0xa
 1478 097d 1F       		.byte	0x1f
 1479 097e F0010000 		.4byte	0x1f0
 1480 0982 04       		.byte	0x4
 1481 0983 0B       		.uleb128 0xb
 1482 0984 94060000 		.4byte	.LASF143
ARM GAS  /tmp/ccNeVBbf.s 			page 27


 1483 0988 0A       		.byte	0xa
 1484 0989 20       		.byte	0x20
 1485 098a FB010000 		.4byte	0x1fb
 1486 098e 08       		.byte	0x8
 1487 098f 0B       		.uleb128 0xb
 1488 0990 35020000 		.4byte	.LASF144
 1489 0994 0A       		.byte	0xa
 1490 0995 21       		.byte	0x21
 1491 0996 CF010000 		.4byte	0x1cf
 1492 099a 0A       		.byte	0xa
 1493 099b 0B       		.uleb128 0xb
 1494 099c 98030000 		.4byte	.LASF145
 1495 09a0 0A       		.byte	0xa
 1496 09a1 22       		.byte	0x22
 1497 09a2 DA010000 		.4byte	0x1da
 1498 09a6 0C       		.byte	0xc
 1499 09a7 0B       		.uleb128 0xb
 1500 09a8 79020000 		.4byte	.LASF146
 1501 09ac 0A       		.byte	0xa
 1502 09ad 23       		.byte	0x23
 1503 09ae C4010000 		.4byte	0x1c4
 1504 09b2 0E       		.byte	0xe
 1505 09b3 0B       		.uleb128 0xb
 1506 09b4 F8030000 		.4byte	.LASF147
 1507 09b8 0A       		.byte	0xa
 1508 09b9 24       		.byte	0x24
 1509 09ba B9010000 		.4byte	0x1b9
 1510 09be 10       		.byte	0x10
 1511 09bf 0B       		.uleb128 0xb
 1512 09c0 DD060000 		.4byte	.LASF148
 1513 09c4 0A       		.byte	0xa
 1514 09c5 32       		.byte	0x32
 1515 09c6 8B010000 		.4byte	0x18b
 1516 09ca 14       		.byte	0x14
 1517 09cb 0B       		.uleb128 0xb
 1518 09cc 2B020000 		.4byte	.LASF149
 1519 09d0 0A       		.byte	0xa
 1520 09d1 33       		.byte	0x33
 1521 09d2 57000000 		.4byte	0x57
 1522 09d6 18       		.byte	0x18
 1523 09d7 0B       		.uleb128 0xb
 1524 09d8 3B090000 		.4byte	.LASF150
 1525 09dc 0A       		.byte	0xa
 1526 09dd 34       		.byte	0x34
 1527 09de 8B010000 		.4byte	0x18b
 1528 09e2 1C       		.byte	0x1c
 1529 09e3 0B       		.uleb128 0xb
 1530 09e4 69040000 		.4byte	.LASF151
 1531 09e8 0A       		.byte	0xa
 1532 09e9 35       		.byte	0x35
 1533 09ea 57000000 		.4byte	0x57
 1534 09ee 20       		.byte	0x20
 1535 09ef 0B       		.uleb128 0xb
 1536 09f0 0A030000 		.4byte	.LASF152
 1537 09f4 0A       		.byte	0xa
 1538 09f5 36       		.byte	0x36
 1539 09f6 8B010000 		.4byte	0x18b
ARM GAS  /tmp/ccNeVBbf.s 			page 28


 1540 09fa 24       		.byte	0x24
 1541 09fb 0B       		.uleb128 0xb
 1542 09fc 3C020000 		.4byte	.LASF153
 1543 0a00 0A       		.byte	0xa
 1544 0a01 37       		.byte	0x37
 1545 0a02 57000000 		.4byte	0x57
 1546 0a06 28       		.byte	0x28
 1547 0a07 0B       		.uleb128 0xb
 1548 0a08 CD040000 		.4byte	.LASF154
 1549 0a0c 0A       		.byte	0xa
 1550 0a0d 38       		.byte	0x38
 1551 0a0e 57000000 		.4byte	0x57
 1552 0a12 2C       		.byte	0x2c
 1553 0a13 0B       		.uleb128 0xb
 1554 0a14 47000000 		.4byte	.LASF155
 1555 0a18 0A       		.byte	0xa
 1556 0a19 39       		.byte	0x39
 1557 0a1a 57000000 		.4byte	0x57
 1558 0a1e 30       		.byte	0x30
 1559 0a1f 0B       		.uleb128 0xb
 1560 0a20 46020000 		.4byte	.LASF156
 1561 0a24 0A       		.byte	0xa
 1562 0a25 3A       		.byte	0x3a
 1563 0a26 2C0A0000 		.4byte	0xa2c
 1564 0a2a 34       		.byte	0x34
 1565 0a2b 00       		.byte	0
 1566 0a2c 08       		.uleb128 0x8
 1567 0a2d 57000000 		.4byte	0x57
 1568 0a31 3C0A0000 		.4byte	0xa3c
 1569 0a35 09       		.uleb128 0x9
 1570 0a36 1F010000 		.4byte	0x11f
 1571 0a3a 01       		.byte	0x1
 1572 0a3b 00       		.byte	0
 1573 0a3c 03       		.uleb128 0x3
 1574 0a3d B8050000 		.4byte	.LASF157
 1575 0a41 0B       		.byte	0xb
 1576 0a42 27       		.byte	0x27
 1577 0a43 75010000 		.4byte	0x175
 1578 0a47 03       		.uleb128 0x3
 1579 0a48 B3010000 		.4byte	.LASF158
 1580 0a4c 0B       		.byte	0xb
 1581 0a4d 28       		.byte	0x28
 1582 0a4e 80010000 		.4byte	0x180
 1583 0a52 03       		.uleb128 0x3
 1584 0a53 33090000 		.4byte	.LASF159
 1585 0a57 0B       		.byte	0xb
 1586 0a58 2A       		.byte	0x2a
 1587 0a59 5F010000 		.4byte	0x15f
 1588 0a5d 03       		.uleb128 0x3
 1589 0a5e AA010000 		.4byte	.LASF160
 1590 0a62 0B       		.byte	0xb
 1591 0a63 2B       		.byte	0x2b
 1592 0a64 5F010000 		.4byte	0x15f
 1593 0a68 03       		.uleb128 0x3
 1594 0a69 02030000 		.4byte	.LASF161
 1595 0a6d 0B       		.byte	0xb
 1596 0a6e 2C       		.byte	0x2c
ARM GAS  /tmp/ccNeVBbf.s 			page 29


 1597 0a6f 5F010000 		.4byte	0x15f
 1598 0a73 03       		.uleb128 0x3
 1599 0a74 3F000000 		.4byte	.LASF162
 1600 0a78 0B       		.byte	0xb
 1601 0a79 2E       		.byte	0x2e
 1602 0a7a 75010000 		.4byte	0x175
 1603 0a7e 03       		.uleb128 0x3
 1604 0a7f 6F080000 		.4byte	.LASF163
 1605 0a83 0B       		.byte	0xb
 1606 0a84 2F       		.byte	0x2f
 1607 0a85 6A010000 		.4byte	0x16a
 1608 0a89 03       		.uleb128 0x3
 1609 0a8a 50020000 		.4byte	.LASF164
 1610 0a8e 0B       		.byte	0xb
 1611 0a8f 31       		.byte	0x31
 1612 0a90 75010000 		.4byte	0x175
 1613 0a94 03       		.uleb128 0x3
 1614 0a95 1E030000 		.4byte	.LASF165
 1615 0a99 0B       		.byte	0xb
 1616 0a9a 33       		.byte	0x33
 1617 0a9b 6A010000 		.4byte	0x16a
 1618 0a9f 03       		.uleb128 0x3
 1619 0aa0 88040000 		.4byte	.LASF166
 1620 0aa4 0B       		.byte	0xb
 1621 0aa5 34       		.byte	0x34
 1622 0aa6 75010000 		.4byte	0x175
 1623 0aaa 03       		.uleb128 0x3
 1624 0aab D4060000 		.4byte	.LASF167
 1625 0aaf 0C       		.byte	0xc
 1626 0ab0 34       		.byte	0x34
 1627 0ab1 B50A0000 		.4byte	0xab5
 1628 0ab5 0E       		.uleb128 0xe
 1629 0ab6 0D040000 		.4byte	.LASF168
 1630 0aba 60       		.byte	0x60
 1631 0abb 0D       		.byte	0xd
 1632 0abc 8E       		.byte	0x8e
 1633 0abd A00B0000 		.4byte	0xba0
 1634 0ac1 0B       		.uleb128 0xb
 1635 0ac2 AB080000 		.4byte	.LASF169
 1636 0ac6 0D       		.byte	0xd
 1637 0ac7 8F       		.byte	0x8f
 1638 0ac8 D50B0000 		.4byte	0xbd5
 1639 0acc 00       		.byte	0
 1640 0acd 0B       		.uleb128 0xb
 1641 0ace 26010000 		.4byte	.LASF170
 1642 0ad2 0D       		.byte	0xd
 1643 0ad3 90       		.byte	0x90
 1644 0ad4 730A0000 		.4byte	0xa73
 1645 0ad8 08       		.byte	0x8
 1646 0ad9 0F       		.uleb128 0xf
 1647 0ada 63747800 		.ascii	"ctx\000"
 1648 0ade 0D       		.byte	0xd
 1649 0adf 91       		.byte	0x91
 1650 0ae0 E70D0000 		.4byte	0xde7
 1651 0ae4 0C       		.byte	0xc
 1652 0ae5 0B       		.uleb128 0xb
 1653 0ae6 4C0A0000 		.4byte	.LASF171
ARM GAS  /tmp/ccNeVBbf.s 			page 30


 1654 0aea 0D       		.byte	0xd
 1655 0aeb 93       		.byte	0x93
 1656 0aec AB0B0000 		.4byte	0xbab
 1657 0af0 10       		.byte	0x10
 1658 0af1 0B       		.uleb128 0xb
 1659 0af2 63040000 		.4byte	.LASF172
 1660 0af6 0D       		.byte	0xd
 1661 0af7 94       		.byte	0x94
 1662 0af8 AB0B0000 		.4byte	0xbab
 1663 0afc 14       		.byte	0x14
 1664 0afd 0B       		.uleb128 0xb
 1665 0afe 55090000 		.4byte	.LASF173
 1666 0b02 0D       		.byte	0xd
 1667 0b03 9B       		.byte	0x9b
 1668 0b04 6D060000 		.4byte	0x66d
 1669 0b08 18       		.byte	0x18
 1670 0b09 0B       		.uleb128 0xb
 1671 0b0a 0C090000 		.4byte	.LASF174
 1672 0b0e 0D       		.byte	0xd
 1673 0b0f A4       		.byte	0xa4
 1674 0b10 CD100000 		.4byte	0x10cd
 1675 0b14 1C       		.byte	0x1c
 1676 0b15 0B       		.uleb128 0xb
 1677 0b16 FB000000 		.4byte	.LASF175
 1678 0b1a 0D       		.byte	0xd
 1679 0b1b A9       		.byte	0xa9
 1680 0b1c 5D0A0000 		.4byte	0xa5d
 1681 0b20 20       		.byte	0x20
 1682 0b21 0B       		.uleb128 0xb
 1683 0b22 E5020000 		.4byte	.LASF176
 1684 0b26 0D       		.byte	0xd
 1685 0b27 AD       		.byte	0xad
 1686 0b28 520A0000 		.4byte	0xa52
 1687 0b2c 21       		.byte	0x21
 1688 0b2d 0B       		.uleb128 0xb
 1689 0b2e C0050000 		.4byte	.LASF177
 1690 0b32 0D       		.byte	0xd
 1691 0b33 B2       		.byte	0xb2
 1692 0b34 680A0000 		.4byte	0xa68
 1693 0b38 22       		.byte	0x22
 1694 0b39 1E       		.uleb128 0x1e
 1695 0b3a 7500     		.ascii	"u\000"
 1696 0b3c 0D       		.byte	0xd
 1697 0b3d 0301     		.2byte	0x103
 1698 0b3f 03100000 		.4byte	0x1003
 1699 0b43 24       		.byte	0x24
 1700 0b44 16       		.uleb128 0x16
 1701 0b45 E1090000 		.4byte	.LASF178
 1702 0b49 0D       		.byte	0xd
 1703 0b4a 0801     		.2byte	0x108
 1704 0b4c B10B0000 		.4byte	0xbb1
 1705 0b50 28       		.byte	0x28
 1706 0b51 16       		.uleb128 0x16
 1707 0b52 9B090000 		.4byte	.LASF179
 1708 0b56 0D       		.byte	0xd
 1709 0b57 0E01     		.2byte	0x10e
 1710 0b59 D50B0000 		.4byte	0xbd5
ARM GAS  /tmp/ccNeVBbf.s 			page 31


 1711 0b5d 2C       		.byte	0x2c
 1712 0b5e 16       		.uleb128 0x16
 1713 0b5f B1080000 		.4byte	.LASF180
 1714 0b63 0D       		.byte	0xd
 1715 0b64 1401     		.2byte	0x114
 1716 0b66 890A0000 		.4byte	0xa89
 1717 0b6a 34       		.byte	0x34
 1718 0b6b 16       		.uleb128 0x16
 1719 0b6c 02050000 		.4byte	.LASF181
 1720 0b70 0D       		.byte	0xd
 1721 0b71 1B01     		.2byte	0x11b
 1722 0b73 C7100000 		.4byte	0x10c7
 1723 0b77 38       		.byte	0x38
 1724 0b78 16       		.uleb128 0x16
 1725 0b79 7F040000 		.4byte	.LASF182
 1726 0b7d 0D       		.byte	0xd
 1727 0b7e 1F01     		.2byte	0x11f
 1728 0b80 730A0000 		.4byte	0xa73
 1729 0b84 3C       		.byte	0x3c
 1730 0b85 16       		.uleb128 0x16
 1731 0b86 F6020000 		.4byte	.LASF183
 1732 0b8a 0D       		.byte	0xd
 1733 0b8b 2601     		.2byte	0x126
 1734 0b8d 5D010000 		.4byte	0x15d
 1735 0b91 40       		.byte	0x40
 1736 0b92 16       		.uleb128 0x16
 1737 0b93 07010000 		.4byte	.LASF184
 1738 0b97 0D       		.byte	0xd
 1739 0b98 2C01     		.2byte	0x12c
 1740 0b9a B40F0000 		.4byte	0xfb4
 1741 0b9e 48       		.byte	0x48
 1742 0b9f 00       		.byte	0
 1743 0ba0 03       		.uleb128 0x3
 1744 0ba1 71060000 		.4byte	.LASF185
 1745 0ba5 0C       		.byte	0xc
 1746 0ba6 39       		.byte	0x39
 1747 0ba7 AB0B0000 		.4byte	0xbab
 1748 0bab 0D       		.uleb128 0xd
 1749 0bac 04       		.byte	0x4
 1750 0bad AA0A0000 		.4byte	0xaaa
 1751 0bb1 03       		.uleb128 0x3
 1752 0bb2 240A0000 		.4byte	.LASF186
 1753 0bb6 0C       		.byte	0xc
 1754 0bb7 3E       		.byte	0x3e
 1755 0bb8 BC0B0000 		.4byte	0xbbc
 1756 0bbc 0E       		.uleb128 0xe
 1757 0bbd 97040000 		.4byte	.LASF187
 1758 0bc1 04       		.byte	0x4
 1759 0bc2 0D       		.byte	0xd
 1760 0bc3 7C       		.byte	0x7c
 1761 0bc4 D50B0000 		.4byte	0xbd5
 1762 0bc8 0B       		.uleb128 0xb
 1763 0bc9 F40A0000 		.4byte	.LASF188
 1764 0bcd 0D       		.byte	0xd
 1765 0bce 7D       		.byte	0x7d
 1766 0bcf AB0B0000 		.4byte	0xbab
 1767 0bd3 00       		.byte	0
ARM GAS  /tmp/ccNeVBbf.s 			page 32


 1768 0bd4 00       		.byte	0
 1769 0bd5 03       		.uleb128 0x3
 1770 0bd6 BC010000 		.4byte	.LASF189
 1771 0bda 0C       		.byte	0xc
 1772 0bdb 45       		.byte	0x45
 1773 0bdc E00B0000 		.4byte	0xbe0
 1774 0be0 0E       		.uleb128 0xe
 1775 0be1 75080000 		.4byte	.LASF190
 1776 0be5 08       		.byte	0x8
 1777 0be6 0D       		.byte	0xd
 1778 0be7 83       		.byte	0x83
 1779 0be8 050C0000 		.4byte	0xc05
 1780 0bec 0B       		.uleb128 0xb
 1781 0bed F40A0000 		.4byte	.LASF188
 1782 0bf1 0D       		.byte	0xd
 1783 0bf2 84       		.byte	0x84
 1784 0bf3 AB0B0000 		.4byte	0xbab
 1785 0bf7 00       		.byte	0
 1786 0bf8 0B       		.uleb128 0xb
 1787 0bf9 BC0A0000 		.4byte	.LASF191
 1788 0bfd 0D       		.byte	0xd
 1789 0bfe 85       		.byte	0x85
 1790 0bff AB0B0000 		.4byte	0xbab
 1791 0c03 04       		.byte	0x4
 1792 0c04 00       		.byte	0
 1793 0c05 03       		.uleb128 0x3
 1794 0c06 56040000 		.4byte	.LASF192
 1795 0c0a 0C       		.byte	0xc
 1796 0c0b 4C       		.byte	0x4c
 1797 0c0c 100C0000 		.4byte	0xc10
 1798 0c10 19       		.uleb128 0x19
 1799 0c11 70030000 		.4byte	.LASF193
 1800 0c15 1C       		.byte	0x1c
 1801 0c16 0D       		.byte	0xd
 1802 0c17 5E01     		.2byte	0x15e
 1803 0c19 6C0C0000 		.4byte	0xc6c
 1804 0c1d 16       		.uleb128 0x16
 1805 0c1e AB080000 		.4byte	.LASF169
 1806 0c22 0D       		.byte	0xd
 1807 0c23 5F01     		.2byte	0x15f
 1808 0c25 D50B0000 		.4byte	0xbd5
 1809 0c29 00       		.byte	0
 1810 0c2a 16       		.uleb128 0x16
 1811 0c2b 26010000 		.4byte	.LASF170
 1812 0c2f 0D       		.byte	0xd
 1813 0c30 6001     		.2byte	0x160
 1814 0c32 730A0000 		.4byte	0xa73
 1815 0c36 08       		.byte	0x8
 1816 0c37 1E       		.uleb128 0x1e
 1817 0c38 63747800 		.ascii	"ctx\000"
 1818 0c3c 0D       		.byte	0xd
 1819 0c3d 6201     		.2byte	0x162
 1820 0c3f E70D0000 		.4byte	0xde7
 1821 0c43 0C       		.byte	0xc
 1822 0c44 16       		.uleb128 0x16
 1823 0c45 4C0A0000 		.4byte	.LASF171
 1824 0c49 0D       		.byte	0xd
ARM GAS  /tmp/ccNeVBbf.s 			page 33


 1825 0c4a 6501     		.2byte	0x165
 1826 0c4c AB0B0000 		.4byte	0xbab
 1827 0c50 10       		.byte	0x10
 1828 0c51 16       		.uleb128 0x16
 1829 0c52 63040000 		.4byte	.LASF172
 1830 0c56 0D       		.byte	0xd
 1831 0c57 6601     		.2byte	0x166
 1832 0c59 AB0B0000 		.4byte	0xbab
 1833 0c5d 14       		.byte	0x14
 1834 0c5e 16       		.uleb128 0x16
 1835 0c5f 50060000 		.4byte	.LASF194
 1836 0c63 0D       		.byte	0xd
 1837 0c64 6901     		.2byte	0x169
 1838 0c66 AB0B0000 		.4byte	0xbab
 1839 0c6a 18       		.byte	0x18
 1840 0c6b 00       		.byte	0
 1841 0c6c 03       		.uleb128 0x3
 1842 0c6d 7E000000 		.4byte	.LASF195
 1843 0c71 0C       		.byte	0xc
 1844 0c72 51       		.byte	0x51
 1845 0c73 770C0000 		.4byte	0xc77
 1846 0c77 0D       		.uleb128 0xd
 1847 0c78 04       		.byte	0x4
 1848 0c79 7D0C0000 		.4byte	0xc7d
 1849 0c7d 1D       		.uleb128 0x1d
 1850 0c7e 880C0000 		.4byte	0xc88
 1851 0c82 14       		.uleb128 0x14
 1852 0c83 5D010000 		.4byte	0x15d
 1853 0c87 00       		.byte	0
 1854 0c88 03       		.uleb128 0x3
 1855 0c89 46040000 		.4byte	.LASF196
 1856 0c8d 0C       		.byte	0xc
 1857 0c8e 56       		.byte	0x56
 1858 0c8f 930C0000 		.4byte	0xc93
 1859 0c93 19       		.uleb128 0x19
 1860 0c94 2C070000 		.4byte	.LASF197
 1861 0c98 14       		.byte	0x14
 1862 0c99 0D       		.byte	0xd
 1863 0c9a 3901     		.2byte	0x139
 1864 0c9c E20C0000 		.4byte	0xce2
 1865 0ca0 16       		.uleb128 0x16
 1866 0ca1 F40A0000 		.4byte	.LASF188
 1867 0ca5 0D       		.byte	0xd
 1868 0ca6 3A01     		.2byte	0x13a
 1869 0ca8 D3100000 		.4byte	0x10d3
 1870 0cac 00       		.byte	0
 1871 0cad 16       		.uleb128 0x16
 1872 0cae BC0A0000 		.4byte	.LASF191
 1873 0cb2 0D       		.byte	0xd
 1874 0cb3 3B01     		.2byte	0x13b
 1875 0cb5 D3100000 		.4byte	0x10d3
 1876 0cb9 04       		.byte	0x4
 1877 0cba 16       		.uleb128 0x16
 1878 0cbb 96080000 		.4byte	.LASF198
 1879 0cbf 0D       		.byte	0xd
 1880 0cc0 3C01     		.2byte	0x13c
 1881 0cc2 C60D0000 		.4byte	0xdc6
ARM GAS  /tmp/ccNeVBbf.s 			page 34


 1882 0cc6 08       		.byte	0x8
 1883 0cc7 16       		.uleb128 0x16
 1884 0cc8 8D090000 		.4byte	.LASF199
 1885 0ccc 0D       		.byte	0xd
 1886 0ccd 3D01     		.2byte	0x13d
 1887 0ccf 6C0C0000 		.4byte	0xc6c
 1888 0cd3 0C       		.byte	0xc
 1889 0cd4 1E       		.uleb128 0x1e
 1890 0cd5 70617200 		.ascii	"par\000"
 1891 0cd9 0D       		.byte	0xd
 1892 0cda 3F01     		.2byte	0x13f
 1893 0cdc 5D010000 		.4byte	0x15d
 1894 0ce0 10       		.byte	0x10
 1895 0ce1 00       		.byte	0
 1896 0ce2 03       		.uleb128 0x3
 1897 0ce3 17040000 		.4byte	.LASF200
 1898 0ce7 0C       		.byte	0xc
 1899 0ce8 5B       		.byte	0x5b
 1900 0ce9 ED0C0000 		.4byte	0xced
 1901 0ced 19       		.uleb128 0x19
 1902 0cee 90000000 		.4byte	.LASF201
 1903 0cf2 10       		.byte	0x10
 1904 0cf3 0D       		.byte	0xd
 1905 0cf4 4901     		.2byte	0x149
 1906 0cf6 2F0D0000 		.4byte	0xd2f
 1907 0cfa 16       		.uleb128 0x16
 1908 0cfb F40A0000 		.4byte	.LASF188
 1909 0cff 0D       		.byte	0xd
 1910 0d00 4A01     		.2byte	0x14a
 1911 0d02 D3100000 		.4byte	0x10d3
 1912 0d06 00       		.byte	0
 1913 0d07 16       		.uleb128 0x16
 1914 0d08 BC0A0000 		.4byte	.LASF191
 1915 0d0c 0D       		.byte	0xd
 1916 0d0d 4C01     		.2byte	0x14c
 1917 0d0f D3100000 		.4byte	0x10d3
 1918 0d13 04       		.byte	0x4
 1919 0d14 16       		.uleb128 0x16
 1920 0d15 96080000 		.4byte	.LASF198
 1921 0d19 0D       		.byte	0xd
 1922 0d1a 4E01     		.2byte	0x14e
 1923 0d1c C60D0000 		.4byte	0xdc6
 1924 0d20 08       		.byte	0x8
 1925 0d21 16       		.uleb128 0x16
 1926 0d22 70020000 		.4byte	.LASF202
 1927 0d26 0D       		.byte	0xd
 1928 0d27 5601     		.2byte	0x156
 1929 0d29 BB0D0000 		.4byte	0xdbb
 1930 0d2d 0C       		.byte	0xc
 1931 0d2e 00       		.byte	0
 1932 0d2f 03       		.uleb128 0x3
 1933 0d30 9A020000 		.4byte	.LASF203
 1934 0d34 0C       		.byte	0xc
 1935 0d35 60       		.byte	0x60
 1936 0d36 3A0D0000 		.4byte	0xd3a
 1937 0d3a 19       		.uleb128 0x19
 1938 0d3b AD090000 		.4byte	.LASF204
ARM GAS  /tmp/ccNeVBbf.s 			page 35


 1939 0d3f 04       		.byte	0x4
 1940 0d40 0D       		.byte	0xd
 1941 0d41 7001     		.2byte	0x170
 1942 0d43 550D0000 		.4byte	0xd55
 1943 0d47 16       		.uleb128 0x16
 1944 0d48 89020000 		.4byte	.LASF205
 1945 0d4c 0D       		.byte	0xd
 1946 0d4d 7801     		.2byte	0x178
 1947 0d4f D9100000 		.4byte	0x10d9
 1948 0d53 00       		.byte	0
 1949 0d54 00       		.byte	0
 1950 0d55 03       		.uleb128 0x3
 1951 0d56 980A0000 		.4byte	.LASF206
 1952 0d5a 0C       		.byte	0xc
 1953 0d5b 65       		.byte	0x65
 1954 0d5c 600D0000 		.4byte	0xd60
 1955 0d60 19       		.uleb128 0x19
 1956 0d61 3A0A0000 		.4byte	.LASF207
 1957 0d65 D0       		.byte	0xd0
 1958 0d66 0D       		.byte	0xd
 1959 0d67 9001     		.2byte	0x190
 1960 0d69 BB0D0000 		.4byte	0xdbb
 1961 0d6d 16       		.uleb128 0x16
 1962 0d6e 2D090000 		.4byte	.LASF208
 1963 0d72 0D       		.byte	0xd
 1964 0d73 9401     		.2byte	0x194
 1965 0d75 050C0000 		.4byte	0xc05
 1966 0d79 00       		.byte	0
 1967 0d7a 16       		.uleb128 0x16
 1968 0d7b D0090000 		.4byte	.LASF209
 1969 0d7f 0D       		.byte	0xd
 1970 0d80 9801     		.2byte	0x198
 1971 0d82 E20C0000 		.4byte	0xce2
 1972 0d86 1C       		.byte	0x1c
 1973 0d87 1E       		.uleb128 0x1e
 1974 0d88 64626700 		.ascii	"dbg\000"
 1975 0d8c 0D       		.byte	0xd
 1976 0d8d 9C01     		.2byte	0x19c
 1977 0d8f 2F0D0000 		.4byte	0xd2f
 1978 0d93 2C       		.byte	0x2c
 1979 0d94 16       		.uleb128 0x16
 1980 0d95 D6080000 		.4byte	.LASF210
 1981 0d99 0D       		.byte	0xd
 1982 0d9a A001     		.2byte	0x1a0
 1983 0d9c AA0A0000 		.4byte	0xaaa
 1984 0da0 30       		.byte	0x30
 1985 0da1 1E       		.uleb128 0x1e
 1986 0da2 746D00   		.ascii	"tm\000"
 1987 0da5 0D       		.byte	0xd
 1988 0da6 A501     		.2byte	0x1a5
 1989 0da8 660F0000 		.4byte	0xf66
 1990 0dac 90       		.byte	0x90
 1991 0dad 16       		.uleb128 0x16
 1992 0dae 4B070000 		.4byte	.LASF211
 1993 0db2 0D       		.byte	0xd
 1994 0db3 AB01     		.2byte	0x1ab
 1995 0db5 F80F0000 		.4byte	0xff8
ARM GAS  /tmp/ccNeVBbf.s 			page 36


 1996 0db9 98       		.byte	0x98
 1997 0dba 00       		.byte	0
 1998 0dbb 03       		.uleb128 0x3
 1999 0dbc 24000000 		.4byte	.LASF212
 2000 0dc0 0E       		.byte	0xe
 2001 0dc1 6D       		.byte	0x6d
 2002 0dc2 75010000 		.4byte	0x175
 2003 0dc6 03       		.uleb128 0x3
 2004 0dc7 18050000 		.4byte	.LASF213
 2005 0dcb 0E       		.byte	0xe
 2006 0dcc 79       		.byte	0x79
 2007 0dcd 75010000 		.4byte	0x175
 2008 0dd1 03       		.uleb128 0x3
 2009 0dd2 CC010000 		.4byte	.LASF214
 2010 0dd6 0F       		.byte	0xf
 2011 0dd7 65       		.byte	0x65
 2012 0dd8 5D010000 		.4byte	0x15d
 2013 0ddc 03       		.uleb128 0x3
 2014 0ddd EB020000 		.4byte	.LASF215
 2015 0de1 0F       		.byte	0xf
 2016 0de2 6D       		.byte	0x6d
 2017 0de3 80010000 		.4byte	0x180
 2018 0de7 0E       		.uleb128 0xe
 2019 0de8 170A0000 		.4byte	.LASF216
 2020 0dec 04       		.byte	0x4
 2021 0ded 0F       		.byte	0xf
 2022 0dee 89       		.byte	0x89
 2023 0def FF0D0000 		.4byte	0xdff
 2024 0df3 0F       		.uleb128 0xf
 2025 0df4 737000   		.ascii	"sp\000"
 2026 0df7 0F       		.byte	0xf
 2027 0df8 8A       		.byte	0x8a
 2028 0df9 4B0F0000 		.4byte	0xf4b
 2029 0dfd 00       		.byte	0
 2030 0dfe 00       		.byte	0
 2031 0dff 19       		.uleb128 0x19
 2032 0e00 F8060000 		.4byte	.LASF217
 2033 0e04 64       		.byte	0x64
 2034 0e05 10       		.byte	0x10
 2035 0e06 5901     		.2byte	0x159
 2036 0e08 4B0F0000 		.4byte	0xf4b
 2037 0e0c 1E       		.uleb128 0x1e
 2038 0e0d 73313600 		.ascii	"s16\000"
 2039 0e11 10       		.byte	0x10
 2040 0e12 5B01     		.2byte	0x15b
 2041 0e14 D10D0000 		.4byte	0xdd1
 2042 0e18 00       		.byte	0
 2043 0e19 1E       		.uleb128 0x1e
 2044 0e1a 73313700 		.ascii	"s17\000"
 2045 0e1e 10       		.byte	0x10
 2046 0e1f 5C01     		.2byte	0x15c
 2047 0e21 D10D0000 		.4byte	0xdd1
 2048 0e25 04       		.byte	0x4
 2049 0e26 1E       		.uleb128 0x1e
 2050 0e27 73313800 		.ascii	"s18\000"
 2051 0e2b 10       		.byte	0x10
 2052 0e2c 5D01     		.2byte	0x15d
ARM GAS  /tmp/ccNeVBbf.s 			page 37


 2053 0e2e D10D0000 		.4byte	0xdd1
 2054 0e32 08       		.byte	0x8
 2055 0e33 1E       		.uleb128 0x1e
 2056 0e34 73313900 		.ascii	"s19\000"
 2057 0e38 10       		.byte	0x10
 2058 0e39 5E01     		.2byte	0x15e
 2059 0e3b D10D0000 		.4byte	0xdd1
 2060 0e3f 0C       		.byte	0xc
 2061 0e40 1E       		.uleb128 0x1e
 2062 0e41 73323000 		.ascii	"s20\000"
 2063 0e45 10       		.byte	0x10
 2064 0e46 5F01     		.2byte	0x15f
 2065 0e48 D10D0000 		.4byte	0xdd1
 2066 0e4c 10       		.byte	0x10
 2067 0e4d 1E       		.uleb128 0x1e
 2068 0e4e 73323100 		.ascii	"s21\000"
 2069 0e52 10       		.byte	0x10
 2070 0e53 6001     		.2byte	0x160
 2071 0e55 D10D0000 		.4byte	0xdd1
 2072 0e59 14       		.byte	0x14
 2073 0e5a 1E       		.uleb128 0x1e
 2074 0e5b 73323200 		.ascii	"s22\000"
 2075 0e5f 10       		.byte	0x10
 2076 0e60 6101     		.2byte	0x161
 2077 0e62 D10D0000 		.4byte	0xdd1
 2078 0e66 18       		.byte	0x18
 2079 0e67 1E       		.uleb128 0x1e
 2080 0e68 73323300 		.ascii	"s23\000"
 2081 0e6c 10       		.byte	0x10
 2082 0e6d 6201     		.2byte	0x162
 2083 0e6f D10D0000 		.4byte	0xdd1
 2084 0e73 1C       		.byte	0x1c
 2085 0e74 1E       		.uleb128 0x1e
 2086 0e75 73323400 		.ascii	"s24\000"
 2087 0e79 10       		.byte	0x10
 2088 0e7a 6301     		.2byte	0x163
 2089 0e7c D10D0000 		.4byte	0xdd1
 2090 0e80 20       		.byte	0x20
 2091 0e81 1E       		.uleb128 0x1e
 2092 0e82 73323500 		.ascii	"s25\000"
 2093 0e86 10       		.byte	0x10
 2094 0e87 6401     		.2byte	0x164
 2095 0e89 D10D0000 		.4byte	0xdd1
 2096 0e8d 24       		.byte	0x24
 2097 0e8e 1E       		.uleb128 0x1e
 2098 0e8f 73323600 		.ascii	"s26\000"
 2099 0e93 10       		.byte	0x10
 2100 0e94 6501     		.2byte	0x165
 2101 0e96 D10D0000 		.4byte	0xdd1
 2102 0e9a 28       		.byte	0x28
 2103 0e9b 1E       		.uleb128 0x1e
 2104 0e9c 73323700 		.ascii	"s27\000"
 2105 0ea0 10       		.byte	0x10
 2106 0ea1 6601     		.2byte	0x166
 2107 0ea3 D10D0000 		.4byte	0xdd1
 2108 0ea7 2C       		.byte	0x2c
 2109 0ea8 1E       		.uleb128 0x1e
ARM GAS  /tmp/ccNeVBbf.s 			page 38


 2110 0ea9 73323800 		.ascii	"s28\000"
 2111 0ead 10       		.byte	0x10
 2112 0eae 6701     		.2byte	0x167
 2113 0eb0 D10D0000 		.4byte	0xdd1
 2114 0eb4 30       		.byte	0x30
 2115 0eb5 1E       		.uleb128 0x1e
 2116 0eb6 73323900 		.ascii	"s29\000"
 2117 0eba 10       		.byte	0x10
 2118 0ebb 6801     		.2byte	0x168
 2119 0ebd D10D0000 		.4byte	0xdd1
 2120 0ec1 34       		.byte	0x34
 2121 0ec2 1E       		.uleb128 0x1e
 2122 0ec3 73333000 		.ascii	"s30\000"
 2123 0ec7 10       		.byte	0x10
 2124 0ec8 6901     		.2byte	0x169
 2125 0eca D10D0000 		.4byte	0xdd1
 2126 0ece 38       		.byte	0x38
 2127 0ecf 1E       		.uleb128 0x1e
 2128 0ed0 73333100 		.ascii	"s31\000"
 2129 0ed4 10       		.byte	0x10
 2130 0ed5 6A01     		.2byte	0x16a
 2131 0ed7 D10D0000 		.4byte	0xdd1
 2132 0edb 3C       		.byte	0x3c
 2133 0edc 1E       		.uleb128 0x1e
 2134 0edd 723400   		.ascii	"r4\000"
 2135 0ee0 10       		.byte	0x10
 2136 0ee1 6C01     		.2byte	0x16c
 2137 0ee3 D10D0000 		.4byte	0xdd1
 2138 0ee7 40       		.byte	0x40
 2139 0ee8 1E       		.uleb128 0x1e
 2140 0ee9 723500   		.ascii	"r5\000"
 2141 0eec 10       		.byte	0x10
 2142 0eed 6D01     		.2byte	0x16d
 2143 0eef D10D0000 		.4byte	0xdd1
 2144 0ef3 44       		.byte	0x44
 2145 0ef4 1E       		.uleb128 0x1e
 2146 0ef5 723600   		.ascii	"r6\000"
 2147 0ef8 10       		.byte	0x10
 2148 0ef9 6E01     		.2byte	0x16e
 2149 0efb D10D0000 		.4byte	0xdd1
 2150 0eff 48       		.byte	0x48
 2151 0f00 1E       		.uleb128 0x1e
 2152 0f01 723700   		.ascii	"r7\000"
 2153 0f04 10       		.byte	0x10
 2154 0f05 6F01     		.2byte	0x16f
 2155 0f07 D10D0000 		.4byte	0xdd1
 2156 0f0b 4C       		.byte	0x4c
 2157 0f0c 1E       		.uleb128 0x1e
 2158 0f0d 723800   		.ascii	"r8\000"
 2159 0f10 10       		.byte	0x10
 2160 0f11 7001     		.2byte	0x170
 2161 0f13 D10D0000 		.4byte	0xdd1
 2162 0f17 50       		.byte	0x50
 2163 0f18 1E       		.uleb128 0x1e
 2164 0f19 723900   		.ascii	"r9\000"
 2165 0f1c 10       		.byte	0x10
 2166 0f1d 7101     		.2byte	0x171
ARM GAS  /tmp/ccNeVBbf.s 			page 39


 2167 0f1f D10D0000 		.4byte	0xdd1
 2168 0f23 54       		.byte	0x54
 2169 0f24 1E       		.uleb128 0x1e
 2170 0f25 72313000 		.ascii	"r10\000"
 2171 0f29 10       		.byte	0x10
 2172 0f2a 7201     		.2byte	0x172
 2173 0f2c D10D0000 		.4byte	0xdd1
 2174 0f30 58       		.byte	0x58
 2175 0f31 1E       		.uleb128 0x1e
 2176 0f32 72313100 		.ascii	"r11\000"
 2177 0f36 10       		.byte	0x10
 2178 0f37 7301     		.2byte	0x173
 2179 0f39 D10D0000 		.4byte	0xdd1
 2180 0f3d 5C       		.byte	0x5c
 2181 0f3e 1E       		.uleb128 0x1e
 2182 0f3f 6C7200   		.ascii	"lr\000"
 2183 0f42 10       		.byte	0x10
 2184 0f43 7401     		.2byte	0x174
 2185 0f45 D10D0000 		.4byte	0xdd1
 2186 0f49 60       		.byte	0x60
 2187 0f4a 00       		.byte	0
 2188 0f4b 0D       		.uleb128 0xd
 2189 0f4c 04       		.byte	0x4
 2190 0f4d FF0D0000 		.4byte	0xdff
 2191 0f51 0A       		.uleb128 0xa
 2192 0f52 04       		.byte	0x4
 2193 0f53 11       		.byte	0x11
 2194 0f54 38       		.byte	0x38
 2195 0f55 660F0000 		.4byte	0xf66
 2196 0f59 0B       		.uleb128 0xb
 2197 0f5a 6A060000 		.4byte	.LASF218
 2198 0f5e 11       		.byte	0x11
 2199 0f5f 3C       		.byte	0x3c
 2200 0f60 3C0A0000 		.4byte	0xa3c
 2201 0f64 00       		.byte	0
 2202 0f65 00       		.byte	0
 2203 0f66 03       		.uleb128 0x3
 2204 0f67 44090000 		.4byte	.LASF219
 2205 0f6b 11       		.byte	0x11
 2206 0f6c 3D       		.byte	0x3d
 2207 0f6d 510F0000 		.4byte	0xf51
 2208 0f71 0A       		.uleb128 0xa
 2209 0f72 18       		.byte	0x18
 2210 0f73 11       		.byte	0x11
 2211 0f74 48       		.byte	0x48
 2212 0f75 B40F0000 		.4byte	0xfb4
 2213 0f79 0B       		.uleb128 0xb
 2214 0f7a F1080000 		.4byte	.LASF220
 2215 0f7e 11       		.byte	0x11
 2216 0f7f 49       		.byte	0x49
 2217 0f80 3C0A0000 		.4byte	0xa3c
 2218 0f84 00       		.byte	0
 2219 0f85 0B       		.uleb128 0xb
 2220 0f86 FC020000 		.4byte	.LASF221
 2221 0f8a 11       		.byte	0x11
 2222 0f8b 4A       		.byte	0x4a
 2223 0f8c 3C0A0000 		.4byte	0xa3c
ARM GAS  /tmp/ccNeVBbf.s 			page 40


 2224 0f90 04       		.byte	0x4
 2225 0f91 0B       		.uleb128 0xb
 2226 0f92 1C0B0000 		.4byte	.LASF222
 2227 0f96 11       		.byte	0x11
 2228 0f97 4B       		.byte	0x4b
 2229 0f98 3C0A0000 		.4byte	0xa3c
 2230 0f9c 08       		.byte	0x8
 2231 0f9d 0F       		.uleb128 0xf
 2232 0f9e 6E00     		.ascii	"n\000"
 2233 0fa0 11       		.byte	0x11
 2234 0fa1 4C       		.byte	0x4c
 2235 0fa2 9F0A0000 		.4byte	0xa9f
 2236 0fa6 0C       		.byte	0xc
 2237 0fa7 0B       		.uleb128 0xb
 2238 0fa8 9F030000 		.4byte	.LASF223
 2239 0fac 11       		.byte	0x11
 2240 0fad 4D       		.byte	0x4d
 2241 0fae 470A0000 		.4byte	0xa47
 2242 0fb2 10       		.byte	0x10
 2243 0fb3 00       		.byte	0
 2244 0fb4 03       		.uleb128 0x3
 2245 0fb5 13010000 		.4byte	.LASF224
 2246 0fb9 11       		.byte	0x11
 2247 0fba 4E       		.byte	0x4e
 2248 0fbb 710F0000 		.4byte	0xf71
 2249 0fbf 0A       		.uleb128 0xa
 2250 0fc0 38       		.byte	0x38
 2251 0fc1 12       		.byte	0x12
 2252 0fc2 38       		.byte	0x38
 2253 0fc3 F80F0000 		.4byte	0xff8
 2254 0fc7 0B       		.uleb128 0xb
 2255 0fc8 AF040000 		.4byte	.LASF225
 2256 0fcc 12       		.byte	0x12
 2257 0fcd 39       		.byte	0x39
 2258 0fce 9F0A0000 		.4byte	0xa9f
 2259 0fd2 00       		.byte	0
 2260 0fd3 0B       		.uleb128 0xb
 2261 0fd4 D5020000 		.4byte	.LASF226
 2262 0fd8 12       		.byte	0x12
 2263 0fd9 3A       		.byte	0x3a
 2264 0fda 9F0A0000 		.4byte	0xa9f
 2265 0fde 04       		.byte	0x4
 2266 0fdf 0B       		.uleb128 0xb
 2267 0fe0 AA030000 		.4byte	.LASF227
 2268 0fe4 12       		.byte	0x12
 2269 0fe5 3B       		.byte	0x3b
 2270 0fe6 B40F0000 		.4byte	0xfb4
 2271 0fea 08       		.byte	0x8
 2272 0feb 0B       		.uleb128 0xb
 2273 0fec 98050000 		.4byte	.LASF228
 2274 0ff0 12       		.byte	0x12
 2275 0ff1 3D       		.byte	0x3d
 2276 0ff2 B40F0000 		.4byte	0xfb4
 2277 0ff6 20       		.byte	0x20
 2278 0ff7 00       		.byte	0
 2279 0ff8 03       		.uleb128 0x3
 2280 0ff9 17060000 		.4byte	.LASF229
ARM GAS  /tmp/ccNeVBbf.s 			page 41


 2281 0ffd 12       		.byte	0x12
 2282 0ffe 3F       		.byte	0x3f
 2283 0fff BF0F0000 		.4byte	0xfbf
 2284 1003 06       		.uleb128 0x6
 2285 1004 04       		.byte	0x4
 2286 1005 0D       		.byte	0xd
 2287 1006 C6       		.byte	0xc6
 2288 1007 65100000 		.4byte	0x1065
 2289 100b 07       		.uleb128 0x7
 2290 100c 6F0A0000 		.4byte	.LASF230
 2291 1010 0D       		.byte	0xd
 2292 1011 CD       		.byte	0xcd
 2293 1012 7E0A0000 		.4byte	0xa7e
 2294 1016 07       		.uleb128 0x7
 2295 1017 31010000 		.4byte	.LASF231
 2296 101b 0D       		.byte	0xd
 2297 101c D4       		.byte	0xd4
 2298 101d 7E0A0000 		.4byte	0xa7e
 2299 1021 07       		.uleb128 0x7
 2300 1022 CE020000 		.4byte	.LASF232
 2301 1026 0D       		.byte	0xd
 2302 1027 DB       		.byte	0xdb
 2303 1028 5D010000 		.4byte	0x15d
 2304 102c 07       		.uleb128 0x7
 2305 102d 5C020000 		.4byte	.LASF233
 2306 1031 0D       		.byte	0xd
 2307 1032 E2       		.byte	0xe2
 2308 1033 65100000 		.4byte	0x1065
 2309 1037 07       		.uleb128 0x7
 2310 1038 F0060000 		.4byte	.LASF234
 2311 103c 0D       		.byte	0xd
 2312 103d E7       		.byte	0xe7
 2313 103e 7E0A0000 		.4byte	0xa7e
 2314 1042 07       		.uleb128 0x7
 2315 1043 150B0000 		.4byte	.LASF235
 2316 1047 0D       		.byte	0xd
 2317 1048 F0       		.byte	0xf0
 2318 1049 90100000 		.4byte	0x1090
 2319 104d 07       		.uleb128 0x7
 2320 104e 38030000 		.4byte	.LASF236
 2321 1052 0D       		.byte	0xd
 2322 1053 F9       		.byte	0xf9
 2323 1054 C7100000 		.4byte	0x10c7
 2324 1058 1C       		.uleb128 0x1c
 2325 1059 1C020000 		.4byte	.LASF237
 2326 105d 0D       		.byte	0xd
 2327 105e 0101     		.2byte	0x101
 2328 1060 890A0000 		.4byte	0xa89
 2329 1064 00       		.byte	0
 2330 1065 0D       		.uleb128 0xd
 2331 1066 04       		.byte	0x4
 2332 1067 A00B0000 		.4byte	0xba0
 2333 106b 0E       		.uleb128 0xe
 2334 106c 00040000 		.4byte	.LASF238
 2335 1070 0C       		.byte	0xc
 2336 1071 13       		.byte	0x13
 2337 1072 34       		.byte	0x34
ARM GAS  /tmp/ccNeVBbf.s 			page 42


 2338 1073 90100000 		.4byte	0x1090
 2339 1077 0B       		.uleb128 0xb
 2340 1078 AB080000 		.4byte	.LASF169
 2341 107c 13       		.byte	0x13
 2342 107d 35       		.byte	0x35
 2343 107e D50B0000 		.4byte	0xbd5
 2344 1082 00       		.byte	0
 2345 1083 0F       		.uleb128 0xf
 2346 1084 636E7400 		.ascii	"cnt\000"
 2347 1088 13       		.byte	0x13
 2348 1089 37       		.byte	0x37
 2349 108a 940A0000 		.4byte	0xa94
 2350 108e 08       		.byte	0x8
 2351 108f 00       		.byte	0
 2352 1090 0D       		.uleb128 0xd
 2353 1091 04       		.byte	0x4
 2354 1092 6B100000 		.4byte	0x106b
 2355 1096 0E       		.uleb128 0xe
 2356 1097 92090000 		.4byte	.LASF239
 2357 109b 10       		.byte	0x10
 2358 109c 14       		.byte	0x14
 2359 109d 39       		.byte	0x39
 2360 109e C7100000 		.4byte	0x10c7
 2361 10a2 0B       		.uleb128 0xb
 2362 10a3 AB080000 		.4byte	.LASF169
 2363 10a7 14       		.byte	0x14
 2364 10a8 3A       		.byte	0x3a
 2365 10a9 D50B0000 		.4byte	0xbd5
 2366 10ad 00       		.byte	0
 2367 10ae 0B       		.uleb128 0xb
 2368 10af 33000000 		.4byte	.LASF240
 2369 10b3 14       		.byte	0x14
 2370 10b4 3C       		.byte	0x3c
 2371 10b5 AB0B0000 		.4byte	0xbab
 2372 10b9 08       		.byte	0x8
 2373 10ba 0B       		.uleb128 0xb
 2374 10bb F40A0000 		.4byte	.LASF188
 2375 10bf 14       		.byte	0x14
 2376 10c0 3E       		.byte	0x3e
 2377 10c1 E9100000 		.4byte	0x10e9
 2378 10c5 0C       		.byte	0xc
 2379 10c6 00       		.byte	0
 2380 10c7 0D       		.uleb128 0xd
 2381 10c8 04       		.byte	0x4
 2382 10c9 96100000 		.4byte	0x1096
 2383 10cd 0D       		.uleb128 0xd
 2384 10ce 04       		.byte	0x4
 2385 10cf DC0D0000 		.4byte	0xddc
 2386 10d3 0D       		.uleb128 0xd
 2387 10d4 04       		.byte	0x4
 2388 10d5 880C0000 		.4byte	0xc88
 2389 10d9 1F       		.uleb128 0x1f
 2390 10da 6D060000 		.4byte	0x66d
 2391 10de 03       		.uleb128 0x3
 2392 10df F8090000 		.4byte	.LASF241
 2393 10e3 14       		.byte	0x14
 2394 10e4 34       		.byte	0x34
ARM GAS  /tmp/ccNeVBbf.s 			page 43


 2395 10e5 96100000 		.4byte	0x1096
 2396 10e9 0D       		.uleb128 0xd
 2397 10ea 04       		.byte	0x4
 2398 10eb DE100000 		.4byte	0x10de
 2399 10ef 02       		.uleb128 0x2
 2400 10f0 01       		.byte	0x1
 2401 10f1 02       		.byte	0x2
 2402 10f2 B0020000 		.4byte	.LASF242
 2403 10f6 03       		.uleb128 0x3
 2404 10f7 A3060000 		.4byte	.LASF243
 2405 10fb 15       		.byte	0x15
 2406 10fc 4C       		.byte	0x4c
 2407 10fd 01110000 		.4byte	0x1101
 2408 1101 0D       		.uleb128 0xd
 2409 1102 04       		.byte	0x4
 2410 1103 07110000 		.4byte	0x1107
 2411 1107 13       		.uleb128 0x13
 2412 1108 5D010000 		.4byte	0x15d
 2413 110c 20110000 		.4byte	0x1120
 2414 1110 14       		.uleb128 0x14
 2415 1111 97000000 		.4byte	0x97
 2416 1115 14       		.uleb128 0x14
 2417 1116 90000000 		.4byte	0x90
 2418 111a 14       		.uleb128 0x14
 2419 111b 97000000 		.4byte	0x97
 2420 111f 00       		.byte	0
 2421 1120 03       		.uleb128 0x3
 2422 1121 7D010000 		.4byte	.LASF244
 2423 1125 02       		.byte	0x2
 2424 1126 48       		.byte	0x48
 2425 1127 2B110000 		.4byte	0x112b
 2426 112b 0E       		.uleb128 0xe
 2427 112c 00000000 		.4byte	.LASF245
 2428 1130 1C       		.byte	0x1c
 2429 1131 02       		.byte	0x2
 2430 1132 60       		.byte	0x60
 2431 1133 5C110000 		.4byte	0x115c
 2432 1137 0B       		.uleb128 0xb
 2433 1138 51000000 		.4byte	.LASF246
 2434 113c 02       		.byte	0x2
 2435 113d 61       		.byte	0x61
 2436 113e F6100000 		.4byte	0x10f6
 2437 1142 00       		.byte	0
 2438 1143 0B       		.uleb128 0xb
 2439 1144 A9020000 		.4byte	.LASF247
 2440 1148 02       		.byte	0x2
 2441 1149 63       		.byte	0x63
 2442 114a 5C110000 		.4byte	0x115c
 2443 114e 04       		.byte	0x4
 2444 114f 0F       		.uleb128 0xf
 2445 1150 6D747800 		.ascii	"mtx\000"
 2446 1154 02       		.byte	0x2
 2447 1155 65       		.byte	0x65
 2448 1156 DE100000 		.4byte	0x10de
 2449 115a 0C       		.byte	0xc
 2450 115b 00       		.byte	0
 2451 115c 03       		.uleb128 0x3
ARM GAS  /tmp/ccNeVBbf.s 			page 44


 2452 115d DE040000 		.4byte	.LASF248
 2453 1161 02       		.byte	0x2
 2454 1162 4D       		.byte	0x4d
 2455 1163 67110000 		.4byte	0x1167
 2456 1167 20       		.uleb128 0x20
 2457 1168 86050000 		.4byte	.LASF268
 2458 116c 08       		.byte	0x8
 2459 116d 02       		.byte	0x2
 2460 116e 52       		.byte	0x52
 2461 116f 8A110000 		.4byte	0x118a
 2462 1173 07       		.uleb128 0x7
 2463 1174 6A0A0000 		.4byte	.LASF249
 2464 1178 02       		.byte	0x2
 2465 1179 56       		.byte	0x56
 2466 117a 8A110000 		.4byte	0x118a
 2467 117e 07       		.uleb128 0x7
 2468 117f B8060000 		.4byte	.LASF250
 2469 1183 02       		.byte	0x2
 2470 1184 5A       		.byte	0x5a
 2471 1185 B1110000 		.4byte	0x11b1
 2472 1189 00       		.byte	0
 2473 118a 0A       		.uleb128 0xa
 2474 118b 08       		.byte	0x8
 2475 118c 02       		.byte	0x2
 2476 118d 53       		.byte	0x53
 2477 118e AB110000 		.4byte	0x11ab
 2478 1192 0B       		.uleb128 0xb
 2479 1193 F40A0000 		.4byte	.LASF188
 2480 1197 02       		.byte	0x2
 2481 1198 54       		.byte	0x54
 2482 1199 AB110000 		.4byte	0x11ab
 2483 119d 00       		.byte	0
 2484 119e 0B       		.uleb128 0xb
 2485 119f 18030000 		.4byte	.LASF251
 2486 11a3 02       		.byte	0x2
 2487 11a4 55       		.byte	0x55
 2488 11a5 97000000 		.4byte	0x97
 2489 11a9 04       		.byte	0x4
 2490 11aa 00       		.byte	0
 2491 11ab 0D       		.uleb128 0xd
 2492 11ac 04       		.byte	0x4
 2493 11ad 5C110000 		.4byte	0x115c
 2494 11b1 0A       		.uleb128 0xa
 2495 11b2 08       		.byte	0x8
 2496 11b3 02       		.byte	0x2
 2497 11b4 57       		.byte	0x57
 2498 11b5 D2110000 		.4byte	0x11d2
 2499 11b9 0B       		.uleb128 0xb
 2500 11ba DE010000 		.4byte	.LASF252
 2501 11be 02       		.byte	0x2
 2502 11bf 58       		.byte	0x58
 2503 11c0 D2110000 		.4byte	0x11d2
 2504 11c4 00       		.byte	0
 2505 11c5 0B       		.uleb128 0xb
 2506 11c6 58070000 		.4byte	.LASF253
 2507 11ca 02       		.byte	0x2
 2508 11cb 59       		.byte	0x59
ARM GAS  /tmp/ccNeVBbf.s 			page 45


 2509 11cc 97000000 		.4byte	0x97
 2510 11d0 04       		.byte	0x4
 2511 11d1 00       		.byte	0
 2512 11d2 0D       		.uleb128 0xd
 2513 11d3 04       		.byte	0x4
 2514 11d4 20110000 		.4byte	0x1120
 2515 11d8 21       		.uleb128 0x21
 2516 11d9 24030000 		.4byte	.LASF269
 2517 11dd 02       		.byte	0x2
 2518 11de 9A       		.byte	0x9a
 2519 11df 5D010000 		.4byte	0x15d
 2520 11e3 03       		.byte	0x3
 2521 11e4 FF110000 		.4byte	0x11ff
 2522 11e8 22       		.uleb128 0x22
 2523 11e9 01090000 		.4byte	.LASF254
 2524 11ed 02       		.byte	0x2
 2525 11ee 9A       		.byte	0x9a
 2526 11ef D2110000 		.4byte	0x11d2
 2527 11f3 22       		.uleb128 0x22
 2528 11f4 58070000 		.4byte	.LASF253
 2529 11f8 02       		.byte	0x2
 2530 11f9 9A       		.byte	0x9a
 2531 11fa 97000000 		.4byte	0x97
 2532 11fe 00       		.byte	0
 2533 11ff 23       		.uleb128 0x23
 2534 1200 39000000 		.4byte	.LASF75
 2535 1204 01       		.byte	0x1
 2536 1205 59       		.byte	0x59
 2537 1206 89000000 		.4byte	0x89
 2538 120a 00000000 		.4byte	.LFB290
 2539 120e 0A000000 		.4byte	.LFE290-.LFB290
 2540 1212 01       		.uleb128 0x1
 2541 1213 9C       		.byte	0x9c
 2542 1214 4F120000 		.4byte	0x124f
 2543 1218 24       		.uleb128 0x24
 2544 1219 7200     		.ascii	"r\000"
 2545 121b 01       		.byte	0x1
 2546 121c 59       		.byte	0x59
 2547 121d 11050000 		.4byte	0x511
 2548 1221 00000000 		.4byte	.LLST0
 2549 1225 25       		.uleb128 0x25
 2550 1226 13030000 		.4byte	.LASF255
 2551 122a 01       		.byte	0x1
 2552 122b 59       		.byte	0x59
 2553 122c 89000000 		.4byte	0x89
 2554 1230 01       		.uleb128 0x1
 2555 1231 51       		.byte	0x51
 2556 1232 26       		.uleb128 0x26
 2557 1233 70747200 		.ascii	"ptr\000"
 2558 1237 01       		.byte	0x1
 2559 1238 59       		.byte	0x59
 2560 1239 A1010000 		.4byte	0x1a1
 2561 123d 01       		.uleb128 0x1
 2562 123e 52       		.byte	0x52
 2563 123f 24       		.uleb128 0x24
 2564 1240 6C656E00 		.ascii	"len\000"
 2565 1244 01       		.byte	0x1
ARM GAS  /tmp/ccNeVBbf.s 			page 46


 2566 1245 59       		.byte	0x59
 2567 1246 89000000 		.4byte	0x89
 2568 124a 21000000 		.4byte	.LLST1
 2569 124e 00       		.byte	0
 2570 124f 23       		.uleb128 0x23
 2571 1250 B50A0000 		.4byte	.LASF256
 2572 1254 01       		.byte	0x1
 2573 1255 6F       		.byte	0x6f
 2574 1256 89000000 		.4byte	0x89
 2575 125a 00000000 		.4byte	.LFB291
 2576 125e 04000000 		.4byte	.LFE291-.LFB291
 2577 1262 01       		.uleb128 0x1
 2578 1263 9C       		.byte	0x9c
 2579 1264 9D120000 		.4byte	0x129d
 2580 1268 24       		.uleb128 0x24
 2581 1269 7200     		.ascii	"r\000"
 2582 126b 01       		.byte	0x1
 2583 126c 6F       		.byte	0x6f
 2584 126d 11050000 		.4byte	0x511
 2585 1271 42000000 		.4byte	.LLST2
 2586 1275 25       		.uleb128 0x25
 2587 1276 13030000 		.4byte	.LASF255
 2588 127a 01       		.byte	0x1
 2589 127b 6F       		.byte	0x6f
 2590 127c 89000000 		.4byte	0x89
 2591 1280 01       		.uleb128 0x1
 2592 1281 51       		.byte	0x51
 2593 1282 26       		.uleb128 0x26
 2594 1283 70747200 		.ascii	"ptr\000"
 2595 1287 01       		.byte	0x1
 2596 1288 6F       		.byte	0x6f
 2597 1289 89000000 		.4byte	0x89
 2598 128d 01       		.uleb128 0x1
 2599 128e 52       		.byte	0x52
 2600 128f 26       		.uleb128 0x26
 2601 1290 64697200 		.ascii	"dir\000"
 2602 1294 01       		.byte	0x1
 2603 1295 6F       		.byte	0x6f
 2604 1296 89000000 		.4byte	0x89
 2605 129a 01       		.uleb128 0x1
 2606 129b 53       		.byte	0x53
 2607 129c 00       		.byte	0
 2608 129d 23       		.uleb128 0x23
 2609 129e 5A000000 		.4byte	.LASF76
 2610 12a2 01       		.byte	0x1
 2611 12a3 7C       		.byte	0x7c
 2612 12a4 89000000 		.4byte	0x89
 2613 12a8 00000000 		.4byte	.LFB292
 2614 12ac 04000000 		.4byte	.LFE292-.LFB292
 2615 12b0 01       		.uleb128 0x1
 2616 12b1 9C       		.byte	0x9c
 2617 12b2 EB120000 		.4byte	0x12eb
 2618 12b6 24       		.uleb128 0x24
 2619 12b7 7200     		.ascii	"r\000"
 2620 12b9 01       		.byte	0x1
 2621 12ba 7C       		.byte	0x7c
 2622 12bb 11050000 		.4byte	0x511
ARM GAS  /tmp/ccNeVBbf.s 			page 47


 2623 12bf 63000000 		.4byte	.LLST3
 2624 12c3 25       		.uleb128 0x25
 2625 12c4 13030000 		.4byte	.LASF255
 2626 12c8 01       		.byte	0x1
 2627 12c9 7C       		.byte	0x7c
 2628 12ca 89000000 		.4byte	0x89
 2629 12ce 01       		.uleb128 0x1
 2630 12cf 51       		.byte	0x51
 2631 12d0 26       		.uleb128 0x26
 2632 12d1 70747200 		.ascii	"ptr\000"
 2633 12d5 01       		.byte	0x1
 2634 12d6 7C       		.byte	0x7c
 2635 12d7 A1010000 		.4byte	0x1a1
 2636 12db 01       		.uleb128 0x1
 2637 12dc 52       		.byte	0x52
 2638 12dd 26       		.uleb128 0x26
 2639 12de 6C656E00 		.ascii	"len\000"
 2640 12e2 01       		.byte	0x1
 2641 12e3 7C       		.byte	0x7c
 2642 12e4 89000000 		.4byte	0x89
 2643 12e8 01       		.uleb128 0x1
 2644 12e9 53       		.byte	0x53
 2645 12ea 00       		.byte	0
 2646 12eb 23       		.uleb128 0x23
 2647 12ec C7020000 		.4byte	.LASF78
 2648 12f0 01       		.byte	0x1
 2649 12f1 8E       		.byte	0x8e
 2650 12f2 89000000 		.4byte	0x89
 2651 12f6 00000000 		.4byte	.LFB293
 2652 12fa 04000000 		.4byte	.LFE293-.LFB293
 2653 12fe 01       		.uleb128 0x1
 2654 12ff 9C       		.byte	0x9c
 2655 1300 1F130000 		.4byte	0x131f
 2656 1304 24       		.uleb128 0x24
 2657 1305 7200     		.ascii	"r\000"
 2658 1307 01       		.byte	0x1
 2659 1308 8E       		.byte	0x8e
 2660 1309 11050000 		.4byte	0x511
 2661 130d 84000000 		.4byte	.LLST4
 2662 1311 25       		.uleb128 0x25
 2663 1312 13030000 		.4byte	.LASF255
 2664 1316 01       		.byte	0x1
 2665 1317 8E       		.byte	0x8e
 2666 1318 89000000 		.4byte	0x89
 2667 131c 01       		.uleb128 0x1
 2668 131d 51       		.byte	0x51
 2669 131e 00       		.byte	0
 2670 131f 23       		.uleb128 0x23
 2671 1320 D8040000 		.4byte	.LASF257
 2672 1324 01       		.byte	0x1
 2673 1325 99       		.byte	0x99
 2674 1326 96010000 		.4byte	0x196
 2675 132a 00000000 		.4byte	.LFB294
 2676 132e 18000000 		.4byte	.LFE294-.LFB294
 2677 1332 01       		.uleb128 0x1
 2678 1333 9C       		.byte	0x9c
 2679 1334 A1130000 		.4byte	0x13a1
ARM GAS  /tmp/ccNeVBbf.s 			page 48


 2680 1338 24       		.uleb128 0x24
 2681 1339 7200     		.ascii	"r\000"
 2682 133b 01       		.byte	0x1
 2683 133c 99       		.byte	0x99
 2684 133d 11050000 		.4byte	0x511
 2685 1341 A5000000 		.4byte	.LLST5
 2686 1345 27       		.uleb128 0x27
 2687 1346 CE050000 		.4byte	.LASF258
 2688 134a 01       		.byte	0x1
 2689 134b 99       		.byte	0x99
 2690 134c 89000000 		.4byte	0x89
 2691 1350 C3000000 		.4byte	.LLST6
 2692 1354 28       		.uleb128 0x28
 2693 1355 7000     		.ascii	"p\000"
 2694 1357 01       		.byte	0x1
 2695 1358 9C       		.byte	0x9c
 2696 1359 5D010000 		.4byte	0x15d
 2697 135d 29       		.uleb128 0x29
 2698 135e 87000000 		.4byte	.LASF270
 2699 1362 B1130000 		.4byte	0x13b1
 2700 1366 2A       		.uleb128 0x2a
 2701 1367 D8110000 		.4byte	0x11d8
 2702 136b 02000000 		.4byte	.LBB4
 2703 136f 00000000 		.4byte	.Ldebug_ranges0+0
 2704 1373 01       		.byte	0x1
 2705 1374 9F       		.byte	0x9f
 2706 1375 2B       		.uleb128 0x2b
 2707 1376 E8110000 		.4byte	0x11e8
 2708 137a 00       		.byte	0
 2709 137b 2C       		.uleb128 0x2c
 2710 137c F3110000 		.4byte	0x11f3
 2711 1380 E4000000 		.4byte	.LLST7
 2712 1384 2D       		.uleb128 0x2d
 2713 1385 0C000000 		.4byte	.LVL12
 2714 1389 FA140000 		.4byte	0x14fa
 2715 138d 2E       		.uleb128 0x2e
 2716 138e 01       		.uleb128 0x1
 2717 138f 52       		.byte	0x52
 2718 1390 01       		.uleb128 0x1
 2719 1391 38       		.byte	0x38
 2720 1392 2E       		.uleb128 0x2e
 2721 1393 01       		.uleb128 0x1
 2722 1394 51       		.byte	0x51
 2723 1395 03       		.uleb128 0x3
 2724 1396 F3       		.byte	0xf3
 2725 1397 01       		.uleb128 0x1
 2726 1398 51       		.byte	0x51
 2727 1399 2E       		.uleb128 0x2e
 2728 139a 01       		.uleb128 0x1
 2729 139b 50       		.byte	0x50
 2730 139c 01       		.uleb128 0x1
 2731 139d 30       		.byte	0x30
 2732 139e 00       		.byte	0
 2733 139f 00       		.byte	0
 2734 13a0 00       		.byte	0
 2735 13a1 08       		.uleb128 0x8
 2736 13a2 A7010000 		.4byte	0x1a7
ARM GAS  /tmp/ccNeVBbf.s 			page 49


 2737 13a6 B1130000 		.4byte	0x13b1
 2738 13aa 09       		.uleb128 0x9
 2739 13ab 1F010000 		.4byte	0x11f
 2740 13af 05       		.byte	0x5
 2741 13b0 00       		.byte	0
 2742 13b1 18       		.uleb128 0x18
 2743 13b2 A1130000 		.4byte	0x13a1
 2744 13b6 23       		.uleb128 0x23
 2745 13b7 26090000 		.4byte	.LASF259
 2746 13bb 01       		.byte	0x1
 2747 13bc B0       		.byte	0xb0
 2748 13bd 89000000 		.4byte	0x89
 2749 13c1 00000000 		.4byte	.LFB295
 2750 13c5 18000000 		.4byte	.LFE295-.LFB295
 2751 13c9 01       		.uleb128 0x1
 2752 13ca 9C       		.byte	0x9c
 2753 13cb 15140000 		.4byte	0x1415
 2754 13cf 24       		.uleb128 0x24
 2755 13d0 7200     		.ascii	"r\000"
 2756 13d2 01       		.byte	0x1
 2757 13d3 B0       		.byte	0xb0
 2758 13d4 11050000 		.4byte	0x511
 2759 13d8 05010000 		.4byte	.LLST8
 2760 13dc 27       		.uleb128 0x27
 2761 13dd 13030000 		.4byte	.LASF255
 2762 13e1 01       		.byte	0x1
 2763 13e2 B0       		.byte	0xb0
 2764 13e3 89000000 		.4byte	0x89
 2765 13e7 26010000 		.4byte	.LLST9
 2766 13eb 24       		.uleb128 0x24
 2767 13ec 737400   		.ascii	"st\000"
 2768 13ef 01       		.byte	0x1
 2769 13f0 B0       		.byte	0xb0
 2770 13f1 15140000 		.4byte	0x1415
 2771 13f5 47010000 		.4byte	.LLST10
 2772 13f9 2D       		.uleb128 0x2d
 2773 13fa 0E000000 		.4byte	.LVL17
 2774 13fe 19150000 		.4byte	0x1519
 2775 1402 2E       		.uleb128 0x2e
 2776 1403 01       		.uleb128 0x1
 2777 1404 52       		.byte	0x52
 2778 1405 02       		.uleb128 0x2
 2779 1406 08       		.byte	0x8
 2780 1407 3C       		.byte	0x3c
 2781 1408 2E       		.uleb128 0x2e
 2782 1409 01       		.uleb128 0x1
 2783 140a 51       		.byte	0x51
 2784 140b 01       		.uleb128 0x1
 2785 140c 30       		.byte	0x30
 2786 140d 2E       		.uleb128 0x2e
 2787 140e 01       		.uleb128 0x1
 2788 140f 50       		.byte	0x50
 2789 1410 02       		.uleb128 0x2
 2790 1411 74       		.byte	0x74
 2791 1412 00       		.sleb128 0
 2792 1413 00       		.byte	0
 2793 1414 00       		.byte	0
ARM GAS  /tmp/ccNeVBbf.s 			page 50


 2794 1415 0D       		.uleb128 0xd
 2795 1416 04       		.byte	0x4
 2796 1417 53090000 		.4byte	0x953
 2797 141b 23       		.uleb128 0x23
 2798 141c FB010000 		.4byte	.LASF260
 2799 1420 01       		.byte	0x1
 2800 1421 BD       		.byte	0xbd
 2801 1422 89000000 		.4byte	0x89
 2802 1426 00000000 		.4byte	.LFB296
 2803 142a 04000000 		.4byte	.LFE296-.LFB296
 2804 142e 01       		.uleb128 0x1
 2805 142f 9C       		.byte	0x9c
 2806 1430 4E140000 		.4byte	0x144e
 2807 1434 24       		.uleb128 0x24
 2808 1435 7200     		.ascii	"r\000"
 2809 1437 01       		.byte	0x1
 2810 1438 BD       		.byte	0xbd
 2811 1439 11050000 		.4byte	0x511
 2812 143d 70010000 		.4byte	.LLST11
 2813 1441 26       		.uleb128 0x26
 2814 1442 666400   		.ascii	"fd\000"
 2815 1445 01       		.byte	0x1
 2816 1446 BD       		.byte	0xbd
 2817 1447 89000000 		.4byte	0x89
 2818 144b 01       		.uleb128 0x1
 2819 144c 51       		.byte	0x51
 2820 144d 00       		.byte	0
 2821 144e 2F       		.uleb128 0x2f
 2822 144f 81020000 		.4byte	.LASF271
 2823 1453 01       		.byte	0x1
 2824 1454 C6       		.byte	0xc6
 2825 1455 E5010000 		.4byte	0x1e5
 2826 1459 00000000 		.4byte	.LFB297
 2827 145d 04000000 		.4byte	.LFE297-.LFB297
 2828 1461 01       		.uleb128 0x1
 2829 1462 9C       		.byte	0x9c
 2830 1463 30       		.uleb128 0x30
 2831 1464 92050000 		.4byte	.LASF272
 2832 1468 17       		.byte	0x17
 2833 1469 12       		.byte	0x12
 2834 146a 00000000 		.4byte	.LFB298
 2835 146e 02000000 		.4byte	.LFE298-.LFB298
 2836 1472 01       		.uleb128 0x1
 2837 1473 9C       		.byte	0x9c
 2838 1474 86140000 		.4byte	0x1486
 2839 1478 25       		.uleb128 0x25
 2840 1479 330A0000 		.4byte	.LASF261
 2841 147d 01       		.byte	0x1
 2842 147e CC       		.byte	0xcc
 2843 147f 89000000 		.4byte	0x89
 2844 1483 01       		.uleb128 0x1
 2845 1484 50       		.byte	0x50
 2846 1485 00       		.byte	0
 2847 1486 31       		.uleb128 0x31
 2848 1487 F5010000 		.4byte	.LASF273
 2849 148b 01       		.byte	0x1
 2850 148c D3       		.byte	0xd3
ARM GAS  /tmp/ccNeVBbf.s 			page 51


 2851 148d 00000000 		.4byte	.LFB299
 2852 1491 02000000 		.4byte	.LFE299-.LFB299
 2853 1495 01       		.uleb128 0x1
 2854 1496 9C       		.byte	0x9c
 2855 1497 23       		.uleb128 0x23
 2856 1498 04070000 		.4byte	.LASF262
 2857 149c 01       		.byte	0x1
 2858 149d D8       		.byte	0xd8
 2859 149e 89000000 		.4byte	0x89
 2860 14a2 00000000 		.4byte	.LFB300
 2861 14a6 06000000 		.4byte	.LFE300-.LFB300
 2862 14aa 01       		.uleb128 0x1
 2863 14ab 9C       		.byte	0x9c
 2864 14ac CD140000 		.4byte	0x14cd
 2865 14b0 24       		.uleb128 0x24
 2866 14b1 70696400 		.ascii	"pid\000"
 2867 14b5 01       		.byte	0x1
 2868 14b6 D8       		.byte	0xd8
 2869 14b7 89000000 		.4byte	0x89
 2870 14bb 91010000 		.4byte	.LLST12
 2871 14bf 26       		.uleb128 0x26
 2872 14c0 73696700 		.ascii	"sig\000"
 2873 14c4 01       		.byte	0x1
 2874 14c5 D8       		.byte	0xd8
 2875 14c6 89000000 		.4byte	0x89
 2876 14ca 01       		.uleb128 0x1
 2877 14cb 51       		.byte	0x51
 2878 14cc 00       		.byte	0
 2879 14cd 32       		.uleb128 0x32
 2880 14ce 73050000 		.4byte	.LASF263
 2881 14d2 16       		.byte	0x16
 2882 14d3 0408     		.2byte	0x804
 2883 14d5 D9140000 		.4byte	0x14d9
 2884 14d9 1F       		.uleb128 0x1f
 2885 14da 6A010000 		.4byte	0x16a
 2886 14de 33       		.uleb128 0x33
 2887 14df 636800   		.ascii	"ch\000"
 2888 14e2 0D       		.byte	0xd
 2889 14e3 C701     		.2byte	0x1c7
 2890 14e5 550D0000 		.4byte	0xd55
 2891 14e9 34       		.uleb128 0x34
 2892 14ea BD060000 		.4byte	.LASF264
 2893 14ee 01       		.byte	0x1
 2894 14ef 54       		.byte	0x54
 2895 14f0 5F010000 		.4byte	0x15f
 2896 14f4 05       		.uleb128 0x5
 2897 14f5 03       		.byte	0x3
 2898 14f6 00000000 		.4byte	_before_main
 2899 14fa 35       		.uleb128 0x35
 2900 14fb 5A090000 		.4byte	.LASF274
 2901 14ff 02       		.byte	0x2
 2902 1500 7F       		.byte	0x7f
 2903 1501 5D010000 		.4byte	0x15d
 2904 1505 19150000 		.4byte	0x1519
 2905 1509 14       		.uleb128 0x14
 2906 150a D2110000 		.4byte	0x11d2
 2907 150e 14       		.uleb128 0x14
ARM GAS  /tmp/ccNeVBbf.s 			page 52


 2908 150f 97000000 		.4byte	0x97
 2909 1513 14       		.uleb128 0x14
 2910 1514 90000000 		.4byte	0x90
 2911 1518 00       		.byte	0
 2912 1519 36       		.uleb128 0x36
 2913 151a BB020000 		.4byte	.LASF275
 2914 151e 5D010000 		.4byte	0x15d
 2915 1522 14       		.uleb128 0x14
 2916 1523 5D010000 		.4byte	0x15d
 2917 1527 14       		.uleb128 0x14
 2918 1528 89000000 		.4byte	0x89
 2919 152c 14       		.uleb128 0x14
 2920 152d 1F010000 		.4byte	0x11f
 2921 1531 00       		.byte	0
 2922 1532 00       		.byte	0
 2923              		.section	.debug_abbrev,"",%progbits
 2924              	.Ldebug_abbrev0:
 2925 0000 01       		.uleb128 0x1
 2926 0001 11       		.uleb128 0x11
 2927 0002 01       		.byte	0x1
 2928 0003 25       		.uleb128 0x25
 2929 0004 0E       		.uleb128 0xe
 2930 0005 13       		.uleb128 0x13
 2931 0006 0B       		.uleb128 0xb
 2932 0007 03       		.uleb128 0x3
 2933 0008 0E       		.uleb128 0xe
 2934 0009 1B       		.uleb128 0x1b
 2935 000a 0E       		.uleb128 0xe
 2936 000b 55       		.uleb128 0x55
 2937 000c 17       		.uleb128 0x17
 2938 000d 11       		.uleb128 0x11
 2939 000e 01       		.uleb128 0x1
 2940 000f 10       		.uleb128 0x10
 2941 0010 17       		.uleb128 0x17
 2942 0011 00       		.byte	0
 2943 0012 00       		.byte	0
 2944 0013 02       		.uleb128 0x2
 2945 0014 24       		.uleb128 0x24
 2946 0015 00       		.byte	0
 2947 0016 0B       		.uleb128 0xb
 2948 0017 0B       		.uleb128 0xb
 2949 0018 3E       		.uleb128 0x3e
 2950 0019 0B       		.uleb128 0xb
 2951 001a 03       		.uleb128 0x3
 2952 001b 0E       		.uleb128 0xe
 2953 001c 00       		.byte	0
 2954 001d 00       		.byte	0
 2955 001e 03       		.uleb128 0x3
 2956 001f 16       		.uleb128 0x16
 2957 0020 00       		.byte	0
 2958 0021 03       		.uleb128 0x3
 2959 0022 0E       		.uleb128 0xe
 2960 0023 3A       		.uleb128 0x3a
 2961 0024 0B       		.uleb128 0xb
 2962 0025 3B       		.uleb128 0x3b
 2963 0026 0B       		.uleb128 0xb
 2964 0027 49       		.uleb128 0x49
ARM GAS  /tmp/ccNeVBbf.s 			page 53


 2965 0028 13       		.uleb128 0x13
 2966 0029 00       		.byte	0
 2967 002a 00       		.byte	0
 2968 002b 04       		.uleb128 0x4
 2969 002c 24       		.uleb128 0x24
 2970 002d 00       		.byte	0
 2971 002e 0B       		.uleb128 0xb
 2972 002f 0B       		.uleb128 0xb
 2973 0030 3E       		.uleb128 0x3e
 2974 0031 0B       		.uleb128 0xb
 2975 0032 03       		.uleb128 0x3
 2976 0033 08       		.uleb128 0x8
 2977 0034 00       		.byte	0
 2978 0035 00       		.byte	0
 2979 0036 05       		.uleb128 0x5
 2980 0037 16       		.uleb128 0x16
 2981 0038 00       		.byte	0
 2982 0039 03       		.uleb128 0x3
 2983 003a 0E       		.uleb128 0xe
 2984 003b 3A       		.uleb128 0x3a
 2985 003c 0B       		.uleb128 0xb
 2986 003d 3B       		.uleb128 0x3b
 2987 003e 05       		.uleb128 0x5
 2988 003f 49       		.uleb128 0x49
 2989 0040 13       		.uleb128 0x13
 2990 0041 00       		.byte	0
 2991 0042 00       		.byte	0
 2992 0043 06       		.uleb128 0x6
 2993 0044 17       		.uleb128 0x17
 2994 0045 01       		.byte	0x1
 2995 0046 0B       		.uleb128 0xb
 2996 0047 0B       		.uleb128 0xb
 2997 0048 3A       		.uleb128 0x3a
 2998 0049 0B       		.uleb128 0xb
 2999 004a 3B       		.uleb128 0x3b
 3000 004b 0B       		.uleb128 0xb
 3001 004c 01       		.uleb128 0x1
 3002 004d 13       		.uleb128 0x13
 3003 004e 00       		.byte	0
 3004 004f 00       		.byte	0
 3005 0050 07       		.uleb128 0x7
 3006 0051 0D       		.uleb128 0xd
 3007 0052 00       		.byte	0
 3008 0053 03       		.uleb128 0x3
 3009 0054 0E       		.uleb128 0xe
 3010 0055 3A       		.uleb128 0x3a
 3011 0056 0B       		.uleb128 0xb
 3012 0057 3B       		.uleb128 0x3b
 3013 0058 0B       		.uleb128 0xb
 3014 0059 49       		.uleb128 0x49
 3015 005a 13       		.uleb128 0x13
 3016 005b 00       		.byte	0
 3017 005c 00       		.byte	0
 3018 005d 08       		.uleb128 0x8
 3019 005e 01       		.uleb128 0x1
 3020 005f 01       		.byte	0x1
 3021 0060 49       		.uleb128 0x49
ARM GAS  /tmp/ccNeVBbf.s 			page 54


 3022 0061 13       		.uleb128 0x13
 3023 0062 01       		.uleb128 0x1
 3024 0063 13       		.uleb128 0x13
 3025 0064 00       		.byte	0
 3026 0065 00       		.byte	0
 3027 0066 09       		.uleb128 0x9
 3028 0067 21       		.uleb128 0x21
 3029 0068 00       		.byte	0
 3030 0069 49       		.uleb128 0x49
 3031 006a 13       		.uleb128 0x13
 3032 006b 2F       		.uleb128 0x2f
 3033 006c 0B       		.uleb128 0xb
 3034 006d 00       		.byte	0
 3035 006e 00       		.byte	0
 3036 006f 0A       		.uleb128 0xa
 3037 0070 13       		.uleb128 0x13
 3038 0071 01       		.byte	0x1
 3039 0072 0B       		.uleb128 0xb
 3040 0073 0B       		.uleb128 0xb
 3041 0074 3A       		.uleb128 0x3a
 3042 0075 0B       		.uleb128 0xb
 3043 0076 3B       		.uleb128 0x3b
 3044 0077 0B       		.uleb128 0xb
 3045 0078 01       		.uleb128 0x1
 3046 0079 13       		.uleb128 0x13
 3047 007a 00       		.byte	0
 3048 007b 00       		.byte	0
 3049 007c 0B       		.uleb128 0xb
 3050 007d 0D       		.uleb128 0xd
 3051 007e 00       		.byte	0
 3052 007f 03       		.uleb128 0x3
 3053 0080 0E       		.uleb128 0xe
 3054 0081 3A       		.uleb128 0x3a
 3055 0082 0B       		.uleb128 0xb
 3056 0083 3B       		.uleb128 0x3b
 3057 0084 0B       		.uleb128 0xb
 3058 0085 49       		.uleb128 0x49
 3059 0086 13       		.uleb128 0x13
 3060 0087 38       		.uleb128 0x38
 3061 0088 0B       		.uleb128 0xb
 3062 0089 00       		.byte	0
 3063 008a 00       		.byte	0
 3064 008b 0C       		.uleb128 0xc
 3065 008c 0F       		.uleb128 0xf
 3066 008d 00       		.byte	0
 3067 008e 0B       		.uleb128 0xb
 3068 008f 0B       		.uleb128 0xb
 3069 0090 00       		.byte	0
 3070 0091 00       		.byte	0
 3071 0092 0D       		.uleb128 0xd
 3072 0093 0F       		.uleb128 0xf
 3073 0094 00       		.byte	0
 3074 0095 0B       		.uleb128 0xb
 3075 0096 0B       		.uleb128 0xb
 3076 0097 49       		.uleb128 0x49
 3077 0098 13       		.uleb128 0x13
 3078 0099 00       		.byte	0
ARM GAS  /tmp/ccNeVBbf.s 			page 55


 3079 009a 00       		.byte	0
 3080 009b 0E       		.uleb128 0xe
 3081 009c 13       		.uleb128 0x13
 3082 009d 01       		.byte	0x1
 3083 009e 03       		.uleb128 0x3
 3084 009f 0E       		.uleb128 0xe
 3085 00a0 0B       		.uleb128 0xb
 3086 00a1 0B       		.uleb128 0xb
 3087 00a2 3A       		.uleb128 0x3a
 3088 00a3 0B       		.uleb128 0xb
 3089 00a4 3B       		.uleb128 0x3b
 3090 00a5 0B       		.uleb128 0xb
 3091 00a6 01       		.uleb128 0x1
 3092 00a7 13       		.uleb128 0x13
 3093 00a8 00       		.byte	0
 3094 00a9 00       		.byte	0
 3095 00aa 0F       		.uleb128 0xf
 3096 00ab 0D       		.uleb128 0xd
 3097 00ac 00       		.byte	0
 3098 00ad 03       		.uleb128 0x3
 3099 00ae 08       		.uleb128 0x8
 3100 00af 3A       		.uleb128 0x3a
 3101 00b0 0B       		.uleb128 0xb
 3102 00b1 3B       		.uleb128 0x3b
 3103 00b2 0B       		.uleb128 0xb
 3104 00b3 49       		.uleb128 0x49
 3105 00b4 13       		.uleb128 0x13
 3106 00b5 38       		.uleb128 0x38
 3107 00b6 0B       		.uleb128 0xb
 3108 00b7 00       		.byte	0
 3109 00b8 00       		.byte	0
 3110 00b9 10       		.uleb128 0x10
 3111 00ba 13       		.uleb128 0x13
 3112 00bb 01       		.byte	0x1
 3113 00bc 03       		.uleb128 0x3
 3114 00bd 0E       		.uleb128 0xe
 3115 00be 0B       		.uleb128 0xb
 3116 00bf 05       		.uleb128 0x5
 3117 00c0 3A       		.uleb128 0x3a
 3118 00c1 0B       		.uleb128 0xb
 3119 00c2 3B       		.uleb128 0x3b
 3120 00c3 0B       		.uleb128 0xb
 3121 00c4 01       		.uleb128 0x1
 3122 00c5 13       		.uleb128 0x13
 3123 00c6 00       		.byte	0
 3124 00c7 00       		.byte	0
 3125 00c8 11       		.uleb128 0x11
 3126 00c9 0D       		.uleb128 0xd
 3127 00ca 00       		.byte	0
 3128 00cb 03       		.uleb128 0x3
 3129 00cc 0E       		.uleb128 0xe
 3130 00cd 3A       		.uleb128 0x3a
 3131 00ce 0B       		.uleb128 0xb
 3132 00cf 3B       		.uleb128 0x3b
 3133 00d0 0B       		.uleb128 0xb
 3134 00d1 49       		.uleb128 0x49
 3135 00d2 13       		.uleb128 0x13
ARM GAS  /tmp/ccNeVBbf.s 			page 56


 3136 00d3 38       		.uleb128 0x38
 3137 00d4 05       		.uleb128 0x5
 3138 00d5 00       		.byte	0
 3139 00d6 00       		.byte	0
 3140 00d7 12       		.uleb128 0x12
 3141 00d8 15       		.uleb128 0x15
 3142 00d9 00       		.byte	0
 3143 00da 27       		.uleb128 0x27
 3144 00db 19       		.uleb128 0x19
 3145 00dc 00       		.byte	0
 3146 00dd 00       		.byte	0
 3147 00de 13       		.uleb128 0x13
 3148 00df 15       		.uleb128 0x15
 3149 00e0 01       		.byte	0x1
 3150 00e1 27       		.uleb128 0x27
 3151 00e2 19       		.uleb128 0x19
 3152 00e3 49       		.uleb128 0x49
 3153 00e4 13       		.uleb128 0x13
 3154 00e5 01       		.uleb128 0x1
 3155 00e6 13       		.uleb128 0x13
 3156 00e7 00       		.byte	0
 3157 00e8 00       		.byte	0
 3158 00e9 14       		.uleb128 0x14
 3159 00ea 05       		.uleb128 0x5
 3160 00eb 00       		.byte	0
 3161 00ec 49       		.uleb128 0x49
 3162 00ed 13       		.uleb128 0x13
 3163 00ee 00       		.byte	0
 3164 00ef 00       		.byte	0
 3165 00f0 15       		.uleb128 0x15
 3166 00f1 13       		.uleb128 0x13
 3167 00f2 01       		.byte	0x1
 3168 00f3 03       		.uleb128 0x3
 3169 00f4 0E       		.uleb128 0xe
 3170 00f5 0B       		.uleb128 0xb
 3171 00f6 05       		.uleb128 0x5
 3172 00f7 3A       		.uleb128 0x3a
 3173 00f8 0B       		.uleb128 0xb
 3174 00f9 3B       		.uleb128 0x3b
 3175 00fa 05       		.uleb128 0x5
 3176 00fb 01       		.uleb128 0x1
 3177 00fc 13       		.uleb128 0x13
 3178 00fd 00       		.byte	0
 3179 00fe 00       		.byte	0
 3180 00ff 16       		.uleb128 0x16
 3181 0100 0D       		.uleb128 0xd
 3182 0101 00       		.byte	0
 3183 0102 03       		.uleb128 0x3
 3184 0103 0E       		.uleb128 0xe
 3185 0104 3A       		.uleb128 0x3a
 3186 0105 0B       		.uleb128 0xb
 3187 0106 3B       		.uleb128 0x3b
 3188 0107 05       		.uleb128 0x5
 3189 0108 49       		.uleb128 0x49
 3190 0109 13       		.uleb128 0x13
 3191 010a 38       		.uleb128 0x38
 3192 010b 0B       		.uleb128 0xb
ARM GAS  /tmp/ccNeVBbf.s 			page 57


 3193 010c 00       		.byte	0
 3194 010d 00       		.byte	0
 3195 010e 17       		.uleb128 0x17
 3196 010f 0D       		.uleb128 0xd
 3197 0110 00       		.byte	0
 3198 0111 03       		.uleb128 0x3
 3199 0112 0E       		.uleb128 0xe
 3200 0113 3A       		.uleb128 0x3a
 3201 0114 0B       		.uleb128 0xb
 3202 0115 3B       		.uleb128 0x3b
 3203 0116 05       		.uleb128 0x5
 3204 0117 49       		.uleb128 0x49
 3205 0118 13       		.uleb128 0x13
 3206 0119 38       		.uleb128 0x38
 3207 011a 05       		.uleb128 0x5
 3208 011b 00       		.byte	0
 3209 011c 00       		.byte	0
 3210 011d 18       		.uleb128 0x18
 3211 011e 26       		.uleb128 0x26
 3212 011f 00       		.byte	0
 3213 0120 49       		.uleb128 0x49
 3214 0121 13       		.uleb128 0x13
 3215 0122 00       		.byte	0
 3216 0123 00       		.byte	0
 3217 0124 19       		.uleb128 0x19
 3218 0125 13       		.uleb128 0x13
 3219 0126 01       		.byte	0x1
 3220 0127 03       		.uleb128 0x3
 3221 0128 0E       		.uleb128 0xe
 3222 0129 0B       		.uleb128 0xb
 3223 012a 0B       		.uleb128 0xb
 3224 012b 3A       		.uleb128 0x3a
 3225 012c 0B       		.uleb128 0xb
 3226 012d 3B       		.uleb128 0x3b
 3227 012e 05       		.uleb128 0x5
 3228 012f 01       		.uleb128 0x1
 3229 0130 13       		.uleb128 0x13
 3230 0131 00       		.byte	0
 3231 0132 00       		.byte	0
 3232 0133 1A       		.uleb128 0x1a
 3233 0134 13       		.uleb128 0x13
 3234 0135 01       		.byte	0x1
 3235 0136 0B       		.uleb128 0xb
 3236 0137 0B       		.uleb128 0xb
 3237 0138 3A       		.uleb128 0x3a
 3238 0139 0B       		.uleb128 0xb
 3239 013a 3B       		.uleb128 0x3b
 3240 013b 05       		.uleb128 0x5
 3241 013c 01       		.uleb128 0x1
 3242 013d 13       		.uleb128 0x13
 3243 013e 00       		.byte	0
 3244 013f 00       		.byte	0
 3245 0140 1B       		.uleb128 0x1b
 3246 0141 17       		.uleb128 0x17
 3247 0142 01       		.byte	0x1
 3248 0143 0B       		.uleb128 0xb
 3249 0144 0B       		.uleb128 0xb
ARM GAS  /tmp/ccNeVBbf.s 			page 58


 3250 0145 3A       		.uleb128 0x3a
 3251 0146 0B       		.uleb128 0xb
 3252 0147 3B       		.uleb128 0x3b
 3253 0148 05       		.uleb128 0x5
 3254 0149 01       		.uleb128 0x1
 3255 014a 13       		.uleb128 0x13
 3256 014b 00       		.byte	0
 3257 014c 00       		.byte	0
 3258 014d 1C       		.uleb128 0x1c
 3259 014e 0D       		.uleb128 0xd
 3260 014f 00       		.byte	0
 3261 0150 03       		.uleb128 0x3
 3262 0151 0E       		.uleb128 0xe
 3263 0152 3A       		.uleb128 0x3a
 3264 0153 0B       		.uleb128 0xb
 3265 0154 3B       		.uleb128 0x3b
 3266 0155 05       		.uleb128 0x5
 3267 0156 49       		.uleb128 0x49
 3268 0157 13       		.uleb128 0x13
 3269 0158 00       		.byte	0
 3270 0159 00       		.byte	0
 3271 015a 1D       		.uleb128 0x1d
 3272 015b 15       		.uleb128 0x15
 3273 015c 01       		.byte	0x1
 3274 015d 27       		.uleb128 0x27
 3275 015e 19       		.uleb128 0x19
 3276 015f 01       		.uleb128 0x1
 3277 0160 13       		.uleb128 0x13
 3278 0161 00       		.byte	0
 3279 0162 00       		.byte	0
 3280 0163 1E       		.uleb128 0x1e
 3281 0164 0D       		.uleb128 0xd
 3282 0165 00       		.byte	0
 3283 0166 03       		.uleb128 0x3
 3284 0167 08       		.uleb128 0x8
 3285 0168 3A       		.uleb128 0x3a
 3286 0169 0B       		.uleb128 0xb
 3287 016a 3B       		.uleb128 0x3b
 3288 016b 05       		.uleb128 0x5
 3289 016c 49       		.uleb128 0x49
 3290 016d 13       		.uleb128 0x13
 3291 016e 38       		.uleb128 0x38
 3292 016f 0B       		.uleb128 0xb
 3293 0170 00       		.byte	0
 3294 0171 00       		.byte	0
 3295 0172 1F       		.uleb128 0x1f
 3296 0173 35       		.uleb128 0x35
 3297 0174 00       		.byte	0
 3298 0175 49       		.uleb128 0x49
 3299 0176 13       		.uleb128 0x13
 3300 0177 00       		.byte	0
 3301 0178 00       		.byte	0
 3302 0179 20       		.uleb128 0x20
 3303 017a 17       		.uleb128 0x17
 3304 017b 01       		.byte	0x1
 3305 017c 03       		.uleb128 0x3
 3306 017d 0E       		.uleb128 0xe
ARM GAS  /tmp/ccNeVBbf.s 			page 59


 3307 017e 0B       		.uleb128 0xb
 3308 017f 0B       		.uleb128 0xb
 3309 0180 3A       		.uleb128 0x3a
 3310 0181 0B       		.uleb128 0xb
 3311 0182 3B       		.uleb128 0x3b
 3312 0183 0B       		.uleb128 0xb
 3313 0184 01       		.uleb128 0x1
 3314 0185 13       		.uleb128 0x13
 3315 0186 00       		.byte	0
 3316 0187 00       		.byte	0
 3317 0188 21       		.uleb128 0x21
 3318 0189 2E       		.uleb128 0x2e
 3319 018a 01       		.byte	0x1
 3320 018b 03       		.uleb128 0x3
 3321 018c 0E       		.uleb128 0xe
 3322 018d 3A       		.uleb128 0x3a
 3323 018e 0B       		.uleb128 0xb
 3324 018f 3B       		.uleb128 0x3b
 3325 0190 0B       		.uleb128 0xb
 3326 0191 27       		.uleb128 0x27
 3327 0192 19       		.uleb128 0x19
 3328 0193 49       		.uleb128 0x49
 3329 0194 13       		.uleb128 0x13
 3330 0195 20       		.uleb128 0x20
 3331 0196 0B       		.uleb128 0xb
 3332 0197 01       		.uleb128 0x1
 3333 0198 13       		.uleb128 0x13
 3334 0199 00       		.byte	0
 3335 019a 00       		.byte	0
 3336 019b 22       		.uleb128 0x22
 3337 019c 05       		.uleb128 0x5
 3338 019d 00       		.byte	0
 3339 019e 03       		.uleb128 0x3
 3340 019f 0E       		.uleb128 0xe
 3341 01a0 3A       		.uleb128 0x3a
 3342 01a1 0B       		.uleb128 0xb
 3343 01a2 3B       		.uleb128 0x3b
 3344 01a3 0B       		.uleb128 0xb
 3345 01a4 49       		.uleb128 0x49
 3346 01a5 13       		.uleb128 0x13
 3347 01a6 00       		.byte	0
 3348 01a7 00       		.byte	0
 3349 01a8 23       		.uleb128 0x23
 3350 01a9 2E       		.uleb128 0x2e
 3351 01aa 01       		.byte	0x1
 3352 01ab 3F       		.uleb128 0x3f
 3353 01ac 19       		.uleb128 0x19
 3354 01ad 03       		.uleb128 0x3
 3355 01ae 0E       		.uleb128 0xe
 3356 01af 3A       		.uleb128 0x3a
 3357 01b0 0B       		.uleb128 0xb
 3358 01b1 3B       		.uleb128 0x3b
 3359 01b2 0B       		.uleb128 0xb
 3360 01b3 27       		.uleb128 0x27
 3361 01b4 19       		.uleb128 0x19
 3362 01b5 49       		.uleb128 0x49
 3363 01b6 13       		.uleb128 0x13
ARM GAS  /tmp/ccNeVBbf.s 			page 60


 3364 01b7 11       		.uleb128 0x11
 3365 01b8 01       		.uleb128 0x1
 3366 01b9 12       		.uleb128 0x12
 3367 01ba 06       		.uleb128 0x6
 3368 01bb 40       		.uleb128 0x40
 3369 01bc 18       		.uleb128 0x18
 3370 01bd 9742     		.uleb128 0x2117
 3371 01bf 19       		.uleb128 0x19
 3372 01c0 01       		.uleb128 0x1
 3373 01c1 13       		.uleb128 0x13
 3374 01c2 00       		.byte	0
 3375 01c3 00       		.byte	0
 3376 01c4 24       		.uleb128 0x24
 3377 01c5 05       		.uleb128 0x5
 3378 01c6 00       		.byte	0
 3379 01c7 03       		.uleb128 0x3
 3380 01c8 08       		.uleb128 0x8
 3381 01c9 3A       		.uleb128 0x3a
 3382 01ca 0B       		.uleb128 0xb
 3383 01cb 3B       		.uleb128 0x3b
 3384 01cc 0B       		.uleb128 0xb
 3385 01cd 49       		.uleb128 0x49
 3386 01ce 13       		.uleb128 0x13
 3387 01cf 02       		.uleb128 0x2
 3388 01d0 17       		.uleb128 0x17
 3389 01d1 00       		.byte	0
 3390 01d2 00       		.byte	0
 3391 01d3 25       		.uleb128 0x25
 3392 01d4 05       		.uleb128 0x5
 3393 01d5 00       		.byte	0
 3394 01d6 03       		.uleb128 0x3
 3395 01d7 0E       		.uleb128 0xe
 3396 01d8 3A       		.uleb128 0x3a
 3397 01d9 0B       		.uleb128 0xb
 3398 01da 3B       		.uleb128 0x3b
 3399 01db 0B       		.uleb128 0xb
 3400 01dc 49       		.uleb128 0x49
 3401 01dd 13       		.uleb128 0x13
 3402 01de 02       		.uleb128 0x2
 3403 01df 18       		.uleb128 0x18
 3404 01e0 00       		.byte	0
 3405 01e1 00       		.byte	0
 3406 01e2 26       		.uleb128 0x26
 3407 01e3 05       		.uleb128 0x5
 3408 01e4 00       		.byte	0
 3409 01e5 03       		.uleb128 0x3
 3410 01e6 08       		.uleb128 0x8
 3411 01e7 3A       		.uleb128 0x3a
 3412 01e8 0B       		.uleb128 0xb
 3413 01e9 3B       		.uleb128 0x3b
 3414 01ea 0B       		.uleb128 0xb
 3415 01eb 49       		.uleb128 0x49
 3416 01ec 13       		.uleb128 0x13
 3417 01ed 02       		.uleb128 0x2
 3418 01ee 18       		.uleb128 0x18
 3419 01ef 00       		.byte	0
 3420 01f0 00       		.byte	0
ARM GAS  /tmp/ccNeVBbf.s 			page 61


 3421 01f1 27       		.uleb128 0x27
 3422 01f2 05       		.uleb128 0x5
 3423 01f3 00       		.byte	0
 3424 01f4 03       		.uleb128 0x3
 3425 01f5 0E       		.uleb128 0xe
 3426 01f6 3A       		.uleb128 0x3a
 3427 01f7 0B       		.uleb128 0xb
 3428 01f8 3B       		.uleb128 0x3b
 3429 01f9 0B       		.uleb128 0xb
 3430 01fa 49       		.uleb128 0x49
 3431 01fb 13       		.uleb128 0x13
 3432 01fc 02       		.uleb128 0x2
 3433 01fd 17       		.uleb128 0x17
 3434 01fe 00       		.byte	0
 3435 01ff 00       		.byte	0
 3436 0200 28       		.uleb128 0x28
 3437 0201 34       		.uleb128 0x34
 3438 0202 00       		.byte	0
 3439 0203 03       		.uleb128 0x3
 3440 0204 08       		.uleb128 0x8
 3441 0205 3A       		.uleb128 0x3a
 3442 0206 0B       		.uleb128 0xb
 3443 0207 3B       		.uleb128 0x3b
 3444 0208 0B       		.uleb128 0xb
 3445 0209 49       		.uleb128 0x49
 3446 020a 13       		.uleb128 0x13
 3447 020b 00       		.byte	0
 3448 020c 00       		.byte	0
 3449 020d 29       		.uleb128 0x29
 3450 020e 34       		.uleb128 0x34
 3451 020f 00       		.byte	0
 3452 0210 03       		.uleb128 0x3
 3453 0211 0E       		.uleb128 0xe
 3454 0212 49       		.uleb128 0x49
 3455 0213 13       		.uleb128 0x13
 3456 0214 34       		.uleb128 0x34
 3457 0215 19       		.uleb128 0x19
 3458 0216 00       		.byte	0
 3459 0217 00       		.byte	0
 3460 0218 2A       		.uleb128 0x2a
 3461 0219 1D       		.uleb128 0x1d
 3462 021a 01       		.byte	0x1
 3463 021b 31       		.uleb128 0x31
 3464 021c 13       		.uleb128 0x13
 3465 021d 52       		.uleb128 0x52
 3466 021e 01       		.uleb128 0x1
 3467 021f 55       		.uleb128 0x55
 3468 0220 17       		.uleb128 0x17
 3469 0221 58       		.uleb128 0x58
 3470 0222 0B       		.uleb128 0xb
 3471 0223 59       		.uleb128 0x59
 3472 0224 0B       		.uleb128 0xb
 3473 0225 00       		.byte	0
 3474 0226 00       		.byte	0
 3475 0227 2B       		.uleb128 0x2b
 3476 0228 05       		.uleb128 0x5
 3477 0229 00       		.byte	0
ARM GAS  /tmp/ccNeVBbf.s 			page 62


 3478 022a 31       		.uleb128 0x31
 3479 022b 13       		.uleb128 0x13
 3480 022c 1C       		.uleb128 0x1c
 3481 022d 0B       		.uleb128 0xb
 3482 022e 00       		.byte	0
 3483 022f 00       		.byte	0
 3484 0230 2C       		.uleb128 0x2c
 3485 0231 05       		.uleb128 0x5
 3486 0232 00       		.byte	0
 3487 0233 31       		.uleb128 0x31
 3488 0234 13       		.uleb128 0x13
 3489 0235 02       		.uleb128 0x2
 3490 0236 17       		.uleb128 0x17
 3491 0237 00       		.byte	0
 3492 0238 00       		.byte	0
 3493 0239 2D       		.uleb128 0x2d
 3494 023a 898201   		.uleb128 0x4109
 3495 023d 01       		.byte	0x1
 3496 023e 11       		.uleb128 0x11
 3497 023f 01       		.uleb128 0x1
 3498 0240 31       		.uleb128 0x31
 3499 0241 13       		.uleb128 0x13
 3500 0242 00       		.byte	0
 3501 0243 00       		.byte	0
 3502 0244 2E       		.uleb128 0x2e
 3503 0245 8A8201   		.uleb128 0x410a
 3504 0248 00       		.byte	0
 3505 0249 02       		.uleb128 0x2
 3506 024a 18       		.uleb128 0x18
 3507 024b 9142     		.uleb128 0x2111
 3508 024d 18       		.uleb128 0x18
 3509 024e 00       		.byte	0
 3510 024f 00       		.byte	0
 3511 0250 2F       		.uleb128 0x2f
 3512 0251 2E       		.uleb128 0x2e
 3513 0252 00       		.byte	0
 3514 0253 3F       		.uleb128 0x3f
 3515 0254 19       		.uleb128 0x19
 3516 0255 03       		.uleb128 0x3
 3517 0256 0E       		.uleb128 0xe
 3518 0257 3A       		.uleb128 0x3a
 3519 0258 0B       		.uleb128 0xb
 3520 0259 3B       		.uleb128 0x3b
 3521 025a 0B       		.uleb128 0xb
 3522 025b 27       		.uleb128 0x27
 3523 025c 19       		.uleb128 0x19
 3524 025d 49       		.uleb128 0x49
 3525 025e 13       		.uleb128 0x13
 3526 025f 11       		.uleb128 0x11
 3527 0260 01       		.uleb128 0x1
 3528 0261 12       		.uleb128 0x12
 3529 0262 06       		.uleb128 0x6
 3530 0263 40       		.uleb128 0x40
 3531 0264 18       		.uleb128 0x18
 3532 0265 9742     		.uleb128 0x2117
 3533 0267 19       		.uleb128 0x19
 3534 0268 00       		.byte	0
ARM GAS  /tmp/ccNeVBbf.s 			page 63


 3535 0269 00       		.byte	0
 3536 026a 30       		.uleb128 0x30
 3537 026b 2E       		.uleb128 0x2e
 3538 026c 01       		.byte	0x1
 3539 026d 3F       		.uleb128 0x3f
 3540 026e 19       		.uleb128 0x19
 3541 026f 03       		.uleb128 0x3
 3542 0270 0E       		.uleb128 0xe
 3543 0271 3A       		.uleb128 0x3a
 3544 0272 0B       		.uleb128 0xb
 3545 0273 3B       		.uleb128 0x3b
 3546 0274 0B       		.uleb128 0xb
 3547 0275 27       		.uleb128 0x27
 3548 0276 19       		.uleb128 0x19
 3549 0277 11       		.uleb128 0x11
 3550 0278 01       		.uleb128 0x1
 3551 0279 12       		.uleb128 0x12
 3552 027a 06       		.uleb128 0x6
 3553 027b 40       		.uleb128 0x40
 3554 027c 18       		.uleb128 0x18
 3555 027d 9742     		.uleb128 0x2117
 3556 027f 19       		.uleb128 0x19
 3557 0280 01       		.uleb128 0x1
 3558 0281 13       		.uleb128 0x13
 3559 0282 00       		.byte	0
 3560 0283 00       		.byte	0
 3561 0284 31       		.uleb128 0x31
 3562 0285 2E       		.uleb128 0x2e
 3563 0286 00       		.byte	0
 3564 0287 3F       		.uleb128 0x3f
 3565 0288 19       		.uleb128 0x19
 3566 0289 03       		.uleb128 0x3
 3567 028a 0E       		.uleb128 0xe
 3568 028b 3A       		.uleb128 0x3a
 3569 028c 0B       		.uleb128 0xb
 3570 028d 3B       		.uleb128 0x3b
 3571 028e 0B       		.uleb128 0xb
 3572 028f 27       		.uleb128 0x27
 3573 0290 19       		.uleb128 0x19
 3574 0291 11       		.uleb128 0x11
 3575 0292 01       		.uleb128 0x1
 3576 0293 12       		.uleb128 0x12
 3577 0294 06       		.uleb128 0x6
 3578 0295 40       		.uleb128 0x40
 3579 0296 18       		.uleb128 0x18
 3580 0297 9742     		.uleb128 0x2117
 3581 0299 19       		.uleb128 0x19
 3582 029a 00       		.byte	0
 3583 029b 00       		.byte	0
 3584 029c 32       		.uleb128 0x32
 3585 029d 34       		.uleb128 0x34
 3586 029e 00       		.byte	0
 3587 029f 03       		.uleb128 0x3
 3588 02a0 0E       		.uleb128 0xe
 3589 02a1 3A       		.uleb128 0x3a
 3590 02a2 0B       		.uleb128 0xb
 3591 02a3 3B       		.uleb128 0x3b
ARM GAS  /tmp/ccNeVBbf.s 			page 64


 3592 02a4 05       		.uleb128 0x5
 3593 02a5 49       		.uleb128 0x49
 3594 02a6 13       		.uleb128 0x13
 3595 02a7 3F       		.uleb128 0x3f
 3596 02a8 19       		.uleb128 0x19
 3597 02a9 3C       		.uleb128 0x3c
 3598 02aa 19       		.uleb128 0x19
 3599 02ab 00       		.byte	0
 3600 02ac 00       		.byte	0
 3601 02ad 33       		.uleb128 0x33
 3602 02ae 34       		.uleb128 0x34
 3603 02af 00       		.byte	0
 3604 02b0 03       		.uleb128 0x3
 3605 02b1 08       		.uleb128 0x8
 3606 02b2 3A       		.uleb128 0x3a
 3607 02b3 0B       		.uleb128 0xb
 3608 02b4 3B       		.uleb128 0x3b
 3609 02b5 05       		.uleb128 0x5
 3610 02b6 49       		.uleb128 0x49
 3611 02b7 13       		.uleb128 0x13
 3612 02b8 3F       		.uleb128 0x3f
 3613 02b9 19       		.uleb128 0x19
 3614 02ba 3C       		.uleb128 0x3c
 3615 02bb 19       		.uleb128 0x19
 3616 02bc 00       		.byte	0
 3617 02bd 00       		.byte	0
 3618 02be 34       		.uleb128 0x34
 3619 02bf 34       		.uleb128 0x34
 3620 02c0 00       		.byte	0
 3621 02c1 03       		.uleb128 0x3
 3622 02c2 0E       		.uleb128 0xe
 3623 02c3 3A       		.uleb128 0x3a
 3624 02c4 0B       		.uleb128 0xb
 3625 02c5 3B       		.uleb128 0x3b
 3626 02c6 0B       		.uleb128 0xb
 3627 02c7 49       		.uleb128 0x49
 3628 02c8 13       		.uleb128 0x13
 3629 02c9 3F       		.uleb128 0x3f
 3630 02ca 19       		.uleb128 0x19
 3631 02cb 02       		.uleb128 0x2
 3632 02cc 18       		.uleb128 0x18
 3633 02cd 00       		.byte	0
 3634 02ce 00       		.byte	0
 3635 02cf 35       		.uleb128 0x35
 3636 02d0 2E       		.uleb128 0x2e
 3637 02d1 01       		.byte	0x1
 3638 02d2 3F       		.uleb128 0x3f
 3639 02d3 19       		.uleb128 0x19
 3640 02d4 03       		.uleb128 0x3
 3641 02d5 0E       		.uleb128 0xe
 3642 02d6 3A       		.uleb128 0x3a
 3643 02d7 0B       		.uleb128 0xb
 3644 02d8 3B       		.uleb128 0x3b
 3645 02d9 0B       		.uleb128 0xb
 3646 02da 27       		.uleb128 0x27
 3647 02db 19       		.uleb128 0x19
 3648 02dc 49       		.uleb128 0x49
ARM GAS  /tmp/ccNeVBbf.s 			page 65


 3649 02dd 13       		.uleb128 0x13
 3650 02de 3C       		.uleb128 0x3c
 3651 02df 19       		.uleb128 0x19
 3652 02e0 01       		.uleb128 0x1
 3653 02e1 13       		.uleb128 0x13
 3654 02e2 00       		.byte	0
 3655 02e3 00       		.byte	0
 3656 02e4 36       		.uleb128 0x36
 3657 02e5 2E       		.uleb128 0x2e
 3658 02e6 01       		.byte	0x1
 3659 02e7 3F       		.uleb128 0x3f
 3660 02e8 19       		.uleb128 0x19
 3661 02e9 03       		.uleb128 0x3
 3662 02ea 0E       		.uleb128 0xe
 3663 02eb 27       		.uleb128 0x27
 3664 02ec 19       		.uleb128 0x19
 3665 02ed 49       		.uleb128 0x49
 3666 02ee 13       		.uleb128 0x13
 3667 02ef 34       		.uleb128 0x34
 3668 02f0 19       		.uleb128 0x19
 3669 02f1 3C       		.uleb128 0x3c
 3670 02f2 19       		.uleb128 0x19
 3671 02f3 00       		.byte	0
 3672 02f4 00       		.byte	0
 3673 02f5 00       		.byte	0
 3674              		.section	.debug_loc,"",%progbits
 3675              	.Ldebug_loc0:
 3676              	.LLST0:
 3677 0000 00000000 		.4byte	.LVL0
 3678 0004 08000000 		.4byte	.LVL2
 3679 0008 0100     		.2byte	0x1
 3680 000a 50       		.byte	0x50
 3681 000b 08000000 		.4byte	.LVL2
 3682 000f 0A000000 		.4byte	.LFE290
 3683 0013 0400     		.2byte	0x4
 3684 0015 F3       		.byte	0xf3
 3685 0016 01       		.uleb128 0x1
 3686 0017 50       		.byte	0x50
 3687 0018 9F       		.byte	0x9f
 3688 0019 00000000 		.4byte	0
 3689 001d 00000000 		.4byte	0
 3690              	.LLST1:
 3691 0021 00000000 		.4byte	.LVL0
 3692 0025 02000000 		.4byte	.LVL1
 3693 0029 0100     		.2byte	0x1
 3694 002b 53       		.byte	0x53
 3695 002c 02000000 		.4byte	.LVL1
 3696 0030 0A000000 		.4byte	.LFE290
 3697 0034 0400     		.2byte	0x4
 3698 0036 F3       		.byte	0xf3
 3699 0037 01       		.uleb128 0x1
 3700 0038 53       		.byte	0x53
 3701 0039 9F       		.byte	0x9f
 3702 003a 00000000 		.4byte	0
 3703 003e 00000000 		.4byte	0
 3704              	.LLST2:
 3705 0042 00000000 		.4byte	.LVL3
ARM GAS  /tmp/ccNeVBbf.s 			page 66


 3706 0046 02000000 		.4byte	.LVL4
 3707 004a 0100     		.2byte	0x1
 3708 004c 50       		.byte	0x50
 3709 004d 02000000 		.4byte	.LVL4
 3710 0051 04000000 		.4byte	.LFE291
 3711 0055 0400     		.2byte	0x4
 3712 0057 F3       		.byte	0xf3
 3713 0058 01       		.uleb128 0x1
 3714 0059 50       		.byte	0x50
 3715 005a 9F       		.byte	0x9f
 3716 005b 00000000 		.4byte	0
 3717 005f 00000000 		.4byte	0
 3718              	.LLST3:
 3719 0063 00000000 		.4byte	.LVL5
 3720 0067 02000000 		.4byte	.LVL6
 3721 006b 0100     		.2byte	0x1
 3722 006d 50       		.byte	0x50
 3723 006e 02000000 		.4byte	.LVL6
 3724 0072 04000000 		.4byte	.LFE292
 3725 0076 0400     		.2byte	0x4
 3726 0078 F3       		.byte	0xf3
 3727 0079 01       		.uleb128 0x1
 3728 007a 50       		.byte	0x50
 3729 007b 9F       		.byte	0x9f
 3730 007c 00000000 		.4byte	0
 3731 0080 00000000 		.4byte	0
 3732              	.LLST4:
 3733 0084 00000000 		.4byte	.LVL7
 3734 0088 02000000 		.4byte	.LVL8
 3735 008c 0100     		.2byte	0x1
 3736 008e 50       		.byte	0x50
 3737 008f 02000000 		.4byte	.LVL8
 3738 0093 04000000 		.4byte	.LFE293
 3739 0097 0400     		.2byte	0x4
 3740 0099 F3       		.byte	0xf3
 3741 009a 01       		.uleb128 0x1
 3742 009b 50       		.byte	0x50
 3743 009c 9F       		.byte	0x9f
 3744 009d 00000000 		.4byte	0
 3745 00a1 00000000 		.4byte	0
 3746              	.LLST5:
 3747 00a5 00000000 		.4byte	.LVL9
 3748 00a9 08000000 		.4byte	.LVL11
 3749 00ad 0100     		.2byte	0x1
 3750 00af 50       		.byte	0x50
 3751 00b0 08000000 		.4byte	.LVL11
 3752 00b4 18000000 		.4byte	.LFE294
 3753 00b8 0100     		.2byte	0x1
 3754 00ba 54       		.byte	0x54
 3755 00bb 00000000 		.4byte	0
 3756 00bf 00000000 		.4byte	0
 3757              	.LLST6:
 3758 00c3 00000000 		.4byte	.LVL9
 3759 00c7 0B000000 		.4byte	.LVL12-1
 3760 00cb 0100     		.2byte	0x1
 3761 00cd 51       		.byte	0x51
 3762 00ce 0B000000 		.4byte	.LVL12-1
ARM GAS  /tmp/ccNeVBbf.s 			page 67


 3763 00d2 18000000 		.4byte	.LFE294
 3764 00d6 0400     		.2byte	0x4
 3765 00d8 F3       		.byte	0xf3
 3766 00d9 01       		.uleb128 0x1
 3767 00da 51       		.byte	0x51
 3768 00db 9F       		.byte	0x9f
 3769 00dc 00000000 		.4byte	0
 3770 00e0 00000000 		.4byte	0
 3771              	.LLST7:
 3772 00e4 06000000 		.4byte	.LVL10
 3773 00e8 0B000000 		.4byte	.LVL12-1
 3774 00ec 0100     		.2byte	0x1
 3775 00ee 51       		.byte	0x51
 3776 00ef 0B000000 		.4byte	.LVL12-1
 3777 00f3 18000000 		.4byte	.LFE294
 3778 00f7 0400     		.2byte	0x4
 3779 00f9 F3       		.byte	0xf3
 3780 00fa 01       		.uleb128 0x1
 3781 00fb 51       		.byte	0x51
 3782 00fc 9F       		.byte	0x9f
 3783 00fd 00000000 		.4byte	0
 3784 0101 00000000 		.4byte	0
 3785              	.LLST8:
 3786 0105 00000000 		.4byte	.LVL13
 3787 0109 04000000 		.4byte	.LVL14
 3788 010d 0100     		.2byte	0x1
 3789 010f 50       		.byte	0x50
 3790 0110 04000000 		.4byte	.LVL14
 3791 0114 18000000 		.4byte	.LFE295
 3792 0118 0400     		.2byte	0x4
 3793 011a F3       		.byte	0xf3
 3794 011b 01       		.uleb128 0x1
 3795 011c 50       		.byte	0x50
 3796 011d 9F       		.byte	0x9f
 3797 011e 00000000 		.4byte	0
 3798 0122 00000000 		.4byte	0
 3799              	.LLST9:
 3800 0126 00000000 		.4byte	.LVL13
 3801 012a 08000000 		.4byte	.LVL15
 3802 012e 0100     		.2byte	0x1
 3803 0130 51       		.byte	0x51
 3804 0131 08000000 		.4byte	.LVL15
 3805 0135 18000000 		.4byte	.LFE295
 3806 0139 0400     		.2byte	0x4
 3807 013b F3       		.byte	0xf3
 3808 013c 01       		.uleb128 0x1
 3809 013d 51       		.byte	0x51
 3810 013e 9F       		.byte	0x9f
 3811 013f 00000000 		.4byte	0
 3812 0143 00000000 		.4byte	0
 3813              	.LLST10:
 3814 0147 00000000 		.4byte	.LVL13
 3815 014b 0A000000 		.4byte	.LVL16
 3816 014f 0100     		.2byte	0x1
 3817 0151 52       		.byte	0x52
 3818 0152 0A000000 		.4byte	.LVL16
 3819 0156 0D000000 		.4byte	.LVL17-1
ARM GAS  /tmp/ccNeVBbf.s 			page 68


 3820 015a 0100     		.2byte	0x1
 3821 015c 50       		.byte	0x50
 3822 015d 0D000000 		.4byte	.LVL17-1
 3823 0161 18000000 		.4byte	.LFE295
 3824 0165 0100     		.2byte	0x1
 3825 0167 54       		.byte	0x54
 3826 0168 00000000 		.4byte	0
 3827 016c 00000000 		.4byte	0
 3828              	.LLST11:
 3829 0170 00000000 		.4byte	.LVL18
 3830 0174 02000000 		.4byte	.LVL19
 3831 0178 0100     		.2byte	0x1
 3832 017a 50       		.byte	0x50
 3833 017b 02000000 		.4byte	.LVL19
 3834 017f 04000000 		.4byte	.LFE296
 3835 0183 0400     		.2byte	0x4
 3836 0185 F3       		.byte	0xf3
 3837 0186 01       		.uleb128 0x1
 3838 0187 50       		.byte	0x50
 3839 0188 9F       		.byte	0x9f
 3840 0189 00000000 		.4byte	0
 3841 018d 00000000 		.4byte	0
 3842              	.LLST12:
 3843 0191 00000000 		.4byte	.LVL21
 3844 0195 04000000 		.4byte	.LVL22
 3845 0199 0100     		.2byte	0x1
 3846 019b 50       		.byte	0x50
 3847 019c 04000000 		.4byte	.LVL22
 3848 01a0 06000000 		.4byte	.LFE300
 3849 01a4 0400     		.2byte	0x4
 3850 01a6 F3       		.byte	0xf3
 3851 01a7 01       		.uleb128 0x1
 3852 01a8 50       		.byte	0x50
 3853 01a9 9F       		.byte	0x9f
 3854 01aa 00000000 		.4byte	0
 3855 01ae 00000000 		.4byte	0
 3856              		.section	.debug_aranges,"",%progbits
 3857 0000 6C000000 		.4byte	0x6c
 3858 0004 0200     		.2byte	0x2
 3859 0006 00000000 		.4byte	.Ldebug_info0
 3860 000a 04       		.byte	0x4
 3861 000b 00       		.byte	0
 3862 000c 0000     		.2byte	0
 3863 000e 0000     		.2byte	0
 3864 0010 00000000 		.4byte	.LFB290
 3865 0014 0A000000 		.4byte	.LFE290-.LFB290
 3866 0018 00000000 		.4byte	.LFB291
 3867 001c 04000000 		.4byte	.LFE291-.LFB291
 3868 0020 00000000 		.4byte	.LFB292
 3869 0024 04000000 		.4byte	.LFE292-.LFB292
 3870 0028 00000000 		.4byte	.LFB293
 3871 002c 04000000 		.4byte	.LFE293-.LFB293
 3872 0030 00000000 		.4byte	.LFB294
 3873 0034 18000000 		.4byte	.LFE294-.LFB294
 3874 0038 00000000 		.4byte	.LFB295
 3875 003c 18000000 		.4byte	.LFE295-.LFB295
 3876 0040 00000000 		.4byte	.LFB296
ARM GAS  /tmp/ccNeVBbf.s 			page 69


 3877 0044 04000000 		.4byte	.LFE296-.LFB296
 3878 0048 00000000 		.4byte	.LFB297
 3879 004c 04000000 		.4byte	.LFE297-.LFB297
 3880 0050 00000000 		.4byte	.LFB298
 3881 0054 02000000 		.4byte	.LFE298-.LFB298
 3882 0058 00000000 		.4byte	.LFB299
 3883 005c 02000000 		.4byte	.LFE299-.LFB299
 3884 0060 00000000 		.4byte	.LFB300
 3885 0064 06000000 		.4byte	.LFE300-.LFB300
 3886 0068 00000000 		.4byte	0
 3887 006c 00000000 		.4byte	0
 3888              		.section	.debug_ranges,"",%progbits
 3889              	.Ldebug_ranges0:
 3890 0000 02000000 		.4byte	.LBB4
 3891 0004 04000000 		.4byte	.LBE4
 3892 0008 06000000 		.4byte	.LBB7
 3893 000c 0C000000 		.4byte	.LBE7
 3894 0010 00000000 		.4byte	0
 3895 0014 00000000 		.4byte	0
 3896 0018 00000000 		.4byte	.LFB290
 3897 001c 0A000000 		.4byte	.LFE290
 3898 0020 00000000 		.4byte	.LFB291
 3899 0024 04000000 		.4byte	.LFE291
 3900 0028 00000000 		.4byte	.LFB292
 3901 002c 04000000 		.4byte	.LFE292
 3902 0030 00000000 		.4byte	.LFB293
 3903 0034 04000000 		.4byte	.LFE293
 3904 0038 00000000 		.4byte	.LFB294
 3905 003c 18000000 		.4byte	.LFE294
 3906 0040 00000000 		.4byte	.LFB295
 3907 0044 18000000 		.4byte	.LFE295
 3908 0048 00000000 		.4byte	.LFB296
 3909 004c 04000000 		.4byte	.LFE296
 3910 0050 00000000 		.4byte	.LFB297
 3911 0054 04000000 		.4byte	.LFE297
 3912 0058 00000000 		.4byte	.LFB298
 3913 005c 02000000 		.4byte	.LFE298
 3914 0060 00000000 		.4byte	.LFB299
 3915 0064 02000000 		.4byte	.LFE299
 3916 0068 00000000 		.4byte	.LFB300
 3917 006c 06000000 		.4byte	.LFE300
 3918 0070 00000000 		.4byte	0
 3919 0074 00000000 		.4byte	0
 3920              		.section	.debug_line,"",%progbits
 3921              	.Ldebug_line0:
 3922 0000 8A030000 		.section	.debug_str,"MS",%progbits,1
 3922      0200AF02 
 3922      00000201 
 3922      FB0E0D00 
 3922      01010101 
 3923              	.LASF245:
 3924 0000 6D656D6F 		.ascii	"memory_heap\000"
 3924      72795F68 
 3924      65617000 
 3925              	.LASF13:
 3926 000c 73697A65 		.ascii	"size_t\000"
 3926      5F7400
ARM GAS  /tmp/ccNeVBbf.s 			page 70


 3927              	.LASF23:
 3928 0013 73697A65 		.ascii	"sizetype\000"
 3928      74797065 
 3928      00
 3929              	.LASF25:
 3930 001c 5F5F7661 		.ascii	"__value\000"
 3930      6C756500 
 3931              	.LASF212:
 3932 0024 73797374 		.ascii	"systime_t\000"
 3932      696D655F 
 3932      7400
 3933              	.LASF108:
 3934 002e 5F5F7366 		.ascii	"__sf\000"
 3934      00
 3935              	.LASF240:
 3936 0033 6F776E65 		.ascii	"owner\000"
 3936      7200
 3937              	.LASF75:
 3938 0039 5F726561 		.ascii	"_read\000"
 3938      6400
 3939              	.LASF162:
 3940 003f 74707269 		.ascii	"tprio_t\000"
 3940      6F5F7400 
 3941              	.LASF155:
 3942 0047 73745F62 		.ascii	"st_blocks\000"
 3942      6C6F636B 
 3942      7300
 3943              	.LASF246:
 3944 0051 70726F76 		.ascii	"provider\000"
 3944      69646572 
 3944      00
 3945              	.LASF76:
 3946 005a 5F777269 		.ascii	"_write\000"
 3946      746500
 3947              	.LASF29:
 3948 0061 696E7433 		.ascii	"int32_t\000"
 3948      325F7400 
 3949              	.LASF119:
 3950 0069 5F617363 		.ascii	"_asctime_buf\000"
 3950      74696D65 
 3950      5F627566 
 3950      00
 3951              	.LASF102:
 3952 0076 5F637674 		.ascii	"_cvtlen\000"
 3952      6C656E00 
 3953              	.LASF195:
 3954 007e 76746675 		.ascii	"vtfunc_t\000"
 3954      6E635F74 
 3954      00
 3955              	.LASF270:
 3956 0087 5F5F6675 		.ascii	"__func__\000"
 3956      6E635F5F 
 3956      00
 3957              	.LASF201:
 3958 0090 63685F76 		.ascii	"ch_virtual_timers_list\000"
 3958      69727475 
 3958      616C5F74 
ARM GAS  /tmp/ccNeVBbf.s 			page 71


 3958      696D6572 
 3958      735F6C69 
 3959              	.LASF37:
 3960 00a7 6465765F 		.ascii	"dev_t\000"
 3960      7400
 3961              	.LASF42:
 3962 00ad 6E6C696E 		.ascii	"nlink_t\000"
 3962      6B5F7400 
 3963              	.LASF18:
 3964 00b5 5F5F6769 		.ascii	"__gid_t\000"
 3964      645F7400 
 3965              	.LASF138:
 3966 00bd 5F756E75 		.ascii	"_unused\000"
 3966      73656400 
 3967              	.LASF49:
 3968 00c5 5F5F746D 		.ascii	"__tm\000"
 3968      00
 3969              	.LASF134:
 3970 00ca 5F776373 		.ascii	"_wcsrtombs_state\000"
 3970      72746F6D 
 3970      62735F73 
 3970      74617465 
 3970      00
 3971              	.LASF80:
 3972 00db 5F6E6275 		.ascii	"_nbuf\000"
 3972      6600
 3973              	.LASF50:
 3974 00e1 5F5F746D 		.ascii	"__tm_sec\000"
 3974      5F736563 
 3974      00
 3975              	.LASF127:
 3976 00ea 5F6C3634 		.ascii	"_l64a_buf\000"
 3976      615F6275 
 3976      6600
 3977              	.LASF32:
 3978 00f4 74696D65 		.ascii	"time_t\000"
 3978      5F7400
 3979              	.LASF175:
 3980 00fb 73746174 		.ascii	"state\000"
 3980      6500
 3981              	.LASF84:
 3982 0101 5F6C6F63 		.ascii	"_lock\000"
 3982      6B00
 3983              	.LASF184:
 3984 0107 73746174 		.ascii	"stats\000"
 3984      7300
 3985              	.LASF115:
 3986 010d 5F6D756C 		.ascii	"_mult\000"
 3986      7400
 3987              	.LASF224:
 3988 0113 74696D65 		.ascii	"time_measurement_t\000"
 3988      5F6D6561 
 3988      73757265 
 3988      6D656E74 
 3988      5F7400
 3989              	.LASF170:
 3990 0126 7072696F 		.ascii	"prio\000"
ARM GAS  /tmp/ccNeVBbf.s 			page 72


 3990      00
 3991              	.LASF21:
 3992 012b 5F5F7763 		.ascii	"__wch\000"
 3992      6800
 3993              	.LASF231:
 3994 0131 65786974 		.ascii	"exitcode\000"
 3994      636F6465 
 3994      00
 3995              	.LASF4:
 3996 013a 5F5F7569 		.ascii	"__uint8_t\000"
 3996      6E74385F 
 3996      7400
 3997              	.LASF16:
 3998 0144 5F5F6465 		.ascii	"__dev_t\000"
 3998      765F7400 
 3999              	.LASF38:
 4000 014c 7569645F 		.ascii	"uid_t\000"
 4000      7400
 4001              	.LASF72:
 4002 0152 5F66696C 		.ascii	"_file\000"
 4002      6500
 4003              	.LASF59:
 4004 0158 5F6F6E5F 		.ascii	"_on_exit_args\000"
 4004      65786974 
 4004      5F617267 
 4004      7300
 4005              	.LASF130:
 4006 0166 5F6D6272 		.ascii	"_mbrlen_state\000"
 4006      6C656E5F 
 4006      73746174 
 4006      6500
 4007              	.LASF6:
 4008 0174 6C6F6E67 		.ascii	"long int\000"
 4008      20696E74 
 4008      00
 4009              	.LASF244:
 4010 017d 6D656D6F 		.ascii	"memory_heap_t\000"
 4010      72795F68 
 4010      6561705F 
 4010      7400
 4011              	.LASF99:
 4012 018b 5F726573 		.ascii	"_result_k\000"
 4012      756C745F 
 4012      6B00
 4013              	.LASF69:
 4014 0195 5F73697A 		.ascii	"_size\000"
 4014      6500
 4015              	.LASF120:
 4016 019b 5F6C6F63 		.ascii	"_localtime_buf\000"
 4016      616C7469 
 4016      6D655F62 
 4016      756600
 4017              	.LASF160:
 4018 01aa 74737461 		.ascii	"tstate_t\000"
 4018      74655F74 
 4018      00
 4019              	.LASF158:
ARM GAS  /tmp/ccNeVBbf.s 			page 73


 4020 01b3 72747469 		.ascii	"rttime_t\000"
 4020      6D655F74 
 4020      00
 4021              	.LASF189:
 4022 01bc 74687265 		.ascii	"threads_queue_t\000"
 4022      6164735F 
 4022      71756575 
 4022      655F7400 
 4023              	.LASF214:
 4024 01cc 72656761 		.ascii	"regarm_t\000"
 4024      726D5F74 
 4024      00
 4025              	.LASF54:
 4026 01d5 5F5F746D 		.ascii	"__tm_mon\000"
 4026      5F6D6F6E 
 4026      00
 4027              	.LASF252:
 4028 01de 68656170 		.ascii	"heap\000"
 4028      00
 4029              	.LASF94:
 4030 01e3 5F637572 		.ascii	"_current_category\000"
 4030      72656E74 
 4030      5F636174 
 4030      65676F72 
 4030      7900
 4031              	.LASF273:
 4032 01f5 5F66696E 		.ascii	"_fini\000"
 4032      6900
 4033              	.LASF260:
 4034 01fb 5F697361 		.ascii	"_isatty\000"
 4034      74747900 
 4035              	.LASF117:
 4036 0203 5F756E75 		.ascii	"_unused_rand\000"
 4036      7365645F 
 4036      72616E64 
 4036      00
 4037              	.LASF0:
 4038 0210 7369676E 		.ascii	"signed char\000"
 4038      65642063 
 4038      68617200 
 4039              	.LASF237:
 4040 021c 65776D61 		.ascii	"ewmask\000"
 4040      736B00
 4041              	.LASF28:
 4042 0223 75696E74 		.ascii	"uint8_t\000"
 4042      385F7400 
 4043              	.LASF149:
 4044 022b 73745F73 		.ascii	"st_spare1\000"
 4044      70617265 
 4044      3100
 4045              	.LASF144:
 4046 0235 73745F75 		.ascii	"st_uid\000"
 4046      696400
 4047              	.LASF153:
 4048 023c 73745F73 		.ascii	"st_spare3\000"
 4048      70617265 
 4048      3300
ARM GAS  /tmp/ccNeVBbf.s 			page 74


 4049              	.LASF156:
 4050 0246 73745F73 		.ascii	"st_spare4\000"
 4050      70617265 
 4050      3400
 4051              	.LASF164:
 4052 0250 6576656E 		.ascii	"eventmask_t\000"
 4052      746D6173 
 4052      6B5F7400 
 4053              	.LASF233:
 4054 025c 77747472 		.ascii	"wttrp\000"
 4054      7000
 4055              	.LASF1:
 4056 0262 756E7369 		.ascii	"unsigned char\000"
 4056      676E6564 
 4056      20636861 
 4056      7200
 4057              	.LASF202:
 4058 0270 6C617374 		.ascii	"lasttime\000"
 4058      74696D65 
 4058      00
 4059              	.LASF146:
 4060 0279 73745F72 		.ascii	"st_rdev\000"
 4060      64657600 
 4061              	.LASF271:
 4062 0281 5F676574 		.ascii	"_getpid\000"
 4062      70696400 
 4063              	.LASF205:
 4064 0289 70616E69 		.ascii	"panic_msg\000"
 4064      635F6D73 
 4064      6700
 4065              	.LASF87:
 4066 0293 5F726565 		.ascii	"_reent\000"
 4066      6E7400
 4067              	.LASF203:
 4068 029a 73797374 		.ascii	"system_debug_t\000"
 4068      656D5F64 
 4068      65627567 
 4068      5F7400
 4069              	.LASF247:
 4070 02a9 68656164 		.ascii	"header\000"
 4070      657200
 4071              	.LASF242:
 4072 02b0 5F426F6F 		.ascii	"_Bool\000"
 4072      6C00
 4073              	.LASF34:
 4074 02b6 63686172 		.ascii	"char\000"
 4074      00
 4075              	.LASF275:
 4076 02bb 6D656D73 		.ascii	"memset\000"
 4076      657400
 4077              	.LASF66:
 4078 02c2 5F666E73 		.ascii	"_fns\000"
 4078      00
 4079              	.LASF78:
 4080 02c7 5F636C6F 		.ascii	"_close\000"
 4080      736500
 4081              	.LASF232:
ARM GAS  /tmp/ccNeVBbf.s 			page 75


 4082 02ce 77746F62 		.ascii	"wtobjp\000"
 4082      6A7000
 4083              	.LASF226:
 4084 02d5 6E5F6374 		.ascii	"n_ctxswc\000"
 4084      78737763 
 4084      00
 4085              	.LASF89:
 4086 02de 5F737464 		.ascii	"_stdin\000"
 4086      696E00
 4087              	.LASF176:
 4088 02e5 666C6167 		.ascii	"flags\000"
 4088      7300
 4089              	.LASF215:
 4090 02eb 73746B61 		.ascii	"stkalign_t\000"
 4090      6C69676E 
 4090      5F7400
 4091              	.LASF183:
 4092 02f6 6D706F6F 		.ascii	"mpool\000"
 4092      6C00
 4093              	.LASF221:
 4094 02fc 776F7273 		.ascii	"worst\000"
 4094      7400
 4095              	.LASF161:
 4096 0302 74726566 		.ascii	"trefs_t\000"
 4096      735F7400 
 4097              	.LASF152:
 4098 030a 73745F63 		.ascii	"st_ctime\000"
 4098      74696D65 
 4098      00
 4099              	.LASF255:
 4100 0313 66696C65 		.ascii	"file\000"
 4100      00
 4101              	.LASF251:
 4102 0318 70616765 		.ascii	"pages\000"
 4102      7300
 4103              	.LASF165:
 4104 031e 636E745F 		.ascii	"cnt_t\000"
 4104      7400
 4105              	.LASF269:
 4106 0324 63684865 		.ascii	"chHeapAlloc\000"
 4106      6170416C 
 4106      6C6F6300 
 4107              	.LASF74:
 4108 0330 5F636F6F 		.ascii	"_cookie\000"
 4108      6B696500 
 4109              	.LASF236:
 4110 0338 77746D74 		.ascii	"wtmtxp\000"
 4110      787000
 4111              	.LASF47:
 4112 033f 5F776473 		.ascii	"_wds\000"
 4112      00
 4113              	.LASF267:
 4114 0344 2F686F6D 		.ascii	"/home/kozinalexey/f4by/ardupilot/build/F4BY\000"
 4114      652F6B6F 
 4114      7A696E61 
 4114      6C657865 
 4114      792F6634 
ARM GAS  /tmp/ccNeVBbf.s 			page 76


 4115              	.LASF193:
 4116 0370 63685F72 		.ascii	"ch_ready_list\000"
 4116      65616479 
 4116      5F6C6973 
 4116      7400
 4117              	.LASF106:
 4118 037e 5F736967 		.ascii	"_sig_func\000"
 4118      5F66756E 
 4118      6300
 4119              	.LASF82:
 4120 0388 5F6F6666 		.ascii	"_offset\000"
 4120      73657400 
 4121              	.LASF103:
 4122 0390 5F637674 		.ascii	"_cvtbuf\000"
 4122      62756600 
 4123              	.LASF145:
 4124 0398 73745F67 		.ascii	"st_gid\000"
 4124      696400
 4125              	.LASF223:
 4126 039f 63756D75 		.ascii	"cumulative\000"
 4126      6C617469 
 4126      766500
 4127              	.LASF227:
 4128 03aa 6D5F6372 		.ascii	"m_crit_thd\000"
 4128      69745F74 
 4128      686400
 4129              	.LASF10:
 4130 03b5 5F5F7569 		.ascii	"__uint64_t\000"
 4130      6E743634 
 4130      5F7400
 4131              	.LASF35:
 4132 03c0 696E6F5F 		.ascii	"ino_t\000"
 4132      7400
 4133              	.LASF100:
 4134 03c6 5F703573 		.ascii	"_p5s\000"
 4134      00
 4135              	.LASF8:
 4136 03cb 6C6F6E67 		.ascii	"long unsigned int\000"
 4136      20756E73 
 4136      69676E65 
 4136      6420696E 
 4136      7400
 4137              	.LASF70:
 4138 03dd 5F5F7346 		.ascii	"__sFILE\000"
 4138      494C4500 
 4139              	.LASF96:
 4140 03e5 5F5F7364 		.ascii	"__sdidinit\000"
 4140      6964696E 
 4140      697400
 4141              	.LASF86:
 4142 03f0 5F666C61 		.ascii	"_flags2\000"
 4142      67733200 
 4143              	.LASF147:
 4144 03f8 73745F73 		.ascii	"st_size\000"
 4144      697A6500 
 4145              	.LASF238:
 4146 0400 63685F73 		.ascii	"ch_semaphore\000"
ARM GAS  /tmp/ccNeVBbf.s 			page 77


 4146      656D6170 
 4146      686F7265 
 4146      00
 4147              	.LASF168:
 4148 040d 63685F74 		.ascii	"ch_thread\000"
 4148      68726561 
 4148      6400
 4149              	.LASF200:
 4150 0417 76697274 		.ascii	"virtual_timers_list_t\000"
 4150      75616C5F 
 4150      74696D65 
 4150      72735F6C 
 4150      6973745F 
 4151              	.LASF14:
 4152 042d 5F4C4F43 		.ascii	"_LOCK_RECURSIVE_T\000"
 4152      4B5F5245 
 4152      43555253 
 4152      4956455F 
 4152      5400
 4153              	.LASF88:
 4154 043f 5F657272 		.ascii	"_errno\000"
 4154      6E6F00
 4155              	.LASF196:
 4156 0446 76697274 		.ascii	"virtual_timer_t\000"
 4156      75616C5F 
 4156      74696D65 
 4156      725F7400 
 4157              	.LASF192:
 4158 0456 72656164 		.ascii	"ready_list_t\000"
 4158      795F6C69 
 4158      73745F74 
 4158      00
 4159              	.LASF172:
 4160 0463 6F6C6465 		.ascii	"older\000"
 4160      7200
 4161              	.LASF151:
 4162 0469 73745F73 		.ascii	"st_spare2\000"
 4162      70617265 
 4162      3200
 4163              	.LASF128:
 4164 0473 5F736967 		.ascii	"_signal_buf\000"
 4164      6E616C5F 
 4164      62756600 
 4165              	.LASF182:
 4166 047f 7265616C 		.ascii	"realprio\000"
 4166      7072696F 
 4166      00
 4167              	.LASF166:
 4168 0488 75636E74 		.ascii	"ucnt_t\000"
 4168      5F7400
 4169              	.LASF48:
 4170 048f 5F426967 		.ascii	"_Bigint\000"
 4170      696E7400 
 4171              	.LASF187:
 4172 0497 63685F74 		.ascii	"ch_threads_list\000"
 4172      68726561 
 4172      64735F6C 
ARM GAS  /tmp/ccNeVBbf.s 			page 78


 4172      69737400 
 4173              	.LASF45:
 4174 04a7 5F6D6178 		.ascii	"_maxwds\000"
 4174      77647300 
 4175              	.LASF225:
 4176 04af 6E5F6972 		.ascii	"n_irq\000"
 4176      7100
 4177              	.LASF97:
 4178 04b5 5F5F636C 		.ascii	"__cleanup\000"
 4178      65616E75 
 4178      7000
 4179              	.LASF105:
 4180 04bf 5F617465 		.ascii	"_atexit0\000"
 4180      78697430 
 4180      00
 4181              	.LASF139:
 4182 04c8 73746174 		.ascii	"stat\000"
 4182      00
 4183              	.LASF154:
 4184 04cd 73745F62 		.ascii	"st_blksize\000"
 4184      6C6B7369 
 4184      7A6500
 4185              	.LASF257:
 4186 04d8 5F736272 		.ascii	"_sbrk\000"
 4186      6B00
 4187              	.LASF248:
 4188 04de 68656170 		.ascii	"heap_header_t\000"
 4188      5F686561 
 4188      6465725F 
 4188      7400
 4189              	.LASF7:
 4190 04ec 5F5F7569 		.ascii	"__uint32_t\000"
 4190      6E743332 
 4190      5F7400
 4191              	.LASF93:
 4192 04f7 5F656D65 		.ascii	"_emergency\000"
 4192      7267656E 
 4192      637900
 4193              	.LASF181:
 4194 0502 6D74786C 		.ascii	"mtxlist\000"
 4194      69737400 
 4195              	.LASF9:
 4196 050a 6C6F6E67 		.ascii	"long long int\000"
 4196      206C6F6E 
 4196      6720696E 
 4196      7400
 4197              	.LASF213:
 4198 0518 73797369 		.ascii	"sysinterval_t\000"
 4198      6E746572 
 4198      76616C5F 
 4198      7400
 4199              	.LASF111:
 4200 0526 5F6E696F 		.ascii	"_niobs\000"
 4200      627300
 4201              	.LASF107:
 4202 052d 5F5F7367 		.ascii	"__sglue\000"
 4202      6C756500 
ARM GAS  /tmp/ccNeVBbf.s 			page 79


 4203              	.LASF137:
 4204 0535 5F6E6D61 		.ascii	"_nmalloc\000"
 4204      6C6C6F63 
 4204      00
 4205              	.LASF121:
 4206 053e 5F67616D 		.ascii	"_gamma_signgam\000"
 4206      6D615F73 
 4206      69676E67 
 4206      616D00
 4207              	.LASF95:
 4208 054d 5F637572 		.ascii	"_current_locale\000"
 4208      72656E74 
 4208      5F6C6F63 
 4208      616C6500 
 4209              	.LASF101:
 4210 055d 5F667265 		.ascii	"_freelist\000"
 4210      656C6973 
 4210      7400
 4211              	.LASF112:
 4212 0567 5F696F62 		.ascii	"_iobs\000"
 4212      7300
 4213              	.LASF110:
 4214 056d 5F676C75 		.ascii	"_glue\000"
 4214      6500
 4215              	.LASF263:
 4216 0573 49544D5F 		.ascii	"ITM_RxBuffer\000"
 4216      52784275 
 4216      66666572 
 4216      00
 4217              	.LASF46:
 4218 0580 5F736967 		.ascii	"_sign\000"
 4218      6E00
 4219              	.LASF268:
 4220 0586 68656170 		.ascii	"heap_header\000"
 4220      5F686561 
 4220      64657200 
 4221              	.LASF272:
 4222 0592 5F657869 		.ascii	"_exit\000"
 4222      7400
 4223              	.LASF228:
 4224 0598 6D5F6372 		.ascii	"m_crit_isr\000"
 4224      69745F69 
 4224      737200
 4225              	.LASF12:
 4226 05a3 756E7369 		.ascii	"unsigned int\000"
 4226      676E6564 
 4226      20696E74 
 4226      00
 4227              	.LASF33:
 4228 05b0 63616464 		.ascii	"caddr_t\000"
 4228      725F7400 
 4229              	.LASF157:
 4230 05b8 7274636E 		.ascii	"rtcnt_t\000"
 4230      745F7400 
 4231              	.LASF177:
 4232 05c0 72656673 		.ascii	"refs\000"
 4232      00
ARM GAS  /tmp/ccNeVBbf.s 			page 80


 4233              	.LASF135:
 4234 05c5 5F685F65 		.ascii	"_h_errno\000"
 4234      72726E6F 
 4234      00
 4235              	.LASF258:
 4236 05ce 696E6372 		.ascii	"incr\000"
 4236      00
 4237              	.LASF266:
 4238 05d3 2E2E2F2E 		.ascii	"../../libraries/AP_HAL_ChibiOS/hwdef/common/stubs.c"
 4238      2E2F6C69 
 4238      62726172 
 4238      6965732F 
 4238      41505F48 
 4239 0606 00       		.ascii	"\000"
 4240              	.LASF40:
 4241 0607 7069645F 		.ascii	"pid_t\000"
 4241      7400
 4242              	.LASF53:
 4243 060d 5F5F746D 		.ascii	"__tm_mday\000"
 4243      5F6D6461 
 4243      7900
 4244              	.LASF229:
 4245 0617 6B65726E 		.ascii	"kernel_stats_t\000"
 4245      656C5F73 
 4245      74617473 
 4245      5F7400
 4246              	.LASF104:
 4247 0626 5F6E6577 		.ascii	"_new\000"
 4247      00
 4248              	.LASF79:
 4249 062b 5F756275 		.ascii	"_ubuf\000"
 4249      6600
 4250              	.LASF91:
 4251 0631 5F737464 		.ascii	"_stderr\000"
 4251      65727200 
 4252              	.LASF126:
 4253 0639 5F776374 		.ascii	"_wctomb_state\000"
 4253      6F6D625F 
 4253      73746174 
 4253      6500
 4254              	.LASF85:
 4255 0647 5F6D6273 		.ascii	"_mbstate\000"
 4255      74617465 
 4255      00
 4256              	.LASF194:
 4257 0650 63757272 		.ascii	"current\000"
 4257      656E7400 
 4258              	.LASF122:
 4259 0658 5F72616E 		.ascii	"_rand_next\000"
 4259      645F6E65 
 4259      787400
 4260              	.LASF71:
 4261 0663 5F666C61 		.ascii	"_flags\000"
 4261      677300
 4262              	.LASF218:
 4263 066a 6F666673 		.ascii	"offset\000"
 4263      657400
ARM GAS  /tmp/ccNeVBbf.s 			page 81


 4264              	.LASF185:
 4265 0671 74687265 		.ascii	"thread_reference_t\000"
 4265      61645F72 
 4265      65666572 
 4265      656E6365 
 4265      5F7400
 4266              	.LASF64:
 4267 0684 5F617465 		.ascii	"_atexit\000"
 4267      78697400 
 4268              	.LASF24:
 4269 068c 5F5F636F 		.ascii	"__count\000"
 4269      756E7400 
 4270              	.LASF143:
 4271 0694 73745F6E 		.ascii	"st_nlink\000"
 4271      6C696E6B 
 4271      00
 4272              	.LASF36:
 4273 069d 6F66665F 		.ascii	"off_t\000"
 4273      7400
 4274              	.LASF243:
 4275 06a3 6D656D67 		.ascii	"memgetfunc2_t\000"
 4275      65746675 
 4275      6E63325F 
 4275      7400
 4276              	.LASF41:
 4277 06b1 6D6F6465 		.ascii	"mode_t\000"
 4277      5F7400
 4278              	.LASF250:
 4279 06b8 75736564 		.ascii	"used\000"
 4279      00
 4280              	.LASF264:
 4281 06bd 5F626566 		.ascii	"_before_main\000"
 4281      6F72655F 
 4281      6D61696E 
 4281      00
 4282              	.LASF56:
 4283 06ca 5F5F746D 		.ascii	"__tm_wday\000"
 4283      5F776461 
 4283      7900
 4284              	.LASF167:
 4285 06d4 74687265 		.ascii	"thread_t\000"
 4285      61645F74 
 4285      00
 4286              	.LASF148:
 4287 06dd 73745F61 		.ascii	"st_atime\000"
 4287      74696D65 
 4287      00
 4288              	.LASF57:
 4289 06e6 5F5F746D 		.ascii	"__tm_yday\000"
 4289      5F796461 
 4289      7900
 4290              	.LASF234:
 4291 06f0 73656E74 		.ascii	"sentmsg\000"
 4291      6D736700 
 4292              	.LASF217:
 4293 06f8 706F7274 		.ascii	"port_intctx\000"
 4293      5F696E74 
ARM GAS  /tmp/ccNeVBbf.s 			page 82


 4293      63747800 
 4294              	.LASF262:
 4295 0704 5F6B696C 		.ascii	"_kill\000"
 4295      6C00
 4296              	.LASF114:
 4297 070a 5F736565 		.ascii	"_seed\000"
 4297      6400
 4298              	.LASF77:
 4299 0710 5F736565 		.ascii	"_seek\000"
 4299      6B00
 4300              	.LASF140:
 4301 0716 73745F64 		.ascii	"st_dev\000"
 4301      657600
 4302              	.LASF19:
 4303 071d 5F66706F 		.ascii	"_fpos_t\000"
 4303      735F7400 
 4304              	.LASF22:
 4305 0725 5F5F7763 		.ascii	"__wchb\000"
 4305      686200
 4306              	.LASF197:
 4307 072c 63685F76 		.ascii	"ch_virtual_timer\000"
 4307      69727475 
 4307      616C5F74 
 4307      696D6572 
 4307      00
 4308              	.LASF125:
 4309 073d 5F6D6274 		.ascii	"_mbtowc_state\000"
 4309      6F77635F 
 4309      73746174 
 4309      6500
 4310              	.LASF211:
 4311 074b 6B65726E 		.ascii	"kernel_stats\000"
 4311      656C5F73 
 4311      74617473 
 4311      00
 4312              	.LASF253:
 4313 0758 73697A65 		.ascii	"size\000"
 4313      00
 4314              	.LASF11:
 4315 075d 6C6F6E67 		.ascii	"long long unsigned int\000"
 4315      206C6F6E 
 4315      6720756E 
 4315      7369676E 
 4315      65642069 
 4316              	.LASF265:
 4317 0774 474E5520 		.ascii	"GNU C 4.9.3 20150529 (prerelease) -mcpu=cortex-m4 -"
 4317      4320342E 
 4317      392E3320 
 4317      32303135 
 4317      30353239 
 4318 07a7 6D666C6F 		.ascii	"mfloat-abi=hard -mfpu=fpv4-sp-d16 -mno-thumb-interw"
 4318      61742D61 
 4318      62693D68 
 4318      61726420 
 4318      2D6D6670 
 4319 07da 6F726B20 		.ascii	"ork -mthumb -g -Os -fomit-frame-pointer -falign-fun"
 4319      2D6D7468 
ARM GAS  /tmp/ccNeVBbf.s 			page 83


 4319      756D6220 
 4319      2D67202D 
 4319      4F73202D 
 4320 080d 6374696F 		.ascii	"ctions=16 -ffunction-sections -fdata-sections -fno-"
 4320      6E733D31 
 4320      36202D66 
 4320      66756E63 
 4320      74696F6E 
 4321 0840 636F6D6D 		.ascii	"common -fsingle-precision-constant\000"
 4321      6F6E202D 
 4321      6673696E 
 4321      676C652D 
 4321      70726563 
 4322              	.LASF61:
 4323 0863 5F64736F 		.ascii	"_dso_handle\000"
 4323      5F68616E 
 4323      646C6500 
 4324              	.LASF163:
 4325 086f 6D73675F 		.ascii	"msg_t\000"
 4325      7400
 4326              	.LASF190:
 4327 0875 63685F74 		.ascii	"ch_threads_queue\000"
 4327      68726561 
 4327      64735F71 
 4327      75657565 
 4327      00
 4328              	.LASF113:
 4329 0886 5F72616E 		.ascii	"_rand48\000"
 4329      64343800 
 4330              	.LASF90:
 4331 088e 5F737464 		.ascii	"_stdout\000"
 4331      6F757400 
 4332              	.LASF198:
 4333 0896 64656C74 		.ascii	"delta\000"
 4333      6100
 4334              	.LASF81:
 4335 089c 5F626C6B 		.ascii	"_blksize\000"
 4335      73697A65 
 4335      00
 4336              	.LASF68:
 4337 08a5 5F626173 		.ascii	"_base\000"
 4337      6500
 4338              	.LASF169:
 4339 08ab 71756575 		.ascii	"queue\000"
 4339      6500
 4340              	.LASF180:
 4341 08b1 6570656E 		.ascii	"epending\000"
 4341      64696E67 
 4341      00
 4342              	.LASF118:
 4343 08ba 5F737472 		.ascii	"_strtok_last\000"
 4343      746F6B5F 
 4343      6C617374 
 4343      00
 4344              	.LASF131:
 4345 08c7 5F6D6272 		.ascii	"_mbrtowc_state\000"
 4345      746F7763 
ARM GAS  /tmp/ccNeVBbf.s 			page 84


 4345      5F737461 
 4345      746500
 4346              	.LASF210:
 4347 08d6 6D61696E 		.ascii	"mainthread\000"
 4347      74687265 
 4347      616400
 4348              	.LASF27:
 4349 08e1 5F666C6F 		.ascii	"_flock_t\000"
 4349      636B5F74 
 4349      00
 4350              	.LASF109:
 4351 08ea 5F5F4649 		.ascii	"__FILE\000"
 4351      4C4500
 4352              	.LASF220:
 4353 08f1 62657374 		.ascii	"best\000"
 4353      00
 4354              	.LASF26:
 4355 08f6 5F6D6273 		.ascii	"_mbstate_t\000"
 4355      74617465 
 4355      5F7400
 4356              	.LASF254:
 4357 0901 68656170 		.ascii	"heapp\000"
 4357      7000
 4358              	.LASF123:
 4359 0907 5F723438 		.ascii	"_r48\000"
 4359      00
 4360              	.LASF174:
 4361 090c 77616261 		.ascii	"wabase\000"
 4361      736500
 4362              	.LASF20:
 4363 0913 77696E74 		.ascii	"wint_t\000"
 4363      5F7400
 4364              	.LASF44:
 4365 091a 5F6E6578 		.ascii	"_next\000"
 4365      7400
 4366              	.LASF83:
 4367 0920 5F646174 		.ascii	"_data\000"
 4367      6100
 4368              	.LASF259:
 4369 0926 5F667374 		.ascii	"_fstat\000"
 4369      617400
 4370              	.LASF208:
 4371 092d 726C6973 		.ascii	"rlist\000"
 4371      7400
 4372              	.LASF159:
 4373 0933 746D6F64 		.ascii	"tmode_t\000"
 4373      655F7400 
 4374              	.LASF150:
 4375 093b 73745F6D 		.ascii	"st_mtime\000"
 4375      74696D65 
 4375      00
 4376              	.LASF219:
 4377 0944 746D5F63 		.ascii	"tm_calibration_t\000"
 4377      616C6962 
 4377      72617469 
 4377      6F6E5F74 
 4377      00
ARM GAS  /tmp/ccNeVBbf.s 			page 85


 4378              	.LASF173:
 4379 0955 6E616D65 		.ascii	"name\000"
 4379      00
 4380              	.LASF274:
 4381 095a 63684865 		.ascii	"chHeapAllocAligned\000"
 4381      6170416C 
 4381      6C6F6341 
 4381      6C69676E 
 4381      656400
 4382              	.LASF124:
 4383 096d 5F6D626C 		.ascii	"_mblen_state\000"
 4383      656E5F73 
 4383      74617465 
 4383      00
 4384              	.LASF2:
 4385 097a 73686F72 		.ascii	"short int\000"
 4385      7420696E 
 4385      7400
 4386              	.LASF31:
 4387 0984 75696E74 		.ascii	"uint64_t\000"
 4387      36345F74 
 4387      00
 4388              	.LASF199:
 4389 098d 66756E63 		.ascii	"func\000"
 4389      00
 4390              	.LASF239:
 4391 0992 63685F6D 		.ascii	"ch_mutex\000"
 4391      75746578 
 4391      00
 4392              	.LASF179:
 4393 099b 6D736771 		.ascii	"msgqueue\000"
 4393      75657565 
 4393      00
 4394              	.LASF62:
 4395 09a4 5F666E74 		.ascii	"_fntypes\000"
 4395      79706573 
 4395      00
 4396              	.LASF204:
 4397 09ad 63685F73 		.ascii	"ch_system_debug\000"
 4397      79737465 
 4397      6D5F6465 
 4397      62756700 
 4398              	.LASF55:
 4399 09bd 5F5F746D 		.ascii	"__tm_year\000"
 4399      5F796561 
 4399      7200
 4400              	.LASF73:
 4401 09c7 5F6C6266 		.ascii	"_lbfsize\000"
 4401      73697A65 
 4401      00
 4402              	.LASF209:
 4403 09d0 76746C69 		.ascii	"vtlist\000"
 4403      737400
 4404              	.LASF92:
 4405 09d7 5F696E63 		.ascii	"_inc\000"
 4405      00
 4406              	.LASF65:
ARM GAS  /tmp/ccNeVBbf.s 			page 86


 4407 09dc 5F696E64 		.ascii	"_ind\000"
 4407      00
 4408              	.LASF178:
 4409 09e1 77616974 		.ascii	"waiting\000"
 4409      696E6700 
 4410              	.LASF67:
 4411 09e9 5F5F7362 		.ascii	"__sbuf\000"
 4411      756600
 4412              	.LASF63:
 4413 09f0 5F69735F 		.ascii	"_is_cxa\000"
 4413      63786100 
 4414              	.LASF241:
 4415 09f8 6D757465 		.ascii	"mutex_t\000"
 4415      785F7400 
 4416              	.LASF142:
 4417 0a00 73745F6D 		.ascii	"st_mode\000"
 4417      6F646500 
 4418              	.LASF17:
 4419 0a08 5F5F7569 		.ascii	"__uid_t\000"
 4419      645F7400 
 4420              	.LASF136:
 4421 0a10 5F6E6578 		.ascii	"_nextf\000"
 4421      746600
 4422              	.LASF216:
 4423 0a17 706F7274 		.ascii	"port_context\000"
 4423      5F636F6E 
 4423      74657874 
 4423      00
 4424              	.LASF186:
 4425 0a24 74687265 		.ascii	"threads_list_t\000"
 4425      6164735F 
 4425      6C697374 
 4425      5F7400
 4426              	.LASF261:
 4427 0a33 73746174 		.ascii	"status\000"
 4427      757300
 4428              	.LASF207:
 4429 0a3a 63685F73 		.ascii	"ch_system\000"
 4429      79737465 
 4429      6D00
 4430              	.LASF43:
 4431 0a44 5F5F554C 		.ascii	"__ULong\000"
 4431      6F6E6700 
 4432              	.LASF171:
 4433 0a4c 6E657765 		.ascii	"newer\000"
 4433      7200
 4434              	.LASF30:
 4435 0a52 75696E74 		.ascii	"uint32_t\000"
 4435      33325F74 
 4435      00
 4436              	.LASF98:
 4437 0a5b 5F726573 		.ascii	"_result\000"
 4437      756C7400 
 4438              	.LASF15:
 4439 0a63 5F6F6666 		.ascii	"_off_t\000"
 4439      5F7400
 4440              	.LASF249:
ARM GAS  /tmp/ccNeVBbf.s 			page 87


 4441 0a6a 66726565 		.ascii	"free\000"
 4441      00
 4442              	.LASF230:
 4443 0a6f 7264796D 		.ascii	"rdymsg\000"
 4443      736700
 4444              	.LASF116:
 4445 0a76 5F616464 		.ascii	"_add\000"
 4445      00
 4446              	.LASF3:
 4447 0a7b 73686F72 		.ascii	"short unsigned int\000"
 4447      7420756E 
 4447      7369676E 
 4447      65642069 
 4447      6E7400
 4448              	.LASF52:
 4449 0a8e 5F5F746D 		.ascii	"__tm_hour\000"
 4449      5F686F75 
 4449      7200
 4450              	.LASF206:
 4451 0a98 63685F73 		.ascii	"ch_system_t\000"
 4451      79737465 
 4451      6D5F7400 
 4452              	.LASF132:
 4453 0aa4 5F6D6273 		.ascii	"_mbsrtowcs_state\000"
 4453      72746F77 
 4453      63735F73 
 4453      74617465 
 4453      00
 4454              	.LASF256:
 4455 0ab5 5F6C7365 		.ascii	"_lseek\000"
 4455      656B00
 4456              	.LASF191:
 4457 0abc 70726576 		.ascii	"prev\000"
 4457      00
 4458              	.LASF5:
 4459 0ac1 5F5F696E 		.ascii	"__int32_t\000"
 4459      7433325F 
 4459      7400
 4460              	.LASF141:
 4461 0acb 73745F69 		.ascii	"st_ino\000"
 4461      6E6F00
 4462              	.LASF60:
 4463 0ad2 5F666E61 		.ascii	"_fnargs\000"
 4463      72677300 
 4464              	.LASF133:
 4465 0ada 5F776372 		.ascii	"_wcrtomb_state\000"
 4465      746F6D62 
 4465      5F737461 
 4465      746500
 4466              	.LASF58:
 4467 0ae9 5F5F746D 		.ascii	"__tm_isdst\000"
 4467      5F697364 
 4467      737400
 4468              	.LASF188:
 4469 0af4 6E657874 		.ascii	"next\000"
 4469      00
 4470              	.LASF39:
ARM GAS  /tmp/ccNeVBbf.s 			page 88


 4471 0af9 6769645F 		.ascii	"gid_t\000"
 4471      7400
 4472              	.LASF51:
 4473 0aff 5F5F746D 		.ascii	"__tm_min\000"
 4473      5F6D696E 
 4473      00
 4474              	.LASF129:
 4475 0b08 5F676574 		.ascii	"_getdate_err\000"
 4475      64617465 
 4475      5F657272 
 4475      00
 4476              	.LASF235:
 4477 0b15 77747365 		.ascii	"wtsemp\000"
 4477      6D7000
 4478              	.LASF222:
 4479 0b1c 6C617374 		.ascii	"last\000"
 4479      00
 4480              		.ident	"GCC: (15:4.9.3+svn231177-1) 4.9.3 20150529 (prerelease)"
ARM GAS  /tmp/ccNeVBbf.s 			page 89


DEFINED SYMBOLS
                            *ABS*:0000000000000000 stubs.c
     /tmp/ccNeVBbf.s:21     .text._read:0000000000000000 $t
     /tmp/ccNeVBbf.s:26     .text._read:0000000000000000 _read
     /tmp/ccNeVBbf.s:47     .text._lseek:0000000000000000 $t
     /tmp/ccNeVBbf.s:52     .text._lseek:0000000000000000 _lseek
     /tmp/ccNeVBbf.s:68     .text._write:0000000000000000 $t
     /tmp/ccNeVBbf.s:73     .text._write:0000000000000000 _write
     /tmp/ccNeVBbf.s:89     .text._close:0000000000000000 $t
     /tmp/ccNeVBbf.s:94     .text._close:0000000000000000 _close
     /tmp/ccNeVBbf.s:110    .text._sbrk:0000000000000000 $t
     /tmp/ccNeVBbf.s:115    .text._sbrk:0000000000000000 _sbrk
     /tmp/ccNeVBbf.s:159    .text._fstat:0000000000000000 $t
     /tmp/ccNeVBbf.s:164    .text._fstat:0000000000000000 _fstat
     /tmp/ccNeVBbf.s:197    .text._isatty:0000000000000000 $t
     /tmp/ccNeVBbf.s:202    .text._isatty:0000000000000000 _isatty
     /tmp/ccNeVBbf.s:218    .text._getpid:0000000000000000 $t
     /tmp/ccNeVBbf.s:223    .text._getpid:0000000000000000 _getpid
     /tmp/ccNeVBbf.s:237    .text._exit:0000000000000000 $t
     /tmp/ccNeVBbf.s:242    .text._exit:0000000000000000 _exit
     /tmp/ccNeVBbf.s:258    .text._fini:0000000000000000 $t
     /tmp/ccNeVBbf.s:263    .text._fini:0000000000000000 _fini
     /tmp/ccNeVBbf.s:275    .text._kill:0000000000000000 $t
     /tmp/ccNeVBbf.s:280    .text._kill:0000000000000000 _kill
     /tmp/ccNeVBbf.s:299    .data._before_main:0000000000000000 _before_main
                     .debug_frame:0000000000000010 $d

UNDEFINED SYMBOLS
chHeapAllocAligned
memset
