ARM GAS  /tmp/ccQIqwam.s 			page 1


   1              		.syntax unified
   2              		.cpu cortex-m4
   3              		.eabi_attribute 27, 1
   4              		.eabi_attribute 28, 1
   5              		.fpu fpv4-sp-d16
   6              		.eabi_attribute 20, 1
   7              		.eabi_attribute 21, 1
   8              		.eabi_attribute 23, 3
   9              		.eabi_attribute 24, 1
  10              		.eabi_attribute 25, 1
  11              		.eabi_attribute 26, 1
  12              		.eabi_attribute 30, 6
  13              		.eabi_attribute 34, 1
  14              		.eabi_attribute 18, 4
  15              		.thumb
  16              		.file	"syscalls_cpp.cpp"
  17              		.text
  18              	.Ltext0:
  19              		.cfi_sections	.debug_frame
  20              		.section	.text._ZL11osalSysHaltPKc,"ax",%progbits
  21              		.align	2
  22              		.p2align 4,,15
  23              		.thumb
  24              		.thumb_func
  25              		.type	_ZL11osalSysHaltPKc, %function
  26              	_ZL11osalSysHaltPKc:
  27              		.fnstart
  28              	.LFB291:
  29              		.file 1 "../../modules/ChibiOS/os/hal/osal/rt/osal.h"
  30              		.loc 1 478 0
  31              		.cfi_startproc
  32              		@ args = 0, pretend = 0, frame = 8
  33              		@ frame_needed = 0, uses_anonymous_args = 0
  34 0000 00B5     		push	{lr}
  35              		.save {lr}
  36              		.cfi_def_cfa_offset 4
  37              		.cfi_offset 14, -4
  38              		.pad #12
  39 0002 83B0     		sub	sp, sp, #12
  40              		.cfi_def_cfa_offset 16
  41 0004 0190     		str	r0, [sp, #4]
  42              		.loc 1 480 0
  43 0006 0198     		ldr	r0, [sp, #4]
  44 0008 FFF7FEFF 		bl	chSysHalt
  45              		.loc 1 481 0
  46 000c 03B0     		add	sp, sp, #12
  47              		.cfi_def_cfa_offset 4
  48              		@ sp needed
  49 000e 5DF804FB 		ldr	pc, [sp], #4
  50              		.cfi_endproc
  51              	.LFE291:
  52              		.fnend
  53              		.size	_ZL11osalSysHaltPKc, .-_ZL11osalSysHaltPKc
  54              		.global	__dso_handle
  55 0012 00BF     		.section	.bss.__dso_handle,"aw",%nobits
  56              		.align	2
  57              		.type	__dso_handle, %object
ARM GAS  /tmp/ccQIqwam.s 			page 2


  58              		.size	__dso_handle, 4
  59              	__dso_handle:
  60 0000 00000000 		.space	4
  61              		.section	.rodata
  62              		.align	2
  63              	.LC0:
  64 0000 556E7265 		.ascii	"Unrealized\000"
  64      616C697A 
  64      656400
  65              		.section	.text._exit,"ax",%progbits
  66              		.align	2
  67              		.p2align 4,,15
  68              		.global	_exit
  69              		.thumb
  70              		.thumb_func
  71              		.type	_exit, %function
  72              	_exit:
  73              		.fnstart
  74              	.LFB323:
  75              		.file 2 "../../modules/ChibiOS/os/various/cpp_wrappers/syscalls_cpp.cpp"
  76              		.loc 2 12 0
  77              		.cfi_startproc
  78              		@ args = 0, pretend = 0, frame = 8
  79              		@ frame_needed = 0, uses_anonymous_args = 0
  80 0000 00B5     		push	{lr}
  81              		.save {lr}
  82              		.cfi_def_cfa_offset 4
  83              		.cfi_offset 14, -4
  84              		.pad #12
  85 0002 83B0     		sub	sp, sp, #12
  86              		.cfi_def_cfa_offset 16
  87 0004 0190     		str	r0, [sp, #4]
  88              		.loc 2 14 0
  89 0006 0248     		ldr	r0, .L4
  90 0008 FFF7FEFF 		bl	_ZL11osalSysHaltPKc
  91              	.L3:
  92              		.loc 2 12 0 discriminator 1
  93 000c FEE7     		b	.L3
  94              	.L5:
  95 000e 00BF     		.align	2
  96              	.L4:
  97 0010 00000000 		.word	.LC0
  98              		.cfi_endproc
  99              	.LFE323:
 100              		.fnend
 101              		.size	_exit, .-_exit
 102              		.section	.text._kill,"ax",%progbits
 103              		.align	2
 104              		.p2align 4,,15
 105              		.global	_kill
 106              		.thumb
 107              		.thumb_func
 108              		.type	_kill, %function
 109              	_kill:
 110              		.fnstart
 111              	.LFB324:
 112              		.loc 2 20 0
ARM GAS  /tmp/ccQIqwam.s 			page 3


 113              		.cfi_startproc
 114              		@ args = 0, pretend = 0, frame = 8
 115              		@ frame_needed = 0, uses_anonymous_args = 0
 116              		@ link register save eliminated.
 117 0000 82B0     		sub	sp, sp, #8
 118              		.cfi_def_cfa_offset 8
 119 0002 0190     		str	r0, [sp, #4]
 120 0004 0091     		str	r1, [sp]
 121              		.loc 2 23 0
 122 0006 044B     		ldr	r3, .L8
 123 0008 1622     		movs	r2, #22
 124 000a 1A60     		str	r2, [r3]
 125              		.loc 2 24 0
 126 000c 4FF0FF33 		mov	r3, #-1
 127              		.loc 2 25 0
 128 0010 1846     		mov	r0, r3
 129 0012 02B0     		add	sp, sp, #8
 130              		.cfi_def_cfa_offset 0
 131              		@ sp needed
 132 0014 7047     		bx	lr
 133              	.L9:
 134 0016 00BF     		.align	2
 135              	.L8:
 136 0018 00000000 		.word	errno
 137              		.cfi_endproc
 138              	.LFE324:
 139              		.cantunwind
 140              		.fnend
 141              		.size	_kill, .-_kill
 142              		.section	.text._open_r,"ax",%progbits
 143              		.align	2
 144              		.p2align 4,,15
 145              		.global	_open_r
 146              		.thumb
 147              		.thumb_func
 148              		.type	_open_r, %function
 149              	_open_r:
 150              		.fnstart
 151              	.LFB325:
 152              		.loc 2 27 0
 153              		.cfi_startproc
 154              		@ args = 0, pretend = 0, frame = 0
 155              		@ frame_needed = 0, uses_anonymous_args = 0
 156              		@ link register save eliminated.
 157              		.loc 2 28 0
 158 0000 00BF     		nop
 159              		.loc 2 29 0
 160 0002 7047     		bx	lr
 161              		.cfi_endproc
 162              	.LFE325:
 163              		.cantunwind
 164              		.fnend
 165              		.size	_open_r, .-_open_r
 166              		.section	.rodata
 167 000b 00       		.align	2
 168              	.LC1:
 169 000c 50757265 		.ascii	"Pure virtual function call.\000"
ARM GAS  /tmp/ccQIqwam.s 			page 4


 169      20766972 
 169      7475616C 
 169      2066756E 
 169      6374696F 
 170              		.section	.text.__cxa_pure_virtual,"ax",%progbits
 171              		.align	2
 172              		.p2align 4,,15
 173              		.global	__cxa_pure_virtual
 174              		.thumb
 175              		.thumb_func
 176              		.type	__cxa_pure_virtual, %function
 177              	__cxa_pure_virtual:
 178              		.fnstart
 179              	.LFB326:
 180              		.loc 2 31 0
 181              		.cfi_startproc
 182              		@ args = 0, pretend = 0, frame = 0
 183              		@ frame_needed = 0, uses_anonymous_args = 0
 184 0000 08B5     		push	{r3, lr}
 185              		.save {r3, lr}
 186              		.cfi_def_cfa_offset 8
 187              		.cfi_offset 3, -8
 188              		.cfi_offset 14, -4
 189              		.loc 2 32 0
 190 0002 0248     		ldr	r0, .L13
 191 0004 FFF7FEFF 		bl	_ZL11osalSysHaltPKc
 192              		.loc 2 33 0
 193 0008 08BD     		pop	{r3, pc}
 194              	.L14:
 195 000a 00BF     		.align	2
 196              	.L13:
 197 000c 0C000000 		.word	.LC1
 198              		.cfi_endproc
 199              	.LFE326:
 200              		.fnend
 201              		.size	__cxa_pure_virtual, .-__cxa_pure_virtual
 202              		.text
 203              	.Letext0:
 204              		.file 3 "/usr/include/newlib/machine/_default_types.h"
 205              		.file 4 "/usr/include/newlib/sys/_stdint.h"
 206              		.file 5 "../../modules/ChibiOS/os/common/ports/ARMCMx/compilers/GCC/chtypes.h"
 207              		.file 6 "../../modules/ChibiOS/os/rt/include/chsystypes.h"
 208              		.file 7 "../../modules/ChibiOS/os/rt/include/chschd.h"
 209              		.file 8 "../../modules/ChibiOS/os/rt/include/chtime.h"
 210              		.file 9 "../../modules/ChibiOS/os/common/ext/ST/STM32F4xx/stm32f4xx.h"
 211              		.file 10 "../../modules/ChibiOS/os/common/ports/ARMCMx/chcore.h"
 212              		.file 11 "../../modules/ChibiOS/os/common/ports/ARMCMx/chcore_v7m.h"
 213              		.file 12 "../../modules/ChibiOS/os/rt/include/chtm.h"
 214              		.file 13 "../../modules/ChibiOS/os/rt/include/chstats.h"
 215              		.file 14 "../../modules/ChibiOS/os/rt/include/chsem.h"
 216              		.file 15 "../../modules/ChibiOS/os/rt/include/chmtx.h"
 217              		.file 16 "../../modules/ChibiOS/os/common/ext/ARM/CMSIS/Core/Include/core_cm4.h"
 218              		.file 17 "../../modules/ChibiOS/os/various/cpp_wrappers/syscalls_cpp.hpp"