ARM GAS  /tmp/ccQIqwam.s 			page 1


   1              		.syntax unified
   2              		.cpu cortex-m4
   3              		.eabi_attribute 27, 1
   4              		.eabi_attribute 28, 1
   5              		.fpu fpv4-sp-d16
   6              		.eabi_attribute 20, 1
   7              		.eabi_attribute 21, 1
   8              		.eabi_attribute 23, 3
   9              		.eabi_attribute 24, 1
  10              		.eabi_attribute 25, 1
  11              		.eabi_attribute 26, 1
  12              		.eabi_attribute 30, 6
  13              		.eabi_attribute 34, 1
  14              		.eabi_attribute 18, 4
  15              		.thumb
  16              		.file	"syscalls_cpp.cpp"
  17              		.text
  18              	.Ltext0:
  19              		.cfi_sections	.debug_frame
  20              		.section	.text._ZL11osalSysHaltPKc,"ax",%progbits
  21              		.align	2
  22              		.p2align 4,,15
  23              		.thumb
  24              		.thumb_func
  25              		.type	_ZL11osalSysHaltPKc, %function
  26              	_ZL11osalSysHaltPKc:
  27              		.fnstart
  28              	.LFB291:
  29              		.file 1 "../../modules/ChibiOS/os/hal/osal/rt/osal.h"
  30              		.loc 1 478 0
  31              		.cfi_startproc
  32              		@ args = 0, pretend = 0, frame = 8
  33              		@ frame_needed = 0, uses_anonymous_args = 0
  34 0000 00B5     		push	{lr}
  35              		.save {lr}
  36              		.cfi_def_cfa_offset 4
  37              		.cfi_offset 14, -4
  38              		.pad #12
  39 0002 83B0     		sub	sp, sp, #12
  40              		.cfi_def_cfa_offset 16
  41 0004 0190     		str	r0, [sp, #4]
  42              		.loc 1 480 0
  43 0006 0198     		ldr	r0, [sp, #4]
  44 0008 FFF7FEFF 		bl	chSysHalt
  45              		.loc 1 481 0
  46 000c 03B0     		add	sp, sp, #12
  47              		.cfi_def_cfa_offset 4
  48              		@ sp needed
  49 000e 5DF804FB 		ldr	pc, [sp], #4
  50              		.cfi_endproc
  51              	.LFE291:
  52              		.fnend
  53              		.size	_ZL11osalSysHaltPKc, .-_ZL11osalSysHaltPKc
  54              		.global	__dso_handle
  55 0012 00BF     		.section	.bss.__dso_handle,"aw",%nobits
  56              		.align	2
  57              		.type	__dso_handle, %object
ARM GAS  /tmp/ccQIqwam.s 			page 2


  58              		.size	__dso_handle, 4
  59              	__dso_handle:
  60 0000 00000000 		.space	4
  61              		.section	.rodata
  62              		.align	2
  63              	.LC0:
  64 0000 556E7265 		.ascii	"Unrealized\000"
  64      616C697A 
  64      656400
  65              		.section	.text._exit,"ax",%progbits
  66              		.align	2
  67              		.p2align 4,,15
  68              		.global	_exit
  69              		.thumb
  70              		.thumb_func
  71              		.type	_exit, %function
  72              	_exit:
  73              		.fnstart
  74              	.LFB323:
  75              		.file 2 "../../modules/ChibiOS/os/various/cpp_wrappers/syscalls_cpp.cpp"
  76              		.loc 2 12 0
  77              		.cfi_startproc
  78              		@ args = 0, pretend = 0, frame = 8
  79              		@ frame_needed = 0, uses_anonymous_args = 0
  80 0000 00B5     		push	{lr}
  81              		.save {lr}
  82              		.cfi_def_cfa_offset 4
  83              		.cfi_offset 14, -4
  84              		.pad #12
  85 0002 83B0     		sub	sp, sp, #12
  86              		.cfi_def_cfa_offset 16
  87 0004 0190     		str	r0, [sp, #4]
  88              		.loc 2 14 0
  89 0006 0248     		ldr	r0, .L4
  90 0008 FFF7FEFF 		bl	_ZL11osalSysHaltPKc
  91              	.L3:
  92              		.loc 2 12 0 discriminator 1
  93 000c FEE7     		b	.L3
  94              	.L5:
  95 000e 00BF     		.align	2
  96              	.L4:
  97 0010 00000000 		.word	.LC0
  98              		.cfi_endproc
  99              	.LFE323:
 100              		.fnend
 101              		.size	_exit, .-_exit
 102              		.section	.text._kill,"ax",%progbits
 103              		.align	2
 104              		.p2align 4,,15
 105              		.global	_kill
 106              		.thumb
 107              		.thumb_func
 108              		.type	_kill, %function
 109              	_kill:
 110              		.fnstart
 111              	.LFB324:
 112              		.loc 2 20 0
ARM GAS  /tmp/ccQIqwam.s 			page 3


 113              		.cfi_startproc
 114              		@ args = 0, pretend = 0, frame = 8
 115              		@ frame_needed = 0, uses_anonymous_args = 0
 116              		@ link register save eliminated.
 117 0000 82B0     		sub	sp, sp, #8
 118              		.cfi_def_cfa_offset 8
 119 0002 0190     		str	r0, [sp, #4]
 120 0004 0091     		str	r1, [sp]
 121              		.loc 2 23 0
 122 0006 044B     		ldr	r3, .L8
 123 0008 1622     		movs	r2, #22
 124 000a 1A60     		str	r2, [r3]
 125              		.loc 2 24 0
 126 000c 4FF0FF33 		mov	r3, #-1
 127              		.loc 2 25 0
 128 0010 1846     		mov	r0, r3
 129 0012 02B0     		add	sp, sp, #8
 130              		.cfi_def_cfa_offset 0
 131              		@ sp needed
 132 0014 7047     		bx	lr
 133              	.L9:
 134 0016 00BF     		.align	2
 135              	.L8:
 136 0018 00000000 		.word	errno
 137              		.cfi_endproc
 138              	.LFE324:
 139              		.cantunwind
 140              		.fnend
 141              		.size	_kill, .-_kill
 142              		.section	.text._open_r,"ax",%progbits
 143              		.align	2
 144              		.p2align 4,,15
 145              		.global	_open_r
 146              		.thumb
 147              		.thumb_func
 148              		.type	_open_r, %function
 149              	_open_r:
 150              		.fnstart
 151              	.LFB325:
 152              		.loc 2 27 0
 153              		.cfi_startproc
 154              		@ args = 0, pretend = 0, frame = 0
 155              		@ frame_needed = 0, uses_anonymous_args = 0
 156              		@ link register save eliminated.
 157              		.loc 2 28 0
 158 0000 00BF     		nop
 159              		.loc 2 29 0
 160 0002 7047     		bx	lr
 161              		.cfi_endproc
 162              	.LFE325:
 163              		.cantunwind
 164              		.fnend
 165              		.size	_open_r, .-_open_r
 166              		.section	.rodata
 167 000b 00       		.align	2
 168              	.LC1:
 169 000c 50757265 		.ascii	"Pure virtual function call.\000"
ARM GAS  /tmp/ccQIqwam.s 			page 4


 169      20766972 
 169      7475616C 
 169      2066756E 
 169      6374696F 
 170              		.section	.text.__cxa_pure_virtual,"ax",%progbits
 171              		.align	2
 172              		.p2align 4,,15
 173              		.global	__cxa_pure_virtual
 174              		.thumb
 175              		.thumb_func
 176              		.type	__cxa_pure_virtual, %function
 177              	__cxa_pure_virtual:
 178              		.fnstart
 179              	.LFB326:
 180              		.loc 2 31 0
 181              		.cfi_startproc
 182              		@ args = 0, pretend = 0, frame = 0
 183              		@ frame_needed = 0, uses_anonymous_args = 0
 184 0000 08B5     		push	{r3, lr}
 185              		.save {r3, lr}
 186              		.cfi_def_cfa_offset 8
 187              		.cfi_offset 3, -8
 188              		.cfi_offset 14, -4
 189              		.loc 2 32 0
 190 0002 0248     		ldr	r0, .L13
 191 0004 FFF7FEFF 		bl	_ZL11osalSysHaltPKc
 192              		.loc 2 33 0
 193 0008 08BD     		pop	{r3, pc}
 194              	.L14:
 195 000a 00BF     		.align	2
 196              	.L13:
 197 000c 0C000000 		.word	.LC1
 198              		.cfi_endproc
 199              	.LFE326:
 200              		.fnend
 201              		.size	__cxa_pure_virtual, .-__cxa_pure_virtual
 202              		.text
 203              	.Letext0:
 204              		.file 3 "/usr/include/newlib/machine/_default_types.h"
 205              		.file 4 "/usr/include/newlib/sys/_stdint.h"
 206              		.file 5 "../../modules/ChibiOS/os/common/ports/ARMCMx/compilers/GCC/chtypes.h"
 207              		.file 6 "../../modules/ChibiOS/os/rt/include/chsystypes.h"
 208              		.file 7 "../../modules/ChibiOS/os/rt/include/chschd.h"
 209              		.file 8 "../../modules/ChibiOS/os/rt/include/chtime.h"
 210              		.file 9 "../../modules/ChibiOS/os/common/ext/ST/STM32F4xx/stm32f4xx.h"
 211              		.file 10 "../../modules/ChibiOS/os/common/ports/ARMCMx/chcore.h"
 212              		.file 11 "../../modules/ChibiOS/os/common/ports/ARMCMx/chcore_v7m.h"
 213              		.file 12 "../../modules/ChibiOS/os/rt/include/chtm.h"
 214              		.file 13 "../../modules/ChibiOS/os/rt/include/chstats.h"
 215              		.file 14 "../../modules/ChibiOS/os/rt/include/chsem.h"
 216              		.file 15 "../../modules/ChibiOS/os/rt/include/chmtx.h"
 217              		.file 16 "../../modules/ChibiOS/os/common/ext/ARM/CMSIS/Core/Include/core_cm4.h"
 218              		.file 17 "../../modules/ChibiOS/os/various/cpp_wrappers/syscalls_cpp.hpp"
 219              		.section	.debug_info,"",%progbits
 220              	.Ldebug_info0:
 221 0000 F3080000 		.4byte	0x8f3
 222 0004 0400     		.2byte	0x4
ARM GAS  /tmp/ccQIqwam.s 			page 5


 223 0006 00000000 		.4byte	.Ldebug_abbrev0
 224 000a 04       		.byte	0x4
 225 000b 01       		.uleb128 0x1
 226 000c CA010000 		.4byte	.LASF127
 227 0010 04       		.byte	0x4
 228 0011 86040000 		.4byte	.LASF128
 229 0015 F2050000 		.4byte	.LASF129
 230 0019 00000000 		.4byte	.Ldebug_ranges0+0
 231 001d 00000000 		.4byte	0
 232 0021 00000000 		.4byte	.Ldebug_line0
 233 0025 02       		.uleb128 0x2
 234 0026 01       		.byte	0x1
 235 0027 06       		.byte	0x6
 236 0028 16010000 		.4byte	.LASF0
 237 002c 03       		.uleb128 0x3
 238 002d 48000000 		.4byte	.LASF4
 239 0031 03       		.byte	0x3
 240 0032 1D       		.byte	0x1d
 241 0033 37000000 		.4byte	0x37
 242 0037 02       		.uleb128 0x2
 243 0038 01       		.byte	0x1
 244 0039 08       		.byte	0x8
 245 003a 78040000 		.4byte	.LASF1
 246 003e 02       		.uleb128 0x2
 247 003f 02       		.byte	0x2
 248 0040 05       		.byte	0x5
 249 0041 C5040000 		.4byte	.LASF2
 250 0045 02       		.uleb128 0x2
 251 0046 02       		.byte	0x2
 252 0047 07       		.byte	0x7
 253 0048 DF050000 		.4byte	.LASF3
 254 004c 03       		.uleb128 0x3
 255 004d 61030000 		.4byte	.LASF5
 256 0051 03       		.byte	0x3
 257 0052 3F       		.byte	0x3f
 258 0053 57000000 		.4byte	0x57
 259 0057 02       		.uleb128 0x2
 260 0058 04       		.byte	0x4
 261 0059 05       		.byte	0x5
 262 005a 38010000 		.4byte	.LASF6
 263 005e 03       		.uleb128 0x3
 264 005f 6E010000 		.4byte	.LASF7
 265 0063 03       		.byte	0x3
 266 0064 41       		.byte	0x41
 267 0065 69000000 		.4byte	0x69
 268 0069 02       		.uleb128 0x2
 269 006a 04       		.byte	0x4
 270 006b 07       		.byte	0x7
 271 006c 4F050000 		.4byte	.LASF8
 272 0070 02       		.uleb128 0x2
 273 0071 08       		.byte	0x8
 274 0072 05       		.byte	0x5
 275 0073 08010000 		.4byte	.LASF9
 276 0077 03       		.uleb128 0x3
 277 0078 26040000 		.4byte	.LASF10
 278 007c 03       		.byte	0x3
 279 007d 5B       		.byte	0x5b
ARM GAS  /tmp/ccQIqwam.s 			page 6


 280 007e 82000000 		.4byte	0x82
 281 0082 02       		.uleb128 0x2
 282 0083 08       		.byte	0x8
 283 0084 07       		.byte	0x7
 284 0085 A4000000 		.4byte	.LASF11
 285 0089 04       		.uleb128 0x4
 286 008a 04       		.byte	0x4
 287 008b 05       		.byte	0x5
 288 008c 696E7400 		.ascii	"int\000"
 289 0090 02       		.uleb128 0x2
 290 0091 04       		.byte	0x4
 291 0092 07       		.byte	0x7
 292 0093 B6010000 		.4byte	.LASF12
 293 0097 03       		.uleb128 0x3
 294 0098 5F060000 		.4byte	.LASF13
 295 009c 04       		.byte	0x4
 296 009d 14       		.byte	0x14
 297 009e 2C000000 		.4byte	0x2c
 298 00a2 03       		.uleb128 0x3
 299 00a3 70040000 		.4byte	.LASF14
 300 00a7 04       		.byte	0x4
 301 00a8 1F       		.byte	0x1f
 302 00a9 4C000000 		.4byte	0x4c
 303 00ad 03       		.uleb128 0x3
 304 00ae 15050000 		.4byte	.LASF15
 305 00b2 04       		.byte	0x4
 306 00b3 20       		.byte	0x20
 307 00b4 5E000000 		.4byte	0x5e
 308 00b8 03       		.uleb128 0x3
 309 00b9 32000000 		.4byte	.LASF16
 310 00bd 04       		.byte	0x4
 311 00be 26       		.byte	0x26
 312 00bf 77000000 		.4byte	0x77
 313 00c3 02       		.uleb128 0x2
 314 00c4 08       		.byte	0x8
 315 00c5 04       		.byte	0x4
 316 00c6 A0050000 		.4byte	.LASF17
 317 00ca 05       		.uleb128 0x5
 318 00cb 6B030000 		.4byte	.LASF130
 319 00cf 03       		.uleb128 0x3
 320 00d0 1E060000 		.4byte	.LASF18
 321 00d4 05       		.byte	0x5
 322 00d5 27       		.byte	0x27
 323 00d6 AD000000 		.4byte	0xad
 324 00da 03       		.uleb128 0x3
 325 00db FF000000 		.4byte	.LASF19
 326 00df 05       		.byte	0x5
 327 00e0 28       		.byte	0x28
 328 00e1 B8000000 		.4byte	0xb8
 329 00e5 03       		.uleb128 0x3
 330 00e6 2F030000 		.4byte	.LASF20
 331 00ea 05       		.byte	0x5
 332 00eb 2A       		.byte	0x2a
 333 00ec 97000000 		.4byte	0x97
 334 00f0 03       		.uleb128 0x3
 335 00f1 48010000 		.4byte	.LASF21
 336 00f5 05       		.byte	0x5
ARM GAS  /tmp/ccQIqwam.s 			page 7


 337 00f6 2B       		.byte	0x2b
 338 00f7 97000000 		.4byte	0x97
 339 00fb 03       		.uleb128 0x3
 340 00fc 3C040000 		.4byte	.LASF22
 341 0100 05       		.byte	0x5
 342 0101 2C       		.byte	0x2c
 343 0102 97000000 		.4byte	0x97
 344 0106 03       		.uleb128 0x3
 345 0107 5F040000 		.4byte	.LASF23
 346 010b 05       		.byte	0x5
 347 010c 2E       		.byte	0x2e
 348 010d AD000000 		.4byte	0xad
 349 0111 03       		.uleb128 0x3
 350 0112 04030000 		.4byte	.LASF24
 351 0116 05       		.byte	0x5
 352 0117 2F       		.byte	0x2f
 353 0118 A2000000 		.4byte	0xa2
 354 011c 03       		.uleb128 0x3
 355 011d 55030000 		.4byte	.LASF25
 356 0121 05       		.byte	0x5
 357 0122 31       		.byte	0x31
 358 0123 AD000000 		.4byte	0xad
 359 0127 03       		.uleb128 0x3
 360 0128 B0010000 		.4byte	.LASF26
 361 012c 05       		.byte	0x5
 362 012d 33       		.byte	0x33
 363 012e A2000000 		.4byte	0xa2
 364 0132 03       		.uleb128 0x3
 365 0133 0F030000 		.4byte	.LASF27
 366 0137 05       		.byte	0x5
 367 0138 34       		.byte	0x34
 368 0139 AD000000 		.4byte	0xad
 369 013d 03       		.uleb128 0x3
 370 013e 92050000 		.4byte	.LASF28
 371 0142 06       		.byte	0x6
 372 0143 34       		.byte	0x34
 373 0144 48010000 		.4byte	0x148
 374 0148 06       		.uleb128 0x6
 375 0149 FA020000 		.4byte	.LASF55
 376 014d 60       		.byte	0x60
 377 014e 07       		.byte	0x7
 378 014f 8E       		.byte	0x8e
 379 0150 95020000 		.4byte	0x295
 380 0154 07       		.uleb128 0x7
 381 0155 04       		.byte	0x4
 382 0156 07       		.byte	0x7
 383 0157 C6       		.byte	0xc6
 384 0158 B6010000 		.4byte	0x1b6
 385 015c 08       		.uleb128 0x8
 386 015d F0040000 		.4byte	.LASF29
 387 0161 07       		.byte	0x7
 388 0162 CD       		.byte	0xcd
 389 0163 11010000 		.4byte	0x111
 390 0167 08       		.uleb128 0x8
 391 0168 BB000000 		.4byte	.LASF30
 392 016c 07       		.byte	0x7
 393 016d D4       		.byte	0xd4
ARM GAS  /tmp/ccQIqwam.s 			page 8


 394 016e 11010000 		.4byte	0x111
 395 0172 08       		.uleb128 0x8
 396 0173 86060000 		.4byte	.LASF31
 397 0177 07       		.byte	0x7
 398 0178 DB       		.byte	0xdb
 399 0179 7D030000 		.4byte	0x37d
 400 017d 08       		.uleb128 0x8
 401 017e 1B000000 		.4byte	.LASF32
 402 0182 07       		.byte	0x7
 403 0183 E2       		.byte	0xe2
 404 0184 79070000 		.4byte	0x779
 405 0188 08       		.uleb128 0x8
 406 0189 CF000000 		.4byte	.LASF33
 407 018d 07       		.byte	0x7
 408 018e E7       		.byte	0xe7
 409 018f 11010000 		.4byte	0x111
 410 0193 08       		.uleb128 0x8
 411 0194 C3010000 		.4byte	.LASF34
 412 0198 07       		.byte	0x7
 413 0199 F0       		.byte	0xf0
 414 019a A4070000 		.4byte	0x7a4
 415 019e 08       		.uleb128 0x8
 416 019f 7F050000 		.4byte	.LASF35
 417 01a3 07       		.byte	0x7
 418 01a4 F9       		.byte	0xf9
 419 01a5 DB070000 		.4byte	0x7db
 420 01a9 09       		.uleb128 0x9
 421 01aa D8040000 		.4byte	.LASF36
 422 01ae 07       		.byte	0x7
 423 01af 0101     		.2byte	0x101
 424 01b1 1C010000 		.4byte	0x11c
 425 01b5 00       		.byte	0
 426 01b6 0A       		.uleb128 0xa
 427 01b7 D4020000 		.4byte	.LASF37
 428 01bb 07       		.byte	0x7
 429 01bc 8F       		.byte	0x8f
 430 01bd CA020000 		.4byte	0x2ca
 431 01c1 00       		.byte	0
 432 01c2 0A       		.uleb128 0xa
 433 01c3 19040000 		.4byte	.LASF38
 434 01c7 07       		.byte	0x7
 435 01c8 90       		.byte	0x90
 436 01c9 06010000 		.4byte	0x106
 437 01cd 08       		.byte	0x8
 438 01ce 0B       		.uleb128 0xb
 439 01cf 63747800 		.ascii	"ctx\000"
 440 01d3 07       		.byte	0x7
 441 01d4 91       		.byte	0x91
 442 01d5 51050000 		.4byte	0x551
 443 01d9 0C       		.byte	0xc
 444 01da 0A       		.uleb128 0xa
 445 01db 8E030000 		.4byte	.LASF39
 446 01df 07       		.byte	0x7
 447 01e0 93       		.byte	0x93
 448 01e1 A0020000 		.4byte	0x2a0
 449 01e5 10       		.byte	0x10
 450 01e6 0A       		.uleb128 0xa
ARM GAS  /tmp/ccQIqwam.s 			page 9


 451 01e7 79050000 		.4byte	.LASF40
 452 01eb 07       		.byte	0x7
 453 01ec 94       		.byte	0x94
 454 01ed A0020000 		.4byte	0x2a0
 455 01f1 14       		.byte	0x14
 456 01f2 0A       		.uleb128 0xa
 457 01f3 F5020000 		.4byte	.LASF41
 458 01f7 07       		.byte	0x7
 459 01f8 9B       		.byte	0x9b
 460 01f9 E1070000 		.4byte	0x7e1
 461 01fd 18       		.byte	0x18
 462 01fe 0A       		.uleb128 0xa
 463 01ff 61050000 		.4byte	.LASF42
 464 0203 07       		.byte	0x7
 465 0204 A4       		.byte	0xa4
 466 0205 F3070000 		.4byte	0x7f3
 467 0209 1C       		.byte	0x1c
 468 020a 0A       		.uleb128 0xa
 469 020b 32010000 		.4byte	.LASF43
 470 020f 07       		.byte	0x7
 471 0210 A9       		.byte	0xa9
 472 0211 F0000000 		.4byte	0xf0
 473 0215 20       		.byte	0x20
 474 0216 0A       		.uleb128 0xa
 475 0217 6F060000 		.4byte	.LASF44
 476 021b 07       		.byte	0x7
 477 021c AD       		.byte	0xad
 478 021d E5000000 		.4byte	0xe5
 479 0221 21       		.byte	0x21
 480 0222 0A       		.uleb128 0xa
 481 0223 44040000 		.4byte	.LASF45
 482 0227 07       		.byte	0x7
 483 0228 B2       		.byte	0xb2
 484 0229 FB000000 		.4byte	0xfb
 485 022d 22       		.byte	0x22
 486 022e 0C       		.uleb128 0xc
 487 022f 7500     		.ascii	"u\000"
 488 0231 07       		.byte	0x7
 489 0232 0301     		.2byte	0x103
 490 0234 54010000 		.4byte	0x154
 491 0238 24       		.byte	0x24
 492 0239 0D       		.uleb128 0xd
 493 023a 92010000 		.4byte	.LASF46
 494 023e 07       		.byte	0x7
 495 023f 0801     		.2byte	0x108
 496 0241 A6020000 		.4byte	0x2a6
 497 0245 28       		.byte	0x28
 498 0246 0D       		.uleb128 0xd
 499 0247 29010000 		.4byte	.LASF47
 500 024b 07       		.byte	0x7
 501 024c 0E01     		.2byte	0x10e
 502 024e CA020000 		.4byte	0x2ca
 503 0252 2C       		.byte	0x2c
 504 0253 0D       		.uleb128 0xd
 505 0254 36060000 		.4byte	.LASF48
 506 0258 07       		.byte	0x7
 507 0259 1401     		.2byte	0x114
ARM GAS  /tmp/ccQIqwam.s 			page 10


 508 025b 1C010000 		.4byte	0x11c
 509 025f 34       		.byte	0x34
 510 0260 0D       		.uleb128 0xd
 511 0261 9C060000 		.4byte	.LASF49
 512 0265 07       		.byte	0x7
 513 0266 1B01     		.2byte	0x11b
 514 0268 DB070000 		.4byte	0x7db
 515 026c 38       		.byte	0x38
 516 026d 0D       		.uleb128 0xd
 517 026e 94030000 		.4byte	.LASF50
 518 0272 07       		.byte	0x7
 519 0273 1F01     		.2byte	0x11f
 520 0275 06010000 		.4byte	0x106
 521 0279 3C       		.byte	0x3c
 522 027a 0D       		.uleb128 0xd
 523 027b DA020000 		.4byte	.LASF51
 524 027f 07       		.byte	0x7
 525 0280 2601     		.2byte	0x126
 526 0282 7D030000 		.4byte	0x37d
 527 0286 40       		.byte	0x40
 528 0287 0D       		.uleb128 0xd
 529 0288 56010000 		.4byte	.LASF52
 530 028c 07       		.byte	0x7
 531 028d 2C01     		.2byte	0x12c
 532 028f 26070000 		.4byte	0x726
 533 0293 48       		.byte	0x48
 534 0294 00       		.byte	0
 535 0295 03       		.uleb128 0x3
 536 0296 A6030000 		.4byte	.LASF53
 537 029a 06       		.byte	0x6
 538 029b 39       		.byte	0x39
 539 029c A0020000 		.4byte	0x2a0
 540 02a0 0E       		.uleb128 0xe
 541 02a1 04       		.byte	0x4
 542 02a2 3D010000 		.4byte	0x13d
 543 02a6 03       		.uleb128 0x3
 544 02a7 8D060000 		.4byte	.LASF54
 545 02ab 06       		.byte	0x6
 546 02ac 3E       		.byte	0x3e
 547 02ad B1020000 		.4byte	0x2b1
 548 02b1 06       		.uleb128 0x6
 549 02b2 1E050000 		.4byte	.LASF56
 550 02b6 04       		.byte	0x4
 551 02b7 07       		.byte	0x7
 552 02b8 7C       		.byte	0x7c
 553 02b9 CA020000 		.4byte	0x2ca
 554 02bd 0A       		.uleb128 0xa
 555 02be FA000000 		.4byte	.LASF57
 556 02c2 07       		.byte	0x7
 557 02c3 7D       		.byte	0x7d
 558 02c4 A0020000 		.4byte	0x2a0
 559 02c8 00       		.byte	0
 560 02c9 00       		.byte	0
 561 02ca 03       		.uleb128 0x3
 562 02cb 26060000 		.4byte	.LASF58
 563 02cf 06       		.byte	0x6
 564 02d0 45       		.byte	0x45
ARM GAS  /tmp/ccQIqwam.s 			page 11


 565 02d1 D5020000 		.4byte	0x2d5
 566 02d5 06       		.uleb128 0x6
 567 02d6 63000000 		.4byte	.LASF59
 568 02da 08       		.byte	0x8
 569 02db 07       		.byte	0x7
 570 02dc 83       		.byte	0x83
 571 02dd FA020000 		.4byte	0x2fa
 572 02e1 0A       		.uleb128 0xa
 573 02e2 FA000000 		.4byte	.LASF57
 574 02e6 07       		.byte	0x7
 575 02e7 84       		.byte	0x84
 576 02e8 A0020000 		.4byte	0x2a0
 577 02ec 00       		.byte	0
 578 02ed 0A       		.uleb128 0xa
 579 02ee 52000000 		.4byte	.LASF60
 580 02f2 07       		.byte	0x7
 581 02f3 85       		.byte	0x85
 582 02f4 A0020000 		.4byte	0x2a0
 583 02f8 04       		.byte	0x4
 584 02f9 00       		.byte	0
 585 02fa 03       		.uleb128 0x3
 586 02fb 00000000 		.4byte	.LASF61
 587 02ff 06       		.byte	0x6
 588 0300 4C       		.byte	0x4c
 589 0301 05030000 		.4byte	0x305
 590 0305 0F       		.uleb128 0xf
 591 0306 47030000 		.4byte	.LASF62
 592 030a 1C       		.byte	0x1c
 593 030b 07       		.byte	0x7
 594 030c 5E01     		.2byte	0x15e
 595 030e 61030000 		.4byte	0x361
 596 0312 0D       		.uleb128 0xd
 597 0313 D4020000 		.4byte	.LASF37
 598 0317 07       		.byte	0x7
 599 0318 5F01     		.2byte	0x15f
 600 031a CA020000 		.4byte	0x2ca
 601 031e 00       		.byte	0
 602 031f 0D       		.uleb128 0xd
 603 0320 19040000 		.4byte	.LASF38
 604 0324 07       		.byte	0x7
 605 0325 6001     		.2byte	0x160
 606 0327 06010000 		.4byte	0x106
 607 032b 08       		.byte	0x8
 608 032c 0C       		.uleb128 0xc
 609 032d 63747800 		.ascii	"ctx\000"
 610 0331 07       		.byte	0x7
 611 0332 6201     		.2byte	0x162
 612 0334 51050000 		.4byte	0x551
 613 0338 0C       		.byte	0xc
 614 0339 0D       		.uleb128 0xd
 615 033a 8E030000 		.4byte	.LASF39
 616 033e 07       		.byte	0x7
 617 033f 6501     		.2byte	0x165
 618 0341 A0020000 		.4byte	0x2a0
 619 0345 10       		.byte	0x10
 620 0346 0D       		.uleb128 0xd
 621 0347 79050000 		.4byte	.LASF40
ARM GAS  /tmp/ccQIqwam.s 			page 12


 622 034b 07       		.byte	0x7
 623 034c 6601     		.2byte	0x166
 624 034e A0020000 		.4byte	0x2a0
 625 0352 14       		.byte	0x14
 626 0353 0D       		.uleb128 0xd
 627 0354 1E040000 		.4byte	.LASF63
 628 0358 07       		.byte	0x7
 629 0359 6901     		.2byte	0x169
 630 035b A0020000 		.4byte	0x2a0
 631 035f 18       		.byte	0x18
 632 0360 00       		.byte	0
 633 0361 03       		.uleb128 0x3
 634 0362 B6050000 		.4byte	.LASF64
 635 0366 06       		.byte	0x6
 636 0367 51       		.byte	0x51
 637 0368 6C030000 		.4byte	0x36c
 638 036c 0E       		.uleb128 0xe
 639 036d 04       		.byte	0x4
 640 036e 72030000 		.4byte	0x372
 641 0372 10       		.uleb128 0x10
 642 0373 7D030000 		.4byte	0x37d
 643 0377 11       		.uleb128 0x11
 644 0378 7D030000 		.4byte	0x37d
 645 037c 00       		.byte	0
 646 037d 12       		.uleb128 0x12
 647 037e 04       		.byte	0x4
 648 037f 03       		.uleb128 0x3
 649 0380 49040000 		.4byte	.LASF65
 650 0384 06       		.byte	0x6
 651 0385 56       		.byte	0x56
 652 0386 8A030000 		.4byte	0x38a
 653 038a 0F       		.uleb128 0xf
 654 038b F7040000 		.4byte	.LASF66
 655 038f 14       		.byte	0x14
 656 0390 07       		.byte	0x7
 657 0391 3901     		.2byte	0x139
 658 0393 D9030000 		.4byte	0x3d9
 659 0397 0D       		.uleb128 0xd
 660 0398 FA000000 		.4byte	.LASF57
 661 039c 07       		.byte	0x7
 662 039d 3A01     		.2byte	0x13a
 663 039f F9070000 		.4byte	0x7f9
 664 03a3 00       		.byte	0
 665 03a4 0D       		.uleb128 0xd
 666 03a5 52000000 		.4byte	.LASF60
 667 03a9 07       		.byte	0x7
 668 03aa 3B01     		.2byte	0x13b
 669 03ac F9070000 		.4byte	0x7f9
 670 03b0 04       		.byte	0x4
 671 03b1 0D       		.uleb128 0xd
 672 03b2 21000000 		.4byte	.LASF67
 673 03b6 07       		.byte	0x7
 674 03b7 3C01     		.2byte	0x13c
 675 03b9 BD040000 		.4byte	0x4bd
 676 03bd 08       		.byte	0x8
 677 03be 0D       		.uleb128 0xd
 678 03bf 51010000 		.4byte	.LASF68
ARM GAS  /tmp/ccQIqwam.s 			page 13


 679 03c3 07       		.byte	0x7
 680 03c4 3D01     		.2byte	0x13d
 681 03c6 61030000 		.4byte	0x361
 682 03ca 0C       		.byte	0xc
 683 03cb 0C       		.uleb128 0xc
 684 03cc 70617200 		.ascii	"par\000"
 685 03d0 07       		.byte	0x7
 686 03d1 3F01     		.2byte	0x13f
 687 03d3 7D030000 		.4byte	0x37d
 688 03d7 10       		.byte	0x10
 689 03d8 00       		.byte	0
 690 03d9 03       		.uleb128 0x3
 691 03da D7000000 		.4byte	.LASF69
 692 03de 06       		.byte	0x6
 693 03df 5B       		.byte	0x5b
 694 03e0 E4030000 		.4byte	0x3e4
 695 03e4 0F       		.uleb128 0xf
 696 03e5 B9030000 		.4byte	.LASF70
 697 03e9 10       		.byte	0x10
 698 03ea 07       		.byte	0x7
 699 03eb 4901     		.2byte	0x149
 700 03ed 26040000 		.4byte	0x426
 701 03f1 0D       		.uleb128 0xd
 702 03f2 FA000000 		.4byte	.LASF57
 703 03f6 07       		.byte	0x7
 704 03f7 4A01     		.2byte	0x14a
 705 03f9 F9070000 		.4byte	0x7f9
 706 03fd 00       		.byte	0
 707 03fe 0D       		.uleb128 0xd
 708 03ff 52000000 		.4byte	.LASF60
 709 0403 07       		.byte	0x7
 710 0404 4C01     		.2byte	0x14c
 711 0406 F9070000 		.4byte	0x7f9
 712 040a 04       		.byte	0x4
 713 040b 0D       		.uleb128 0xd
 714 040c 21000000 		.4byte	.LASF67
 715 0410 07       		.byte	0x7
 716 0411 4E01     		.2byte	0x14e
 717 0413 BD040000 		.4byte	0x4bd
 718 0417 08       		.byte	0x8
 719 0418 0D       		.uleb128 0xd
 720 0419 CF040000 		.4byte	.LASF71
 721 041d 07       		.byte	0x7
 722 041e 5601     		.2byte	0x156
 723 0420 B2040000 		.4byte	0x4b2
 724 0424 0C       		.byte	0xc
 725 0425 00       		.byte	0
 726 0426 03       		.uleb128 0x3
 727 0427 74000000 		.4byte	.LASF72
 728 042b 06       		.byte	0x6
 729 042c 60       		.byte	0x60
 730 042d 31040000 		.4byte	0x431
 731 0431 0F       		.uleb128 0xf
 732 0432 82010000 		.4byte	.LASF73
 733 0436 04       		.byte	0x4
 734 0437 07       		.byte	0x7
 735 0438 7001     		.2byte	0x170
ARM GAS  /tmp/ccQIqwam.s 			page 14


 736 043a 4C040000 		.4byte	0x44c
 737 043e 0D       		.uleb128 0xd
 738 043f BF050000 		.4byte	.LASF74
 739 0443 07       		.byte	0x7
 740 0444 7801     		.2byte	0x178
 741 0446 FF070000 		.4byte	0x7ff
 742 044a 00       		.byte	0
 743 044b 00       		.byte	0
 744 044c 03       		.uleb128 0x3
 745 044d 23030000 		.4byte	.LASF75
 746 0451 06       		.byte	0x6
 747 0452 65       		.byte	0x65
 748 0453 57040000 		.4byte	0x457
 749 0457 0F       		.uleb128 0xf
 750 0458 DF040000 		.4byte	.LASF76
 751 045c D0       		.byte	0xd0
 752 045d 07       		.byte	0x7
 753 045e 9001     		.2byte	0x190
 754 0460 B2040000 		.4byte	0x4b2
 755 0464 0D       		.uleb128 0xd
 756 0465 59060000 		.4byte	.LASF77
 757 0469 07       		.byte	0x7
 758 046a 9401     		.2byte	0x194
 759 046c FA020000 		.4byte	0x2fa
 760 0470 00       		.byte	0
 761 0471 0D       		.uleb128 0xd
 762 0472 22010000 		.4byte	.LASF78
 763 0476 07       		.byte	0x7
 764 0477 9801     		.2byte	0x198
 765 0479 D9030000 		.4byte	0x3d9
 766 047d 1C       		.byte	0x1c
 767 047e 0C       		.uleb128 0xc
 768 047f 64626700 		.ascii	"dbg\000"
 769 0483 07       		.byte	0x7
 770 0484 9C01     		.2byte	0x19c
 771 0486 26040000 		.4byte	0x426
 772 048a 2C       		.byte	0x2c
 773 048b 0D       		.uleb128 0xd
 774 048c C4000000 		.4byte	.LASF79
 775 0490 07       		.byte	0x7
 776 0491 A001     		.2byte	0x1a0
 777 0493 3D010000 		.4byte	0x13d
 778 0497 30       		.byte	0x30
 779 0498 0C       		.uleb128 0xc
 780 0499 746D00   		.ascii	"tm\000"
 781 049c 07       		.byte	0x7
 782 049d A501     		.2byte	0x1a5
 783 049f D4060000 		.4byte	0x6d4
 784 04a3 90       		.byte	0x90
 785 04a4 0D       		.uleb128 0xd
 786 04a5 3B000000 		.4byte	.LASF80
 787 04a9 07       		.byte	0x7
 788 04aa AB01     		.2byte	0x1ab
 789 04ac 6E070000 		.4byte	0x76e
 790 04b0 98       		.byte	0x98
 791 04b1 00       		.byte	0
 792 04b2 03       		.uleb128 0x3
ARM GAS  /tmp/ccQIqwam.s 			page 15


 793 04b3 AC050000 		.4byte	.LASF81
 794 04b7 08       		.byte	0x8
 795 04b8 6D       		.byte	0x6d
 796 04b9 AD000000 		.4byte	0xad
 797 04bd 03       		.uleb128 0x3
 798 04be A2010000 		.4byte	.LASF82
 799 04c2 08       		.byte	0x8
 800 04c3 79       		.byte	0x79
 801 04c4 AD000000 		.4byte	0xad
 802 04c8 02       		.uleb128 0x2
 803 04c9 04       		.byte	0x4
 804 04ca 07       		.byte	0x7
 805 04cb 9D030000 		.4byte	.LASF83
 806 04cf 13       		.uleb128 0x13
 807 04d0 01       		.byte	0x1
 808 04d1 09       		.byte	0x9
 809 04d2 CC       		.byte	0xcc
 810 04d3 16030000 		.4byte	.LASF86
 811 04d7 E8040000 		.4byte	0x4e8
 812 04db 14       		.uleb128 0x14
 813 04dc 59040000 		.4byte	.LASF84
 814 04e0 00       		.sleb128 0
 815 04e1 15       		.uleb128 0x15
 816 04e2 53455400 		.ascii	"SET\000"
 817 04e6 01       		.sleb128 1
 818 04e7 00       		.byte	0
 819 04e8 03       		.uleb128 0x3
 820 04e9 27000000 		.4byte	.LASF85
 821 04ed 09       		.byte	0x9
 822 04ee CF       		.byte	0xcf
 823 04ef CF040000 		.4byte	0x4cf
 824 04f3 13       		.uleb128 0x13
 825 04f4 01       		.byte	0x1
 826 04f5 09       		.byte	0x9
 827 04f6 D2       		.byte	0xd2
 828 04f7 5C010000 		.4byte	.LASF87
 829 04fb 0C050000 		.4byte	0x50c
 830 04ff 14       		.uleb128 0x14
 831 0500 89000000 		.4byte	.LASF88
 832 0504 00       		.sleb128 0
 833 0505 14       		.uleb128 0x14
 834 0506 41010000 		.4byte	.LASF89
 835 050a 01       		.sleb128 1
 836 050b 00       		.byte	0
 837 050c 03       		.uleb128 0x3
 838 050d F8030000 		.4byte	.LASF90
 839 0511 09       		.byte	0x9
 840 0512 D5       		.byte	0xd5
 841 0513 F3040000 		.4byte	0x4f3
 842 0517 13       		.uleb128 0x13
 843 0518 01       		.byte	0x1
 844 0519 09       		.byte	0x9
 845 051a D9       		.byte	0xd9
 846 051b 0D000000 		.4byte	.LASF91
 847 051f 30050000 		.4byte	0x530
 848 0523 14       		.uleb128 0x14
 849 0524 D0030000 		.4byte	.LASF92
ARM GAS  /tmp/ccQIqwam.s 			page 16


 850 0528 00       		.sleb128 0
 851 0529 14       		.uleb128 0x14
 852 052a 67060000 		.4byte	.LASF93
 853 052e 01       		.sleb128 1
 854 052f 00       		.byte	0
 855 0530 03       		.uleb128 0x3
 856 0531 86050000 		.4byte	.LASF94
 857 0535 09       		.byte	0x9
 858 0536 DC       		.byte	0xdc
 859 0537 17050000 		.4byte	0x517
 860 053b 03       		.uleb128 0x3
 861 053c 79010000 		.4byte	.LASF95
 862 0540 0A       		.byte	0xa
 863 0541 65       		.byte	0x65
 864 0542 7D030000 		.4byte	0x37d
 865 0546 03       		.uleb128 0x3
 866 0547 83030000 		.4byte	.LASF96
 867 054b 0A       		.byte	0xa
 868 054c 6D       		.byte	0x6d
 869 054d B8000000 		.4byte	0xb8
 870 0551 06       		.uleb128 0x6
 871 0552 EB030000 		.4byte	.LASF97
 872 0556 04       		.byte	0x4
 873 0557 0A       		.byte	0xa
 874 0558 89       		.byte	0x89
 875 0559 69050000 		.4byte	0x569
 876 055d 0B       		.uleb128 0xb
 877 055e 737000   		.ascii	"sp\000"
 878 0561 0A       		.byte	0xa
 879 0562 8A       		.byte	0x8a
 880 0563 B5060000 		.4byte	0x6b5
 881 0567 00       		.byte	0
 882 0568 00       		.byte	0
 883 0569 0F       		.uleb128 0xf
 884 056a 57000000 		.4byte	.LASF98
 885 056e 64       		.byte	0x64
 886 056f 0B       		.byte	0xb
 887 0570 5901     		.2byte	0x159
 888 0572 B5060000 		.4byte	0x6b5
 889 0576 0C       		.uleb128 0xc
 890 0577 73313600 		.ascii	"s16\000"
 891 057b 0B       		.byte	0xb
 892 057c 5B01     		.2byte	0x15b
 893 057e 3B050000 		.4byte	0x53b
 894 0582 00       		.byte	0
 895 0583 0C       		.uleb128 0xc
 896 0584 73313700 		.ascii	"s17\000"
 897 0588 0B       		.byte	0xb
 898 0589 5C01     		.2byte	0x15c
 899 058b 3B050000 		.4byte	0x53b
 900 058f 04       		.byte	0x4
 901 0590 0C       		.uleb128 0xc
 902 0591 73313800 		.ascii	"s18\000"
 903 0595 0B       		.byte	0xb
 904 0596 5D01     		.2byte	0x15d
 905 0598 3B050000 		.4byte	0x53b
 906 059c 08       		.byte	0x8
ARM GAS  /tmp/ccQIqwam.s 			page 17


 907 059d 0C       		.uleb128 0xc
 908 059e 73313900 		.ascii	"s19\000"
 909 05a2 0B       		.byte	0xb
 910 05a3 5E01     		.2byte	0x15e
 911 05a5 3B050000 		.4byte	0x53b
 912 05a9 0C       		.byte	0xc
 913 05aa 0C       		.uleb128 0xc
 914 05ab 73323000 		.ascii	"s20\000"
 915 05af 0B       		.byte	0xb
 916 05b0 5F01     		.2byte	0x15f
 917 05b2 3B050000 		.4byte	0x53b
 918 05b6 10       		.byte	0x10
 919 05b7 0C       		.uleb128 0xc
 920 05b8 73323100 		.ascii	"s21\000"
 921 05bc 0B       		.byte	0xb
 922 05bd 6001     		.2byte	0x160
 923 05bf 3B050000 		.4byte	0x53b
 924 05c3 14       		.byte	0x14
 925 05c4 0C       		.uleb128 0xc
 926 05c5 73323200 		.ascii	"s22\000"
 927 05c9 0B       		.byte	0xb
 928 05ca 6101     		.2byte	0x161
 929 05cc 3B050000 		.4byte	0x53b
 930 05d0 18       		.byte	0x18
 931 05d1 0C       		.uleb128 0xc
 932 05d2 73323300 		.ascii	"s23\000"
 933 05d6 0B       		.byte	0xb
 934 05d7 6201     		.2byte	0x162
 935 05d9 3B050000 		.4byte	0x53b
 936 05dd 1C       		.byte	0x1c
 937 05de 0C       		.uleb128 0xc
 938 05df 73323400 		.ascii	"s24\000"
 939 05e3 0B       		.byte	0xb
 940 05e4 6301     		.2byte	0x163
 941 05e6 3B050000 		.4byte	0x53b
 942 05ea 20       		.byte	0x20
 943 05eb 0C       		.uleb128 0xc
 944 05ec 73323500 		.ascii	"s25\000"
 945 05f0 0B       		.byte	0xb
 946 05f1 6401     		.2byte	0x164
 947 05f3 3B050000 		.4byte	0x53b
 948 05f7 24       		.byte	0x24
 949 05f8 0C       		.uleb128 0xc
 950 05f9 73323600 		.ascii	"s26\000"
 951 05fd 0B       		.byte	0xb
 952 05fe 6501     		.2byte	0x165
 953 0600 3B050000 		.4byte	0x53b
 954 0604 28       		.byte	0x28
 955 0605 0C       		.uleb128 0xc
 956 0606 73323700 		.ascii	"s27\000"
 957 060a 0B       		.byte	0xb
 958 060b 6601     		.2byte	0x166
 959 060d 3B050000 		.4byte	0x53b
 960 0611 2C       		.byte	0x2c
 961 0612 0C       		.uleb128 0xc
 962 0613 73323800 		.ascii	"s28\000"
 963 0617 0B       		.byte	0xb
ARM GAS  /tmp/ccQIqwam.s 			page 18


 964 0618 6701     		.2byte	0x167
 965 061a 3B050000 		.4byte	0x53b
 966 061e 30       		.byte	0x30
 967 061f 0C       		.uleb128 0xc
 968 0620 73323900 		.ascii	"s29\000"
 969 0624 0B       		.byte	0xb
 970 0625 6801     		.2byte	0x168
 971 0627 3B050000 		.4byte	0x53b
 972 062b 34       		.byte	0x34
 973 062c 0C       		.uleb128 0xc
 974 062d 73333000 		.ascii	"s30\000"
 975 0631 0B       		.byte	0xb
 976 0632 6901     		.2byte	0x169
 977 0634 3B050000 		.4byte	0x53b
 978 0638 38       		.byte	0x38
 979 0639 0C       		.uleb128 0xc
 980 063a 73333100 		.ascii	"s31\000"
 981 063e 0B       		.byte	0xb
 982 063f 6A01     		.2byte	0x16a
 983 0641 3B050000 		.4byte	0x53b
 984 0645 3C       		.byte	0x3c
 985 0646 0C       		.uleb128 0xc
 986 0647 723400   		.ascii	"r4\000"
 987 064a 0B       		.byte	0xb
 988 064b 6C01     		.2byte	0x16c
 989 064d 3B050000 		.4byte	0x53b
 990 0651 40       		.byte	0x40
 991 0652 0C       		.uleb128 0xc
 992 0653 723500   		.ascii	"r5\000"
 993 0656 0B       		.byte	0xb
 994 0657 6D01     		.2byte	0x16d
 995 0659 3B050000 		.4byte	0x53b
 996 065d 44       		.byte	0x44
 997 065e 0C       		.uleb128 0xc
 998 065f 723600   		.ascii	"r6\000"
 999 0662 0B       		.byte	0xb
 1000 0663 6E01     		.2byte	0x16e
 1001 0665 3B050000 		.4byte	0x53b
 1002 0669 48       		.byte	0x48
 1003 066a 0C       		.uleb128 0xc
 1004 066b 723700   		.ascii	"r7\000"
 1005 066e 0B       		.byte	0xb
 1006 066f 6F01     		.2byte	0x16f
 1007 0671 3B050000 		.4byte	0x53b
 1008 0675 4C       		.byte	0x4c
 1009 0676 0C       		.uleb128 0xc
 1010 0677 723800   		.ascii	"r8\000"
 1011 067a 0B       		.byte	0xb
 1012 067b 7001     		.2byte	0x170
 1013 067d 3B050000 		.4byte	0x53b
 1014 0681 50       		.byte	0x50
 1015 0682 0C       		.uleb128 0xc
 1016 0683 723900   		.ascii	"r9\000"
 1017 0686 0B       		.byte	0xb
 1018 0687 7101     		.2byte	0x171
 1019 0689 3B050000 		.4byte	0x53b
 1020 068d 54       		.byte	0x54
ARM GAS  /tmp/ccQIqwam.s 			page 19


 1021 068e 0C       		.uleb128 0xc
 1022 068f 72313000 		.ascii	"r10\000"
 1023 0693 0B       		.byte	0xb
 1024 0694 7201     		.2byte	0x172
 1025 0696 3B050000 		.4byte	0x53b
 1026 069a 58       		.byte	0x58
 1027 069b 0C       		.uleb128 0xc
 1028 069c 72313100 		.ascii	"r11\000"
 1029 06a0 0B       		.byte	0xb
 1030 06a1 7301     		.2byte	0x173
 1031 06a3 3B050000 		.4byte	0x53b
 1032 06a7 5C       		.byte	0x5c
 1033 06a8 0C       		.uleb128 0xc
 1034 06a9 6C7200   		.ascii	"lr\000"
 1035 06ac 0B       		.byte	0xb
 1036 06ad 7401     		.2byte	0x174
 1037 06af 3B050000 		.4byte	0x53b
 1038 06b3 60       		.byte	0x60
 1039 06b4 00       		.byte	0
 1040 06b5 0E       		.uleb128 0xe
 1041 06b6 04       		.byte	0x4
 1042 06b7 69050000 		.4byte	0x569
 1043 06bb 16       		.uleb128 0x16
 1044 06bc 04       		.byte	0x4
 1045 06bd 0C       		.byte	0xc
 1046 06be 38       		.byte	0x38
 1047 06bf 3F060000 		.4byte	.LASF101
 1048 06c3 D4060000 		.4byte	0x6d4
 1049 06c7 0A       		.uleb128 0xa
 1050 06c8 C9050000 		.4byte	.LASF99
 1051 06cc 0C       		.byte	0xc
 1052 06cd 3C       		.byte	0x3c
 1053 06ce CF000000 		.4byte	0xcf
 1054 06d2 00       		.byte	0
 1055 06d3 00       		.byte	0
 1056 06d4 03       		.uleb128 0x3
 1057 06d5 08040000 		.4byte	.LASF100
 1058 06d9 0C       		.byte	0xc
 1059 06da 3D       		.byte	0x3d
 1060 06db BB060000 		.4byte	0x6bb
 1061 06df 16       		.uleb128 0x16
 1062 06e0 18       		.byte	0x18
 1063 06e1 0C       		.byte	0xc
 1064 06e2 48       		.byte	0x48
 1065 06e3 D6030000 		.4byte	.LASF102
 1066 06e7 26070000 		.4byte	0x726
 1067 06eb 0A       		.uleb128 0xa
 1068 06ec 9B050000 		.4byte	.LASF103
 1069 06f0 0C       		.byte	0xc
 1070 06f1 49       		.byte	0x49
 1071 06f2 CF000000 		.4byte	0xcf
 1072 06f6 00       		.byte	0
 1073 06f7 0A       		.uleb128 0xa
 1074 06f8 83000000 		.4byte	.LASF104
 1075 06fc 0C       		.byte	0xc
 1076 06fd 4A       		.byte	0x4a
 1077 06fe CF000000 		.4byte	0xcf
ARM GAS  /tmp/ccQIqwam.s 			page 20


 1078 0702 04       		.byte	0x4
 1079 0703 0A       		.uleb128 0xa
 1080 0704 0A030000 		.4byte	.LASF105
 1081 0708 0C       		.byte	0xc
 1082 0709 4B       		.byte	0x4b
 1083 070a CF000000 		.4byte	0xcf
 1084 070e 08       		.byte	0x8
 1085 070f 0B       		.uleb128 0xb
 1086 0710 6E00     		.ascii	"n\000"
 1087 0712 0C       		.byte	0xc
 1088 0713 4C       		.byte	0x4c
 1089 0714 32010000 		.4byte	0x132
 1090 0718 0C       		.byte	0xc
 1091 0719 0A       		.uleb128 0xa
 1092 071a 31040000 		.4byte	.LASF106
 1093 071e 0C       		.byte	0xc
 1094 071f 4D       		.byte	0x4d
 1095 0720 DA000000 		.4byte	0xda
 1096 0724 10       		.byte	0x10
 1097 0725 00       		.byte	0
 1098 0726 03       		.uleb128 0x3
 1099 0727 91000000 		.4byte	.LASF107
 1100 072b 0C       		.byte	0xc
 1101 072c 4E       		.byte	0x4e
 1102 072d DF060000 		.4byte	0x6df
 1103 0731 16       		.uleb128 0x16
 1104 0732 38       		.byte	0x38
 1105 0733 0D       		.byte	0xd
 1106 0734 38       		.byte	0x38
 1107 0735 75060000 		.4byte	.LASF108
 1108 0739 6E070000 		.4byte	0x76e
 1109 073d 0A       		.uleb128 0xa
 1110 073e CE020000 		.4byte	.LASF109
 1111 0742 0D       		.byte	0xd
 1112 0743 39       		.byte	0x39
 1113 0744 32010000 		.4byte	0x132
 1114 0748 00       		.byte	0
 1115 0749 0A       		.uleb128 0xa
 1116 074a 67040000 		.4byte	.LASF110
 1117 074e 0D       		.byte	0xd
 1118 074f 3A       		.byte	0x3a
 1119 0750 32010000 		.4byte	0x132
 1120 0754 04       		.byte	0x4
 1121 0755 0A       		.uleb128 0xa
 1122 0756 B1060000 		.4byte	.LASF111
 1123 075a 0D       		.byte	0xd
 1124 075b 3B       		.byte	0x3b
 1125 075c 26070000 		.4byte	0x726
 1126 0760 08       		.byte	0x8
 1127 0761 0A       		.uleb128 0xa
 1128 0762 3C030000 		.4byte	.LASF112
 1129 0766 0D       		.byte	0xd
 1130 0767 3D       		.byte	0x3d
 1131 0768 26070000 		.4byte	0x726
 1132 076c 20       		.byte	0x20
 1133 076d 00       		.byte	0
 1134 076e 03       		.uleb128 0x3
ARM GAS  /tmp/ccQIqwam.s 			page 21


 1135 076f E6020000 		.4byte	.LASF113
 1136 0773 0D       		.byte	0xd
 1137 0774 3F       		.byte	0x3f
 1138 0775 31070000 		.4byte	0x731
 1139 0779 0E       		.uleb128 0xe
 1140 077a 04       		.byte	0x4
 1141 077b 95020000 		.4byte	0x295
 1142 077f 06       		.uleb128 0x6
 1143 0780 08050000 		.4byte	.LASF114
 1144 0784 0C       		.byte	0xc
 1145 0785 0E       		.byte	0xe
 1146 0786 34       		.byte	0x34
 1147 0787 A4070000 		.4byte	0x7a4
 1148 078b 0A       		.uleb128 0xa
 1149 078c D4020000 		.4byte	.LASF37
 1150 0790 0E       		.byte	0xe
 1151 0791 35       		.byte	0x35
 1152 0792 CA020000 		.4byte	0x2ca
 1153 0796 00       		.byte	0
 1154 0797 0B       		.uleb128 0xb
 1155 0798 636E7400 		.ascii	"cnt\000"
 1156 079c 0E       		.byte	0xe
 1157 079d 37       		.byte	0x37
 1158 079e 27010000 		.4byte	0x127
 1159 07a2 08       		.byte	0x8
 1160 07a3 00       		.byte	0
 1161 07a4 0E       		.uleb128 0xe
 1162 07a5 04       		.byte	0x4
 1163 07a6 7F070000 		.4byte	0x77f
 1164 07aa 06       		.uleb128 0x6
 1165 07ab D0050000 		.4byte	.LASF115
 1166 07af 10       		.byte	0x10
 1167 07b0 0F       		.byte	0xf
 1168 07b1 39       		.byte	0x39
 1169 07b2 DB070000 		.4byte	0x7db
 1170 07b6 0A       		.uleb128 0xa
 1171 07b7 D4020000 		.4byte	.LASF37
 1172 07bb 0F       		.byte	0xf
 1173 07bc 3A       		.byte	0x3a
 1174 07bd CA020000 		.4byte	0x2ca
 1175 07c1 00       		.byte	0
 1176 07c2 0A       		.uleb128 0xa
 1177 07c3 2E050000 		.4byte	.LASF116
 1178 07c7 0F       		.byte	0xf
 1179 07c8 3C       		.byte	0x3c
 1180 07c9 A0020000 		.4byte	0x2a0
 1181 07cd 08       		.byte	0x8
 1182 07ce 0A       		.uleb128 0xa
 1183 07cf FA000000 		.4byte	.LASF57
 1184 07d3 0F       		.byte	0xf
 1185 07d4 3E       		.byte	0x3e
 1186 07d5 0F080000 		.4byte	0x80f
 1187 07d9 0C       		.byte	0xc
 1188 07da 00       		.byte	0
 1189 07db 0E       		.uleb128 0xe
 1190 07dc 04       		.byte	0x4
 1191 07dd AA070000 		.4byte	0x7aa
ARM GAS  /tmp/ccQIqwam.s 			page 22


 1192 07e1 0E       		.uleb128 0xe
 1193 07e2 04       		.byte	0x4
 1194 07e3 E7070000 		.4byte	0x7e7
 1195 07e7 17       		.uleb128 0x17
 1196 07e8 EC070000 		.4byte	0x7ec
 1197 07ec 02       		.uleb128 0x2
 1198 07ed 01       		.byte	0x1
 1199 07ee 08       		.byte	0x8
 1200 07ef 74050000 		.4byte	.LASF117
 1201 07f3 0E       		.uleb128 0xe
 1202 07f4 04       		.byte	0x4
 1203 07f5 46050000 		.4byte	0x546
 1204 07f9 0E       		.uleb128 0xe
 1205 07fa 04       		.byte	0x4
 1206 07fb 7F030000 		.4byte	0x37f
 1207 07ff 18       		.uleb128 0x18
 1208 0800 E1070000 		.4byte	0x7e1
 1209 0804 03       		.uleb128 0x3
 1210 0805 9A010000 		.4byte	.LASF118
 1211 0809 0F       		.byte	0xf
 1212 080a 34       		.byte	0x34
 1213 080b AA070000 		.4byte	0x7aa
 1214 080f 0E       		.uleb128 0xe
 1215 0810 04       		.byte	0x4
 1216 0811 04080000 		.4byte	0x804
 1217 0815 02       		.uleb128 0x2
 1218 0816 01       		.byte	0x1
 1219 0817 02       		.byte	0x2
 1220 0818 37030000 		.4byte	.LASF119
 1221 081c 19       		.uleb128 0x19
 1222 081d 68050000 		.4byte	.LASF131
 1223 0821 01       		.byte	0x1
 1224 0822 DE01     		.2byte	0x1de
 1225 0824 00000000 		.4byte	.LFB291
 1226 0828 12000000 		.4byte	.LFE291-.LFB291
 1227 082c 01       		.uleb128 0x1
 1228 082d 9C       		.byte	0x9c
 1229 082e 42080000 		.4byte	0x842
 1230 0832 1A       		.uleb128 0x1a
 1231 0833 E9040000 		.4byte	.LASF120
 1232 0837 01       		.byte	0x1
 1233 0838 DE01     		.2byte	0x1de
 1234 083a E1070000 		.4byte	0x7e1
 1235 083e 02       		.uleb128 0x2
 1236 083f 91       		.byte	0x91
 1237 0840 74       		.sleb128 -12
 1238 0841 00       		.byte	0
 1239 0842 1B       		.uleb128 0x1b
 1240 0843 E0020000 		.4byte	.LASF132
 1241 0847 02       		.byte	0x2
 1242 0848 0C       		.byte	0xc
 1243 0849 00000000 		.4byte	.LFB323
 1244 084d 14000000 		.4byte	.LFE323-.LFB323
 1245 0851 01       		.uleb128 0x1
 1246 0852 9C       		.byte	0x9c
 1247 0853 66080000 		.4byte	0x866
 1248 0857 1C       		.uleb128 0x1c
ARM GAS  /tmp/ccQIqwam.s 			page 23


 1249 0858 52060000 		.4byte	.LASF121
 1250 085c 02       		.byte	0x2
 1251 085d 0C       		.byte	0xc
 1252 085e 89000000 		.4byte	0x89
 1253 0862 02       		.uleb128 0x2
 1254 0863 91       		.byte	0x91
 1255 0864 74       		.sleb128 -12
 1256 0865 00       		.byte	0
 1257 0866 1D       		.uleb128 0x1d
 1258 0867 D9050000 		.4byte	.LASF133
 1259 086b 02       		.byte	0x2
 1260 086c 14       		.byte	0x14
 1261 086d 89000000 		.4byte	0x89
 1262 0871 00000000 		.4byte	.LFB324
 1263 0875 1C000000 		.4byte	.LFE324-.LFB324
 1264 0879 01       		.uleb128 0x1
 1265 087a 9C       		.byte	0x9c
 1266 087b 9C080000 		.4byte	0x89c
 1267 087f 1E       		.uleb128 0x1e
 1268 0880 70696400 		.ascii	"pid\000"
 1269 0884 02       		.byte	0x2
 1270 0885 14       		.byte	0x14
 1271 0886 89000000 		.4byte	0x89
 1272 088a 02       		.uleb128 0x2
 1273 088b 91       		.byte	0x91
 1274 088c 7C       		.sleb128 -4
 1275 088d 1E       		.uleb128 0x1e
 1276 088e 73696700 		.ascii	"sig\000"
 1277 0892 02       		.byte	0x2
 1278 0893 14       		.byte	0x14
 1279 0894 89000000 		.4byte	0x89
 1280 0898 02       		.uleb128 0x2
 1281 0899 91       		.byte	0x91
 1282 089a 78       		.sleb128 -8
 1283 089b 00       		.byte	0
 1284 089c 1F       		.uleb128 0x1f
 1285 089d 47050000 		.4byte	.LASF122
 1286 08a1 02       		.byte	0x2
 1287 08a2 1B       		.byte	0x1b
 1288 08a3 00000000 		.4byte	.LFB325
 1289 08a7 04000000 		.4byte	.LFE325-.LFB325
 1290 08ab 01       		.uleb128 0x1
 1291 08ac 9C       		.byte	0x9c
 1292 08ad 20       		.uleb128 0x20
 1293 08ae 34050000 		.4byte	.LASF123
 1294 08b2 02       		.byte	0x2
 1295 08b3 1F       		.byte	0x1f
 1296 08b4 00000000 		.4byte	.LFB326
 1297 08b8 10000000 		.4byte	.LFE326-.LFB326
 1298 08bc 01       		.uleb128 0x1
 1299 08bd 9C       		.byte	0x9c
 1300 08be 21       		.uleb128 0x21
 1301 08bf ED000000 		.4byte	.LASF124
 1302 08c3 10       		.byte	0x10
 1303 08c4 0408     		.2byte	0x804
 1304 08c6 CA080000 		.4byte	0x8ca
 1305 08ca 18       		.uleb128 0x18
ARM GAS  /tmp/ccQIqwam.s 			page 24


 1306 08cb A2000000 		.4byte	0xa2
 1307 08cf 22       		.uleb128 0x22
 1308 08d0 636800   		.ascii	"ch\000"
 1309 08d3 07       		.byte	0x7
 1310 08d4 C701     		.2byte	0x1c7
 1311 08d6 4C040000 		.4byte	0x44c
 1312 08da 23       		.uleb128 0x23
 1313 08db A4060000 		.4byte	.LASF125
 1314 08df 11       		.byte	0x11
 1315 08e0 0B       		.byte	0xb
 1316 08e1 7D030000 		.4byte	0x37d
 1317 08e5 05       		.uleb128 0x5
 1318 08e6 03       		.byte	0x3
 1319 08e7 00000000 		.4byte	__dso_handle
 1320 08eb 24       		.uleb128 0x24
 1321 08ec 7D030000 		.4byte	.LASF126
 1322 08f0 02       		.byte	0x2
 1323 08f1 13       		.byte	0x13
 1324 08f2 89000000 		.4byte	0x89
 1325 08f6 00       		.byte	0
 1326              		.section	.debug_abbrev,"",%progbits
 1327              	.Ldebug_abbrev0:
 1328 0000 01       		.uleb128 0x1
 1329 0001 11       		.uleb128 0x11
 1330 0002 01       		.byte	0x1
 1331 0003 25       		.uleb128 0x25
 1332 0004 0E       		.uleb128 0xe
 1333 0005 13       		.uleb128 0x13
 1334 0006 0B       		.uleb128 0xb
 1335 0007 03       		.uleb128 0x3
 1336 0008 0E       		.uleb128 0xe
 1337 0009 1B       		.uleb128 0x1b
 1338 000a 0E       		.uleb128 0xe
 1339 000b 55       		.uleb128 0x55
 1340 000c 17       		.uleb128 0x17
 1341 000d 11       		.uleb128 0x11
 1342 000e 01       		.uleb128 0x1
 1343 000f 10       		.uleb128 0x10
 1344 0010 17       		.uleb128 0x17
 1345 0011 00       		.byte	0
 1346 0012 00       		.byte	0
 1347 0013 02       		.uleb128 0x2
 1348 0014 24       		.uleb128 0x24
 1349 0015 00       		.byte	0
 1350 0016 0B       		.uleb128 0xb
 1351 0017 0B       		.uleb128 0xb
 1352 0018 3E       		.uleb128 0x3e
 1353 0019 0B       		.uleb128 0xb
 1354 001a 03       		.uleb128 0x3
 1355 001b 0E       		.uleb128 0xe
 1356 001c 00       		.byte	0
 1357 001d 00       		.byte	0
 1358 001e 03       		.uleb128 0x3
 1359 001f 16       		.uleb128 0x16
 1360 0020 00       		.byte	0
 1361 0021 03       		.uleb128 0x3
 1362 0022 0E       		.uleb128 0xe
ARM GAS  /tmp/ccQIqwam.s 			page 25


 1363 0023 3A       		.uleb128 0x3a
 1364 0024 0B       		.uleb128 0xb
 1365 0025 3B       		.uleb128 0x3b
 1366 0026 0B       		.uleb128 0xb
 1367 0027 49       		.uleb128 0x49
 1368 0028 13       		.uleb128 0x13
 1369 0029 00       		.byte	0
 1370 002a 00       		.byte	0
 1371 002b 04       		.uleb128 0x4
 1372 002c 24       		.uleb128 0x24
 1373 002d 00       		.byte	0
 1374 002e 0B       		.uleb128 0xb
 1375 002f 0B       		.uleb128 0xb
 1376 0030 3E       		.uleb128 0x3e
 1377 0031 0B       		.uleb128 0xb
 1378 0032 03       		.uleb128 0x3
 1379 0033 08       		.uleb128 0x8
 1380 0034 00       		.byte	0
 1381 0035 00       		.byte	0
 1382 0036 05       		.uleb128 0x5
 1383 0037 3B       		.uleb128 0x3b
 1384 0038 00       		.byte	0
 1385 0039 03       		.uleb128 0x3
 1386 003a 0E       		.uleb128 0xe
 1387 003b 00       		.byte	0
 1388 003c 00       		.byte	0
 1389 003d 06       		.uleb128 0x6
 1390 003e 13       		.uleb128 0x13
 1391 003f 01       		.byte	0x1
 1392 0040 03       		.uleb128 0x3
 1393 0041 0E       		.uleb128 0xe
 1394 0042 0B       		.uleb128 0xb
 1395 0043 0B       		.uleb128 0xb
 1396 0044 3A       		.uleb128 0x3a
 1397 0045 0B       		.uleb128 0xb
 1398 0046 3B       		.uleb128 0x3b
 1399 0047 0B       		.uleb128 0xb
 1400 0048 01       		.uleb128 0x1
 1401 0049 13       		.uleb128 0x13
 1402 004a 00       		.byte	0
 1403 004b 00       		.byte	0
 1404 004c 07       		.uleb128 0x7
 1405 004d 17       		.uleb128 0x17
 1406 004e 01       		.byte	0x1
 1407 004f 0B       		.uleb128 0xb
 1408 0050 0B       		.uleb128 0xb
 1409 0051 3A       		.uleb128 0x3a
 1410 0052 0B       		.uleb128 0xb
 1411 0053 3B       		.uleb128 0x3b
 1412 0054 0B       		.uleb128 0xb
 1413 0055 01       		.uleb128 0x1
 1414 0056 13       		.uleb128 0x13
 1415 0057 00       		.byte	0
 1416 0058 00       		.byte	0
 1417 0059 08       		.uleb128 0x8
 1418 005a 0D       		.uleb128 0xd
 1419 005b 00       		.byte	0
ARM GAS  /tmp/ccQIqwam.s 			page 26


 1420 005c 03       		.uleb128 0x3
 1421 005d 0E       		.uleb128 0xe
 1422 005e 3A       		.uleb128 0x3a
 1423 005f 0B       		.uleb128 0xb
 1424 0060 3B       		.uleb128 0x3b
 1425 0061 0B       		.uleb128 0xb
 1426 0062 49       		.uleb128 0x49
 1427 0063 13       		.uleb128 0x13
 1428 0064 00       		.byte	0
 1429 0065 00       		.byte	0
 1430 0066 09       		.uleb128 0x9
 1431 0067 0D       		.uleb128 0xd
 1432 0068 00       		.byte	0
 1433 0069 03       		.uleb128 0x3
 1434 006a 0E       		.uleb128 0xe
 1435 006b 3A       		.uleb128 0x3a
 1436 006c 0B       		.uleb128 0xb
 1437 006d 3B       		.uleb128 0x3b
 1438 006e 05       		.uleb128 0x5
 1439 006f 49       		.uleb128 0x49
 1440 0070 13       		.uleb128 0x13
 1441 0071 00       		.byte	0
 1442 0072 00       		.byte	0
 1443 0073 0A       		.uleb128 0xa
 1444 0074 0D       		.uleb128 0xd
 1445 0075 00       		.byte	0
 1446 0076 03       		.uleb128 0x3
 1447 0077 0E       		.uleb128 0xe
 1448 0078 3A       		.uleb128 0x3a
 1449 0079 0B       		.uleb128 0xb
 1450 007a 3B       		.uleb128 0x3b
 1451 007b 0B       		.uleb128 0xb
 1452 007c 49       		.uleb128 0x49
 1453 007d 13       		.uleb128 0x13
 1454 007e 38       		.uleb128 0x38
 1455 007f 0B       		.uleb128 0xb
 1456 0080 00       		.byte	0
 1457 0081 00       		.byte	0
 1458 0082 0B       		.uleb128 0xb
 1459 0083 0D       		.uleb128 0xd
 1460 0084 00       		.byte	0
 1461 0085 03       		.uleb128 0x3
 1462 0086 08       		.uleb128 0x8
 1463 0087 3A       		.uleb128 0x3a
 1464 0088 0B       		.uleb128 0xb
 1465 0089 3B       		.uleb128 0x3b
 1466 008a 0B       		.uleb128 0xb
 1467 008b 49       		.uleb128 0x49
 1468 008c 13       		.uleb128 0x13
 1469 008d 38       		.uleb128 0x38
 1470 008e 0B       		.uleb128 0xb
 1471 008f 00       		.byte	0
 1472 0090 00       		.byte	0
 1473 0091 0C       		.uleb128 0xc
 1474 0092 0D       		.uleb128 0xd
 1475 0093 00       		.byte	0
 1476 0094 03       		.uleb128 0x3
ARM GAS  /tmp/ccQIqwam.s 			page 27


 1477 0095 08       		.uleb128 0x8
 1478 0096 3A       		.uleb128 0x3a
 1479 0097 0B       		.uleb128 0xb
 1480 0098 3B       		.uleb128 0x3b
 1481 0099 05       		.uleb128 0x5
 1482 009a 49       		.uleb128 0x49
 1483 009b 13       		.uleb128 0x13
 1484 009c 38       		.uleb128 0x38
 1485 009d 0B       		.uleb128 0xb
 1486 009e 00       		.byte	0
 1487 009f 00       		.byte	0
 1488 00a0 0D       		.uleb128 0xd
 1489 00a1 0D       		.uleb128 0xd
 1490 00a2 00       		.byte	0
 1491 00a3 03       		.uleb128 0x3
 1492 00a4 0E       		.uleb128 0xe
 1493 00a5 3A       		.uleb128 0x3a
 1494 00a6 0B       		.uleb128 0xb
 1495 00a7 3B       		.uleb128 0x3b
 1496 00a8 05       		.uleb128 0x5
 1497 00a9 49       		.uleb128 0x49
 1498 00aa 13       		.uleb128 0x13
 1499 00ab 38       		.uleb128 0x38
 1500 00ac 0B       		.uleb128 0xb
 1501 00ad 00       		.byte	0
 1502 00ae 00       		.byte	0
 1503 00af 0E       		.uleb128 0xe
 1504 00b0 0F       		.uleb128 0xf
 1505 00b1 00       		.byte	0
 1506 00b2 0B       		.uleb128 0xb
 1507 00b3 0B       		.uleb128 0xb
 1508 00b4 49       		.uleb128 0x49
 1509 00b5 13       		.uleb128 0x13
 1510 00b6 00       		.byte	0
 1511 00b7 00       		.byte	0
 1512 00b8 0F       		.uleb128 0xf
 1513 00b9 13       		.uleb128 0x13
 1514 00ba 01       		.byte	0x1
 1515 00bb 03       		.uleb128 0x3
 1516 00bc 0E       		.uleb128 0xe
 1517 00bd 0B       		.uleb128 0xb
 1518 00be 0B       		.uleb128 0xb
 1519 00bf 3A       		.uleb128 0x3a
 1520 00c0 0B       		.uleb128 0xb
 1521 00c1 3B       		.uleb128 0x3b
 1522 00c2 05       		.uleb128 0x5
 1523 00c3 01       		.uleb128 0x1
 1524 00c4 13       		.uleb128 0x13
 1525 00c5 00       		.byte	0
 1526 00c6 00       		.byte	0
 1527 00c7 10       		.uleb128 0x10
 1528 00c8 15       		.uleb128 0x15
 1529 00c9 01       		.byte	0x1
 1530 00ca 01       		.uleb128 0x1
 1531 00cb 13       		.uleb128 0x13
 1532 00cc 00       		.byte	0
 1533 00cd 00       		.byte	0
ARM GAS  /tmp/ccQIqwam.s 			page 28


 1534 00ce 11       		.uleb128 0x11
 1535 00cf 05       		.uleb128 0x5
 1536 00d0 00       		.byte	0
 1537 00d1 49       		.uleb128 0x49
 1538 00d2 13       		.uleb128 0x13
 1539 00d3 00       		.byte	0
 1540 00d4 00       		.byte	0
 1541 00d5 12       		.uleb128 0x12
 1542 00d6 0F       		.uleb128 0xf
 1543 00d7 00       		.byte	0
 1544 00d8 0B       		.uleb128 0xb
 1545 00d9 0B       		.uleb128 0xb
 1546 00da 00       		.byte	0
 1547 00db 00       		.byte	0
 1548 00dc 13       		.uleb128 0x13
 1549 00dd 04       		.uleb128 0x4
 1550 00de 01       		.byte	0x1
 1551 00df 0B       		.uleb128 0xb
 1552 00e0 0B       		.uleb128 0xb
 1553 00e1 3A       		.uleb128 0x3a
 1554 00e2 0B       		.uleb128 0xb
 1555 00e3 3B       		.uleb128 0x3b
 1556 00e4 0B       		.uleb128 0xb
 1557 00e5 6E       		.uleb128 0x6e
 1558 00e6 0E       		.uleb128 0xe
 1559 00e7 01       		.uleb128 0x1
 1560 00e8 13       		.uleb128 0x13
 1561 00e9 00       		.byte	0
 1562 00ea 00       		.byte	0
 1563 00eb 14       		.uleb128 0x14
 1564 00ec 28       		.uleb128 0x28
 1565 00ed 00       		.byte	0
 1566 00ee 03       		.uleb128 0x3
 1567 00ef 0E       		.uleb128 0xe
 1568 00f0 1C       		.uleb128 0x1c
 1569 00f1 0D       		.uleb128 0xd
 1570 00f2 00       		.byte	0
 1571 00f3 00       		.byte	0
 1572 00f4 15       		.uleb128 0x15
 1573 00f5 28       		.uleb128 0x28
 1574 00f6 00       		.byte	0
 1575 00f7 03       		.uleb128 0x3
 1576 00f8 08       		.uleb128 0x8
 1577 00f9 1C       		.uleb128 0x1c
 1578 00fa 0D       		.uleb128 0xd
 1579 00fb 00       		.byte	0
 1580 00fc 00       		.byte	0
 1581 00fd 16       		.uleb128 0x16
 1582 00fe 13       		.uleb128 0x13
 1583 00ff 01       		.byte	0x1
 1584 0100 0B       		.uleb128 0xb
 1585 0101 0B       		.uleb128 0xb
 1586 0102 3A       		.uleb128 0x3a
 1587 0103 0B       		.uleb128 0xb
 1588 0104 3B       		.uleb128 0x3b
 1589 0105 0B       		.uleb128 0xb
 1590 0106 6E       		.uleb128 0x6e
ARM GAS  /tmp/ccQIqwam.s 			page 29


 1591 0107 0E       		.uleb128 0xe
 1592 0108 01       		.uleb128 0x1
 1593 0109 13       		.uleb128 0x13
 1594 010a 00       		.byte	0
 1595 010b 00       		.byte	0
 1596 010c 17       		.uleb128 0x17
 1597 010d 26       		.uleb128 0x26
 1598 010e 00       		.byte	0
 1599 010f 49       		.uleb128 0x49
 1600 0110 13       		.uleb128 0x13
 1601 0111 00       		.byte	0
 1602 0112 00       		.byte	0
 1603 0113 18       		.uleb128 0x18
 1604 0114 35       		.uleb128 0x35
 1605 0115 00       		.byte	0
 1606 0116 49       		.uleb128 0x49
 1607 0117 13       		.uleb128 0x13
 1608 0118 00       		.byte	0
 1609 0119 00       		.byte	0
 1610 011a 19       		.uleb128 0x19
 1611 011b 2E       		.uleb128 0x2e
 1612 011c 01       		.byte	0x1
 1613 011d 03       		.uleb128 0x3
 1614 011e 0E       		.uleb128 0xe
 1615 011f 3A       		.uleb128 0x3a
 1616 0120 0B       		.uleb128 0xb
 1617 0121 3B       		.uleb128 0x3b
 1618 0122 05       		.uleb128 0x5
 1619 0123 11       		.uleb128 0x11
 1620 0124 01       		.uleb128 0x1
 1621 0125 12       		.uleb128 0x12
 1622 0126 06       		.uleb128 0x6
 1623 0127 40       		.uleb128 0x40
 1624 0128 18       		.uleb128 0x18
 1625 0129 9642     		.uleb128 0x2116
 1626 012b 19       		.uleb128 0x19
 1627 012c 01       		.uleb128 0x1
 1628 012d 13       		.uleb128 0x13
 1629 012e 00       		.byte	0
 1630 012f 00       		.byte	0
 1631 0130 1A       		.uleb128 0x1a
 1632 0131 05       		.uleb128 0x5
 1633 0132 00       		.byte	0
 1634 0133 03       		.uleb128 0x3
 1635 0134 0E       		.uleb128 0xe
 1636 0135 3A       		.uleb128 0x3a
 1637 0136 0B       		.uleb128 0xb
 1638 0137 3B       		.uleb128 0x3b
 1639 0138 05       		.uleb128 0x5
 1640 0139 49       		.uleb128 0x49
 1641 013a 13       		.uleb128 0x13
 1642 013b 02       		.uleb128 0x2
 1643 013c 18       		.uleb128 0x18
 1644 013d 00       		.byte	0
 1645 013e 00       		.byte	0
 1646 013f 1B       		.uleb128 0x1b
 1647 0140 2E       		.uleb128 0x2e
ARM GAS  /tmp/ccQIqwam.s 			page 30


 1648 0141 01       		.byte	0x1
 1649 0142 3F       		.uleb128 0x3f
 1650 0143 19       		.uleb128 0x19
 1651 0144 03       		.uleb128 0x3
 1652 0145 0E       		.uleb128 0xe
 1653 0146 3A       		.uleb128 0x3a
 1654 0147 0B       		.uleb128 0xb
 1655 0148 3B       		.uleb128 0x3b
 1656 0149 0B       		.uleb128 0xb
 1657 014a 11       		.uleb128 0x11
 1658 014b 01       		.uleb128 0x1
 1659 014c 12       		.uleb128 0x12
 1660 014d 06       		.uleb128 0x6
 1661 014e 40       		.uleb128 0x40
 1662 014f 18       		.uleb128 0x18
 1663 0150 9642     		.uleb128 0x2116
 1664 0152 19       		.uleb128 0x19
 1665 0153 01       		.uleb128 0x1
 1666 0154 13       		.uleb128 0x13
 1667 0155 00       		.byte	0
 1668 0156 00       		.byte	0
 1669 0157 1C       		.uleb128 0x1c
 1670 0158 05       		.uleb128 0x5
 1671 0159 00       		.byte	0
 1672 015a 03       		.uleb128 0x3
 1673 015b 0E       		.uleb128 0xe
 1674 015c 3A       		.uleb128 0x3a
 1675 015d 0B       		.uleb128 0xb
 1676 015e 3B       		.uleb128 0x3b
 1677 015f 0B       		.uleb128 0xb
 1678 0160 49       		.uleb128 0x49
 1679 0161 13       		.uleb128 0x13
 1680 0162 02       		.uleb128 0x2
 1681 0163 18       		.uleb128 0x18
 1682 0164 00       		.byte	0
 1683 0165 00       		.byte	0
 1684 0166 1D       		.uleb128 0x1d
 1685 0167 2E       		.uleb128 0x2e
 1686 0168 01       		.byte	0x1
 1687 0169 3F       		.uleb128 0x3f
 1688 016a 19       		.uleb128 0x19
 1689 016b 03       		.uleb128 0x3
 1690 016c 0E       		.uleb128 0xe
 1691 016d 3A       		.uleb128 0x3a
 1692 016e 0B       		.uleb128 0xb
 1693 016f 3B       		.uleb128 0x3b
 1694 0170 0B       		.uleb128 0xb
 1695 0171 49       		.uleb128 0x49
 1696 0172 13       		.uleb128 0x13
 1697 0173 11       		.uleb128 0x11
 1698 0174 01       		.uleb128 0x1
 1699 0175 12       		.uleb128 0x12
 1700 0176 06       		.uleb128 0x6
 1701 0177 40       		.uleb128 0x40
 1702 0178 18       		.uleb128 0x18
 1703 0179 9742     		.uleb128 0x2117
 1704 017b 19       		.uleb128 0x19
ARM GAS  /tmp/ccQIqwam.s 			page 31


 1705 017c 01       		.uleb128 0x1
 1706 017d 13       		.uleb128 0x13
 1707 017e 00       		.byte	0
 1708 017f 00       		.byte	0
 1709 0180 1E       		.uleb128 0x1e
 1710 0181 05       		.uleb128 0x5
 1711 0182 00       		.byte	0
 1712 0183 03       		.uleb128 0x3
 1713 0184 08       		.uleb128 0x8
 1714 0185 3A       		.uleb128 0x3a
 1715 0186 0B       		.uleb128 0xb
 1716 0187 3B       		.uleb128 0x3b
 1717 0188 0B       		.uleb128 0xb
 1718 0189 49       		.uleb128 0x49
 1719 018a 13       		.uleb128 0x13
 1720 018b 02       		.uleb128 0x2
 1721 018c 18       		.uleb128 0x18
 1722 018d 00       		.byte	0
 1723 018e 00       		.byte	0
 1724 018f 1F       		.uleb128 0x1f
 1725 0190 2E       		.uleb128 0x2e
 1726 0191 00       		.byte	0
 1727 0192 3F       		.uleb128 0x3f
 1728 0193 19       		.uleb128 0x19
 1729 0194 03       		.uleb128 0x3
 1730 0195 0E       		.uleb128 0xe
 1731 0196 3A       		.uleb128 0x3a
 1732 0197 0B       		.uleb128 0xb
 1733 0198 3B       		.uleb128 0x3b
 1734 0199 0B       		.uleb128 0xb
 1735 019a 11       		.uleb128 0x11
 1736 019b 01       		.uleb128 0x1
 1737 019c 12       		.uleb128 0x12
 1738 019d 06       		.uleb128 0x6
 1739 019e 40       		.uleb128 0x40
 1740 019f 18       		.uleb128 0x18
 1741 01a0 9742     		.uleb128 0x2117
 1742 01a2 19       		.uleb128 0x19
 1743 01a3 00       		.byte	0
 1744 01a4 00       		.byte	0
 1745 01a5 20       		.uleb128 0x20
 1746 01a6 2E       		.uleb128 0x2e
 1747 01a7 00       		.byte	0
 1748 01a8 3F       		.uleb128 0x3f
 1749 01a9 19       		.uleb128 0x19
 1750 01aa 03       		.uleb128 0x3
 1751 01ab 0E       		.uleb128 0xe
 1752 01ac 3A       		.uleb128 0x3a
 1753 01ad 0B       		.uleb128 0xb
 1754 01ae 3B       		.uleb128 0x3b
 1755 01af 0B       		.uleb128 0xb
 1756 01b0 11       		.uleb128 0x11
 1757 01b1 01       		.uleb128 0x1
 1758 01b2 12       		.uleb128 0x12
 1759 01b3 06       		.uleb128 0x6
 1760 01b4 40       		.uleb128 0x40
 1761 01b5 18       		.uleb128 0x18
ARM GAS  /tmp/ccQIqwam.s 			page 32


 1762 01b6 9642     		.uleb128 0x2116
 1763 01b8 19       		.uleb128 0x19
 1764 01b9 00       		.byte	0
 1765 01ba 00       		.byte	0
 1766 01bb 21       		.uleb128 0x21
 1767 01bc 34       		.uleb128 0x34
 1768 01bd 00       		.byte	0
 1769 01be 03       		.uleb128 0x3
 1770 01bf 0E       		.uleb128 0xe
 1771 01c0 3A       		.uleb128 0x3a
 1772 01c1 0B       		.uleb128 0xb
 1773 01c2 3B       		.uleb128 0x3b
 1774 01c3 05       		.uleb128 0x5
 1775 01c4 49       		.uleb128 0x49
 1776 01c5 13       		.uleb128 0x13
 1777 01c6 3F       		.uleb128 0x3f
 1778 01c7 19       		.uleb128 0x19
 1779 01c8 3C       		.uleb128 0x3c
 1780 01c9 19       		.uleb128 0x19
 1781 01ca 00       		.byte	0
 1782 01cb 00       		.byte	0
 1783 01cc 22       		.uleb128 0x22
 1784 01cd 34       		.uleb128 0x34
 1785 01ce 00       		.byte	0
 1786 01cf 03       		.uleb128 0x3
 1787 01d0 08       		.uleb128 0x8
 1788 01d1 3A       		.uleb128 0x3a
 1789 01d2 0B       		.uleb128 0xb
 1790 01d3 3B       		.uleb128 0x3b
 1791 01d4 05       		.uleb128 0x5
 1792 01d5 49       		.uleb128 0x49
 1793 01d6 13       		.uleb128 0x13
 1794 01d7 3F       		.uleb128 0x3f
 1795 01d8 19       		.uleb128 0x19
 1796 01d9 3C       		.uleb128 0x3c
 1797 01da 19       		.uleb128 0x19
 1798 01db 00       		.byte	0
 1799 01dc 00       		.byte	0
 1800 01dd 23       		.uleb128 0x23
 1801 01de 34       		.uleb128 0x34
 1802 01df 00       		.byte	0
 1803 01e0 03       		.uleb128 0x3
 1804 01e1 0E       		.uleb128 0xe
 1805 01e2 3A       		.uleb128 0x3a
 1806 01e3 0B       		.uleb128 0xb
 1807 01e4 3B       		.uleb128 0x3b
 1808 01e5 0B       		.uleb128 0xb
 1809 01e6 49       		.uleb128 0x49
 1810 01e7 13       		.uleb128 0x13
 1811 01e8 3F       		.uleb128 0x3f
 1812 01e9 19       		.uleb128 0x19
 1813 01ea 02       		.uleb128 0x2
 1814 01eb 18       		.uleb128 0x18
 1815 01ec 00       		.byte	0
 1816 01ed 00       		.byte	0
 1817 01ee 24       		.uleb128 0x24
 1818 01ef 34       		.uleb128 0x34
ARM GAS  /tmp/ccQIqwam.s 			page 33


 1819 01f0 00       		.byte	0
 1820 01f1 03       		.uleb128 0x3
 1821 01f2 0E       		.uleb128 0xe
 1822 01f3 3A       		.uleb128 0x3a
 1823 01f4 0B       		.uleb128 0xb
 1824 01f5 3B       		.uleb128 0x3b
 1825 01f6 0B       		.uleb128 0xb
 1826 01f7 49       		.uleb128 0x49
 1827 01f8 13       		.uleb128 0x13
 1828 01f9 3F       		.uleb128 0x3f
 1829 01fa 19       		.uleb128 0x19
 1830 01fb 3C       		.uleb128 0x3c
 1831 01fc 19       		.uleb128 0x19
 1832 01fd 00       		.byte	0
 1833 01fe 00       		.byte	0
 1834 01ff 00       		.byte	0
 1835              		.section	.debug_aranges,"",%progbits
 1836 0000 3C000000 		.4byte	0x3c
 1837 0004 0200     		.2byte	0x2
 1838 0006 00000000 		.4byte	.Ldebug_info0
 1839 000a 04       		.byte	0x4
 1840 000b 00       		.byte	0
 1841 000c 0000     		.2byte	0
 1842 000e 0000     		.2byte	0
 1843 0010 00000000 		.4byte	.LFB291
 1844 0014 12000000 		.4byte	.LFE291-.LFB291
 1845 0018 00000000 		.4byte	.LFB323
 1846 001c 14000000 		.4byte	.LFE323-.LFB323
 1847 0020 00000000 		.4byte	.LFB324
 1848 0024 1C000000 		.4byte	.LFE324-.LFB324
 1849 0028 00000000 		.4byte	.LFB325
 1850 002c 04000000 		.4byte	.LFE325-.LFB325
 1851 0030 00000000 		.4byte	.LFB326
 1852 0034 10000000 		.4byte	.LFE326-.LFB326
 1853 0038 00000000 		.4byte	0
 1854 003c 00000000 		.4byte	0
 1855              		.section	.debug_ranges,"",%progbits
 1856              	.Ldebug_ranges0:
 1857 0000 00000000 		.4byte	.LFB291
 1858 0004 12000000 		.4byte	.LFE291
 1859 0008 00000000 		.4byte	.LFB323
 1860 000c 14000000 		.4byte	.LFE323
 1861 0010 00000000 		.4byte	.LFB324
 1862 0014 1C000000 		.4byte	.LFE324
 1863 0018 00000000 		.4byte	.LFB325
 1864 001c 04000000 		.4byte	.LFE325
 1865 0020 00000000 		.4byte	.LFB326
 1866 0024 10000000 		.4byte	.LFE326
 1867 0028 00000000 		.4byte	0
 1868 002c 00000000 		.4byte	0
 1869              		.section	.debug_line,"",%progbits
 1870              	.Ldebug_line0:
 1871 0000 E9020000 		.section	.debug_str,"MS",%progbits,1
 1871      02008002 
 1871      00000201 
 1871      FB0E0D00 
 1871      01010101 
ARM GAS  /tmp/ccQIqwam.s 			page 34


 1872              	.LASF61:
 1873 0000 72656164 		.ascii	"ready_list_t\000"
 1873      795F6C69 
 1873      73745F74 
 1873      00
 1874              	.LASF91:
 1875 000d 31314572 		.ascii	"11ErrorStatus\000"
 1875      726F7253 
 1875      74617475 
 1875      7300
 1876              	.LASF32:
 1877 001b 77747472 		.ascii	"wttrp\000"
 1877      7000
 1878              	.LASF67:
 1879 0021 64656C74 		.ascii	"delta\000"
 1879      6100
 1880              	.LASF85:
 1881 0027 466C6167 		.ascii	"FlagStatus\000"
 1881      53746174 
 1881      757300
 1882              	.LASF16:
 1883 0032 75696E74 		.ascii	"uint64_t\000"
 1883      36345F74 
 1883      00
 1884              	.LASF80:
 1885 003b 6B65726E 		.ascii	"kernel_stats\000"
 1885      656C5F73 
 1885      74617473 
 1885      00
 1886              	.LASF4:
 1887 0048 5F5F7569 		.ascii	"__uint8_t\000"
 1887      6E74385F 
 1887      7400
 1888              	.LASF60:
 1889 0052 70726576 		.ascii	"prev\000"
 1889      00
 1890              	.LASF98:
 1891 0057 706F7274 		.ascii	"port_intctx\000"
 1891      5F696E74 
 1891      63747800 
 1892              	.LASF59:
 1893 0063 63685F74 		.ascii	"ch_threads_queue\000"
 1893      68726561 
 1893      64735F71 
 1893      75657565 
 1893      00
 1894              	.LASF72:
 1895 0074 73797374 		.ascii	"system_debug_t\000"
 1895      656D5F64 
 1895      65627567 
 1895      5F7400
 1896              	.LASF104:
 1897 0083 776F7273 		.ascii	"worst\000"
 1897      7400
 1898              	.LASF88:
 1899 0089 44495341 		.ascii	"DISABLE\000"
 1899      424C4500 
ARM GAS  /tmp/ccQIqwam.s 			page 35


 1900              	.LASF107:
 1901 0091 74696D65 		.ascii	"time_measurement_t\000"
 1901      5F6D6561 
 1901      73757265 
 1901      6D656E74 
 1901      5F7400
 1902              	.LASF11:
 1903 00a4 6C6F6E67 		.ascii	"long long unsigned int\000"
 1903      206C6F6E 
 1903      6720756E 
 1903      7369676E 
 1903      65642069 
 1904              	.LASF30:
 1905 00bb 65786974 		.ascii	"exitcode\000"
 1905      636F6465 
 1905      00
 1906              	.LASF79:
 1907 00c4 6D61696E 		.ascii	"mainthread\000"
 1907      74687265 
 1907      616400
 1908              	.LASF33:
 1909 00cf 73656E74 		.ascii	"sentmsg\000"
 1909      6D736700 
 1910              	.LASF69:
 1911 00d7 76697274 		.ascii	"virtual_timers_list_t\000"
 1911      75616C5F 
 1911      74696D65 
 1911      72735F6C 
 1911      6973745F 
 1912              	.LASF124:
 1913 00ed 49544D5F 		.ascii	"ITM_RxBuffer\000"
 1913      52784275 
 1913      66666572 
 1913      00
 1914              	.LASF57:
 1915 00fa 6E657874 		.ascii	"next\000"
 1915      00
 1916              	.LASF19:
 1917 00ff 72747469 		.ascii	"rttime_t\000"
 1917      6D655F74 
 1917      00
 1918              	.LASF9:
 1919 0108 6C6F6E67 		.ascii	"long long int\000"
 1919      206C6F6E 
 1919      6720696E 
 1919      7400
 1920              	.LASF0:
 1921 0116 7369676E 		.ascii	"signed char\000"
 1921      65642063 
 1921      68617200 
 1922              	.LASF78:
 1923 0122 76746C69 		.ascii	"vtlist\000"
 1923      737400
 1924              	.LASF47:
 1925 0129 6D736771 		.ascii	"msgqueue\000"
 1925      75657565 
 1925      00
ARM GAS  /tmp/ccQIqwam.s 			page 36


 1926              	.LASF43:
 1927 0132 73746174 		.ascii	"state\000"
 1927      6500
 1928              	.LASF6:
 1929 0138 6C6F6E67 		.ascii	"long int\000"
 1929      20696E74 
 1929      00
 1930              	.LASF89:
 1931 0141 454E4142 		.ascii	"ENABLE\000"
 1931      4C4500
 1932              	.LASF21:
 1933 0148 74737461 		.ascii	"tstate_t\000"
 1933      74655F74 
 1933      00
 1934              	.LASF68:
 1935 0151 66756E63 		.ascii	"func\000"
 1935      00
 1936              	.LASF52:
 1937 0156 73746174 		.ascii	"stats\000"
 1937      7300
 1938              	.LASF87:
 1939 015c 31354675 		.ascii	"15FunctionalState\000"
 1939      6E637469 
 1939      6F6E616C 
 1939      53746174 
 1939      6500
 1940              	.LASF7:
 1941 016e 5F5F7569 		.ascii	"__uint32_t\000"
 1941      6E743332 
 1941      5F7400
 1942              	.LASF95:
 1943 0179 72656761 		.ascii	"regarm_t\000"
 1943      726D5F74 
 1943      00
 1944              	.LASF73:
 1945 0182 63685F73 		.ascii	"ch_system_debug\000"
 1945      79737465 
 1945      6D5F6465 
 1945      62756700 
 1946              	.LASF46:
 1947 0192 77616974 		.ascii	"waiting\000"
 1947      696E6700 
 1948              	.LASF118:
 1949 019a 6D757465 		.ascii	"mutex_t\000"
 1949      785F7400 
 1950              	.LASF82:
 1951 01a2 73797369 		.ascii	"sysinterval_t\000"
 1951      6E746572 
 1951      76616C5F 
 1951      7400
 1952              	.LASF26:
 1953 01b0 636E745F 		.ascii	"cnt_t\000"
 1953      7400
 1954              	.LASF12:
 1955 01b6 756E7369 		.ascii	"unsigned int\000"
 1955      676E6564 
 1955      20696E74 
ARM GAS  /tmp/ccQIqwam.s 			page 37


 1955      00
 1956              	.LASF34:
 1957 01c3 77747365 		.ascii	"wtsemp\000"
 1957      6D7000
 1958              	.LASF127:
 1959 01ca 474E5520 		.ascii	"GNU C++ 4.9.3 20150529 (prerelease) -mcpu=cortex-m4"
 1959      432B2B20 
 1959      342E392E 
 1959      33203230 
 1959      31353035 
 1960 01fd 202D6D66 		.ascii	" -mfloat-abi=hard -mfpu=fpv4-sp-d16 -mno-thumb-inte"
 1960      6C6F6174 
 1960      2D616269 
 1960      3D686172 
 1960      64202D6D 
 1961 0230 72776F72 		.ascii	"rwork -mthumb -g -std=gnu++11 -fomit-frame-pointer "
 1961      6B202D6D 
 1961      7468756D 
 1961      62202D67 
 1961      202D7374 
 1962 0263 2D66616C 		.ascii	"-falign-functions=16 -ffunction-sections -fdata-sec"
 1962      69676E2D 
 1962      66756E63 
 1962      74696F6E 
 1962      733D3136 
 1963 0296 74696F6E 		.ascii	"tions -fno-common -fsingle-precision-constant -fno-"
 1963      73202D66 
 1963      6E6F2D63 
 1963      6F6D6D6F 
 1963      6E202D66 
 1964 02c9 72747469 		.ascii	"rtti\000"
 1964      00
 1965              	.LASF109:
 1966 02ce 6E5F6972 		.ascii	"n_irq\000"
 1966      7100
 1967              	.LASF37:
 1968 02d4 71756575 		.ascii	"queue\000"
 1968      6500
 1969              	.LASF51:
 1970 02da 6D706F6F 		.ascii	"mpool\000"
 1970      6C00
 1971              	.LASF132:
 1972 02e0 5F657869 		.ascii	"_exit\000"
 1972      7400
 1973              	.LASF113:
 1974 02e6 6B65726E 		.ascii	"kernel_stats_t\000"
 1974      656C5F73 
 1974      74617473 
 1974      5F7400
 1975              	.LASF41:
 1976 02f5 6E616D65 		.ascii	"name\000"
 1976      00
 1977              	.LASF55:
 1978 02fa 63685F74 		.ascii	"ch_thread\000"
 1978      68726561 
 1978      6400
 1979              	.LASF24:
ARM GAS  /tmp/ccQIqwam.s 			page 38


 1980 0304 6D73675F 		.ascii	"msg_t\000"
 1980      7400
 1981              	.LASF105:
 1982 030a 6C617374 		.ascii	"last\000"
 1982      00
 1983              	.LASF27:
 1984 030f 75636E74 		.ascii	"ucnt_t\000"
 1984      5F7400
 1985              	.LASF86:
 1986 0316 3130466C 		.ascii	"10FlagStatus\000"
 1986      61675374 
 1986      61747573 
 1986      00
 1987              	.LASF75:
 1988 0323 63685F73 		.ascii	"ch_system_t\000"
 1988      79737465 
 1988      6D5F7400 
 1989              	.LASF20:
 1990 032f 746D6F64 		.ascii	"tmode_t\000"
 1990      655F7400 
 1991              	.LASF119:
 1992 0337 626F6F6C 		.ascii	"bool\000"
 1992      00
 1993              	.LASF112:
 1994 033c 6D5F6372 		.ascii	"m_crit_isr\000"
 1994      69745F69 
 1994      737200
 1995              	.LASF62:
 1996 0347 63685F72 		.ascii	"ch_ready_list\000"
 1996      65616479 
 1996      5F6C6973 
 1996      7400
 1997              	.LASF25:
 1998 0355 6576656E 		.ascii	"eventmask_t\000"
 1998      746D6173 
 1998      6B5F7400 
 1999              	.LASF5:
 2000 0361 5F5F696E 		.ascii	"__int32_t\000"
 2000      7433325F 
 2000      7400
 2001              	.LASF130:
 2002 036b 6465636C 		.ascii	"decltype(nullptr)\000"
 2002      74797065 
 2002      286E756C 
 2002      6C707472 
 2002      2900
 2003              	.LASF126:
 2004 037d 6572726E 		.ascii	"errno\000"
 2004      6F00
 2005              	.LASF96:
 2006 0383 73746B61 		.ascii	"stkalign_t\000"
 2006      6C69676E 
 2006      5F7400
 2007              	.LASF39:
 2008 038e 6E657765 		.ascii	"newer\000"
 2008      7200
 2009              	.LASF50:
ARM GAS  /tmp/ccQIqwam.s 			page 39


 2010 0394 7265616C 		.ascii	"realprio\000"
 2010      7072696F 
 2010      00
 2011              	.LASF83:
 2012 039d 73697A65 		.ascii	"sizetype\000"
 2012      74797065 
 2012      00
 2013              	.LASF53:
 2014 03a6 74687265 		.ascii	"thread_reference_t\000"
 2014      61645F72 
 2014      65666572 
 2014      656E6365 
 2014      5F7400
 2015              	.LASF70:
 2016 03b9 63685F76 		.ascii	"ch_virtual_timers_list\000"
 2016      69727475 
 2016      616C5F74 
 2016      696D6572 
 2016      735F6C69 
 2017              	.LASF92:
 2018 03d0 4552524F 		.ascii	"ERROR\000"
 2018      5200
 2019              	.LASF102:
 2020 03d6 31387469 		.ascii	"18time_measurement_t\000"
 2020      6D655F6D 
 2020      65617375 
 2020      72656D65 
 2020      6E745F74 
 2021              	.LASF97:
 2022 03eb 706F7274 		.ascii	"port_context\000"
 2022      5F636F6E 
 2022      74657874 
 2022      00
 2023              	.LASF90:
 2024 03f8 46756E63 		.ascii	"FunctionalState\000"
 2024      74696F6E 
 2024      616C5374 
 2024      61746500 
 2025              	.LASF100:
 2026 0408 746D5F63 		.ascii	"tm_calibration_t\000"
 2026      616C6962 
 2026      72617469 
 2026      6F6E5F74 
 2026      00
 2027              	.LASF38:
 2028 0419 7072696F 		.ascii	"prio\000"
 2028      00
 2029              	.LASF63:
 2030 041e 63757272 		.ascii	"current\000"
 2030      656E7400 
 2031              	.LASF10:
 2032 0426 5F5F7569 		.ascii	"__uint64_t\000"
 2032      6E743634 
 2032      5F7400
 2033              	.LASF106:
 2034 0431 63756D75 		.ascii	"cumulative\000"
 2034      6C617469 
ARM GAS  /tmp/ccQIqwam.s 			page 40


 2034      766500
 2035              	.LASF22:
 2036 043c 74726566 		.ascii	"trefs_t\000"
 2036      735F7400 
 2037              	.LASF45:
 2038 0444 72656673 		.ascii	"refs\000"
 2038      00
 2039              	.LASF65:
 2040 0449 76697274 		.ascii	"virtual_timer_t\000"
 2040      75616C5F 
 2040      74696D65 
 2040      725F7400 
 2041              	.LASF84:
 2042 0459 52455345 		.ascii	"RESET\000"
 2042      5400
 2043              	.LASF23:
 2044 045f 74707269 		.ascii	"tprio_t\000"
 2044      6F5F7400 
 2045              	.LASF110:
 2046 0467 6E5F6374 		.ascii	"n_ctxswc\000"
 2046      78737763 
 2046      00
 2047              	.LASF14:
 2048 0470 696E7433 		.ascii	"int32_t\000"
 2048      325F7400 
 2049              	.LASF1:
 2050 0478 756E7369 		.ascii	"unsigned char\000"
 2050      676E6564 
 2050      20636861 
 2050      7200
 2051              	.LASF128:
 2052 0486 2E2E2F2E 		.ascii	"../../modules/ChibiOS/os/various/cpp_wrappers/sysca"
 2052      2E2F6D6F 
 2052      64756C65 
 2052      732F4368 
 2052      6962694F 
 2053 04b9 6C6C735F 		.ascii	"lls_cpp.cpp\000"
 2053      6370702E 
 2053      63707000 
 2054              	.LASF2:
 2055 04c5 73686F72 		.ascii	"short int\000"
 2055      7420696E 
 2055      7400
 2056              	.LASF71:
 2057 04cf 6C617374 		.ascii	"lasttime\000"
 2057      74696D65 
 2057      00
 2058              	.LASF36:
 2059 04d8 65776D61 		.ascii	"ewmask\000"
 2059      736B00
 2060              	.LASF76:
 2061 04df 63685F73 		.ascii	"ch_system\000"
 2061      79737465 
 2061      6D00
 2062              	.LASF120:
 2063 04e9 72656173 		.ascii	"reason\000"
 2063      6F6E00
ARM GAS  /tmp/ccQIqwam.s 			page 41


 2064              	.LASF29:
 2065 04f0 7264796D 		.ascii	"rdymsg\000"
 2065      736700
 2066              	.LASF66:
 2067 04f7 63685F76 		.ascii	"ch_virtual_timer\000"
 2067      69727475 
 2067      616C5F74 
 2067      696D6572 
 2067      00
 2068              	.LASF114:
 2069 0508 63685F73 		.ascii	"ch_semaphore\000"
 2069      656D6170 
 2069      686F7265 
 2069      00
 2070              	.LASF15:
 2071 0515 75696E74 		.ascii	"uint32_t\000"
 2071      33325F74 
 2071      00
 2072              	.LASF56:
 2073 051e 63685F74 		.ascii	"ch_threads_list\000"
 2073      68726561 
 2073      64735F6C 
 2073      69737400 
 2074              	.LASF116:
 2075 052e 6F776E65 		.ascii	"owner\000"
 2075      7200
 2076              	.LASF123:
 2077 0534 5F5F6378 		.ascii	"__cxa_pure_virtual\000"
 2077      615F7075 
 2077      72655F76 
 2077      69727475 
 2077      616C00
 2078              	.LASF122:
 2079 0547 5F6F7065 		.ascii	"_open_r\000"
 2079      6E5F7200 
 2080              	.LASF8:
 2081 054f 6C6F6E67 		.ascii	"long unsigned int\000"
 2081      20756E73 
 2081      69676E65 
 2081      6420696E 
 2081      7400
 2082              	.LASF42:
 2083 0561 77616261 		.ascii	"wabase\000"
 2083      736500
 2084              	.LASF131:
 2085 0568 6F73616C 		.ascii	"osalSysHalt\000"
 2085      53797348 
 2085      616C7400 
 2086              	.LASF117:
 2087 0574 63686172 		.ascii	"char\000"
 2087      00
 2088              	.LASF40:
 2089 0579 6F6C6465 		.ascii	"older\000"
 2089      7200
 2090              	.LASF35:
 2091 057f 77746D74 		.ascii	"wtmtxp\000"
 2091      787000
ARM GAS  /tmp/ccQIqwam.s 			page 42


 2092              	.LASF94:
 2093 0586 4572726F 		.ascii	"ErrorStatus\000"
 2093      72537461 
 2093      74757300 
 2094              	.LASF28:
 2095 0592 74687265 		.ascii	"thread_t\000"
 2095      61645F74 
 2095      00
 2096              	.LASF103:
 2097 059b 62657374 		.ascii	"best\000"
 2097      00
 2098              	.LASF17:
 2099 05a0 6C6F6E67 		.ascii	"long double\000"
 2099      20646F75 
 2099      626C6500 
 2100              	.LASF81:
 2101 05ac 73797374 		.ascii	"systime_t\000"
 2101      696D655F 
 2101      7400
 2102              	.LASF64:
 2103 05b6 76746675 		.ascii	"vtfunc_t\000"
 2103      6E635F74 
 2103      00
 2104              	.LASF74:
 2105 05bf 70616E69 		.ascii	"panic_msg\000"
 2105      635F6D73 
 2105      6700
 2106              	.LASF99:
 2107 05c9 6F666673 		.ascii	"offset\000"
 2107      657400
 2108              	.LASF115:
 2109 05d0 63685F6D 		.ascii	"ch_mutex\000"
 2109      75746578 
 2109      00
 2110              	.LASF133:
 2111 05d9 5F6B696C 		.ascii	"_kill\000"
 2111      6C00
 2112              	.LASF3:
 2113 05df 73686F72 		.ascii	"short unsigned int\000"
 2113      7420756E 
 2113      7369676E 
 2113      65642069 
 2113      6E7400
 2114              	.LASF129:
 2115 05f2 2F686F6D 		.ascii	"/home/kozinalexey/f4by/ardupilot/build/F4BY\000"
 2115      652F6B6F 
 2115      7A696E61 
 2115      6C657865 
 2115      792F6634 
 2116              	.LASF18:
 2117 061e 7274636E 		.ascii	"rtcnt_t\000"
 2117      745F7400 
 2118              	.LASF58:
 2119 0626 74687265 		.ascii	"threads_queue_t\000"
 2119      6164735F 
 2119      71756575 
 2119      655F7400 
ARM GAS  /tmp/ccQIqwam.s 			page 43


 2120              	.LASF48:
 2121 0636 6570656E 		.ascii	"epending\000"
 2121      64696E67 
 2121      00
 2122              	.LASF101:
 2123 063f 3136746D 		.ascii	"16tm_calibration_t\000"
 2123      5F63616C 
 2123      69627261 
 2123      74696F6E 
 2123      5F7400
 2124              	.LASF121:
 2125 0652 73746174 		.ascii	"status\000"
 2125      757300
 2126              	.LASF77:
 2127 0659 726C6973 		.ascii	"rlist\000"
 2127      7400
 2128              	.LASF13:
 2129 065f 75696E74 		.ascii	"uint8_t\000"
 2129      385F7400 
 2130              	.LASF93:
 2131 0667 53554343 		.ascii	"SUCCESS\000"
 2131      45535300 
 2132              	.LASF44:
 2133 066f 666C6167 		.ascii	"flags\000"
 2133      7300
 2134              	.LASF108:
 2135 0675 31346B65 		.ascii	"14kernel_stats_t\000"
 2135      726E656C 
 2135      5F737461 
 2135      74735F74 
 2135      00
 2136              	.LASF31:
 2137 0686 77746F62 		.ascii	"wtobjp\000"
 2137      6A7000
 2138              	.LASF54:
 2139 068d 74687265 		.ascii	"threads_list_t\000"
 2139      6164735F 
 2139      6C697374 
 2139      5F7400
 2140              	.LASF49:
 2141 069c 6D74786C 		.ascii	"mtxlist\000"
 2141      69737400 
 2142              	.LASF125:
 2143 06a4 5F5F6473 		.ascii	"__dso_handle\000"
 2143      6F5F6861 
 2143      6E646C65 
 2143      00
 2144              	.LASF111:
 2145 06b1 6D5F6372 		.ascii	"m_crit_thd\000"
 2145      69745F74 
 2145      686400
 2146              		.ident	"GCC: (15:4.9.3+svn231177-1) 4.9.3 20150529 (prerelease)"
ARM GAS  /tmp/ccQIqwam.s 			page 44


DEFINED SYMBOLS
                            *ABS*:0000000000000000 syscalls_cpp.cpp
     /tmp/ccQIqwam.s:21     .text._ZL11osalSysHaltPKc:0000000000000000 $t
     /tmp/ccQIqwam.s:26     .text._ZL11osalSysHaltPKc:0000000000000000 _ZL11osalSysHaltPKc
.ARM.exidx.text._ZL11osalSysHaltPKc:0000000000000000 $d
     /tmp/ccQIqwam.s:59     .bss.__dso_handle:0000000000000000 __dso_handle
     /tmp/ccQIqwam.s:56     .bss.__dso_handle:0000000000000000 $d
     /tmp/ccQIqwam.s:62     .rodata:0000000000000000 $d
     /tmp/ccQIqwam.s:66     .text._exit:0000000000000000 $t
     /tmp/ccQIqwam.s:72     .text._exit:0000000000000000 _exit
     /tmp/ccQIqwam.s:97     .text._exit:0000000000000010 $d
            .ARM.exidx.text._exit:0000000000000000 $d
     /tmp/ccQIqwam.s:103    .text._kill:0000000000000000 $t
     /tmp/ccQIqwam.s:109    .text._kill:0000000000000000 _kill
     /tmp/ccQIqwam.s:136    .text._kill:0000000000000018 $d
            .ARM.exidx.text._kill:0000000000000000 $d
     /tmp/ccQIqwam.s:143    .text._open_r:0000000000000000 $t
     /tmp/ccQIqwam.s:149    .text._open_r:0000000000000000 _open_r
          .ARM.exidx.text._open_r:0000000000000000 $d
     /tmp/ccQIqwam.s:171    .text.__cxa_pure_virtual:0000000000000000 $t
     /tmp/ccQIqwam.s:177    .text.__cxa_pure_virtual:0000000000000000 __cxa_pure_virtual
     /tmp/ccQIqwam.s:197    .text.__cxa_pure_virtual:000000000000000c $d
.ARM.extab.text.__cxa_pure_virtual:0000000000000000 $d
.ARM.exidx.text.__cxa_pure_virtual:0000000000000000 $d
                     .debug_frame:0000000000000010 $d

UNDEFINED SYMBOLS
chSysHalt
__aeabi_unwind_cpp_pr0
errno
__aeabi_unwind_cpp_pr1
