ARM GAS  /tmp/ccF8ay9h.s 			page 1


   1              		.syntax unified
   2              		.cpu cortex-m4
   3              		.eabi_attribute 27, 1
   4              		.eabi_attribute 28, 1
   5              		.fpu fpv4-sp-d16
   6              		.eabi_attribute 20, 1
   7              		.eabi_attribute 21, 1
   8              		.eabi_attribute 23, 3
   9              		.eabi_attribute 24, 1
  10              		.eabi_attribute 25, 1
  11              		.eabi_attribute 26, 1
  12              		.eabi_attribute 30, 4
  13              		.eabi_attribute 34, 1
  14              		.eabi_attribute 18, 4
  15              		.thumb
  16              		.file	"usbcfg.c"
  17              		.text
  18              	.Ltext0:
  19              		.cfi_sections	.debug_frame
  20              		.section	.text.get_descriptor,"ax",%progbits
  21              		.align	1
  22              		.thumb
  23              		.thumb_func
  24              		.type	get_descriptor, %function
  25              	get_descriptor:
  26              	.LFB327:
  27              		.file 1 "../../libraries/AP_HAL_ChibiOS/hwdef/common/usbcfg.c"
  28              		.loc 1 281 0
  29              		.cfi_startproc
  30              		@ args = 0, pretend = 0, frame = 0
  31              		@ frame_needed = 0, uses_anonymous_args = 0
  32              		@ link register save eliminated.
  33              	.LVL0:
  34              		.loc 1 285 0
  35 0000 0229     		cmp	r1, #2
  36 0002 06D0     		beq	.L3
  37 0004 0329     		cmp	r1, #3
  38 0006 06D0     		beq	.L4
  39 0008 0129     		cmp	r1, #1
  40              		.loc 1 295 0
  41 000a 0648     		ldr	r0, .L9
  42              	.LVL1:
  43 000c 18BF     		it	ne
  44 000e 0020     		movne	r0, #0
  45 0010 7047     		bx	lr
  46              	.LVL2:
  47              	.L3:
  48              		.loc 1 289 0
  49 0012 0548     		ldr	r0, .L9+4
  50              	.LVL3:
  51 0014 7047     		bx	lr
  52              	.LVL4:
  53              	.L4:
  54              		.loc 1 291 0
  55 0016 032A     		cmp	r2, #3
  56              		.loc 1 292 0
  57 0018 9ABF     		itte	ls
ARM GAS  /tmp/ccF8ay9h.s 			page 2


  58 001a 044B     		ldrls	r3, .L9+8
  59              	.LVL5:
  60 001c 03EBC200 		addls	r0, r3, r2, lsl #3
  61              	.LVL6:
  62              		.loc 1 295 0
  63 0020 0020     		movhi	r0, #0
  64              		.loc 1 296 0
  65 0022 7047     		bx	lr
  66              	.L10:
  67              		.align	2
  68              	.L9:
  69 0024 00000000 		.word	.LANCHOR0
  70 0028 00000000 		.word	.LANCHOR1
  71 002c 00000000 		.word	.LANCHOR2
  72              		.cfi_endproc
  73              	.LFE327:
  74              		.size	get_descriptor, .-get_descriptor
  75              		.section	.text.string_contains,"ax",%progbits
  76              		.align	1
  77              		.thumb
  78              		.thumb_func
  79              		.type	string_contains, %function
  80              	string_contains:
  81              	.LFB323:
  82              		.loc 1 188 0
  83              		.cfi_startproc
  84              		@ args = 0, pretend = 0, frame = 0
  85              		@ frame_needed = 0, uses_anonymous_args = 0
  86              	.LVL7:
  87 0000 70B5     		push	{r4, r5, r6, lr}
  88              		.cfi_def_cfa_offset 16
  89              		.cfi_offset 4, -16
  90              		.cfi_offset 5, -12
  91              		.cfi_offset 6, -8
  92              		.cfi_offset 14, -4
  93              		.loc 1 188 0
  94 0002 0446     		mov	r4, r0
  95              		.loc 1 189 0
  96 0004 0846     		mov	r0, r1
  97              	.LVL8:
  98              		.loc 1 188 0
  99 0006 0D46     		mov	r5, r1
 100              		.loc 1 189 0
 101 0008 FFF7FEFF 		bl	strlen
 102              	.LVL9:
 103 000c 0646     		mov	r6, r0
 104              	.LVL10:
 105              	.L12:
 106 000e 2046     		mov	r0, r4
 107              	.LVL11:
 108 0010 0134     		adds	r4, r4, #1
 109              		.loc 1 190 0
 110 0012 0378     		ldrb	r3, [r0]	@ zero_extendqisi2
 111 0014 3BB1     		cbz	r3, .L16
 112              		.loc 1 191 0
 113 0016 2946     		mov	r1, r5
 114 0018 F2B2     		uxtb	r2, r6
ARM GAS  /tmp/ccF8ay9h.s 			page 3


 115 001a FFF7FEFF 		bl	strncmp
 116              	.LVL12:
 117 001e 0028     		cmp	r0, #0
 118 0020 F5D1     		bne	.L12
 119              		.loc 1 192 0
 120 0022 0120     		movs	r0, #1
 121              		.loc 1 197 0
 122 0024 70BD     		pop	{r4, r5, r6, pc}
 123              	.LVL13:
 124              	.L16:
 125              		.loc 1 196 0
 126 0026 1846     		mov	r0, r3
 127              	.LVL14:
 128 0028 70BD     		pop	{r4, r5, r6, pc}
 129              		.cfi_endproc
 130              	.LFE323:
 131              		.size	string_contains, .-string_contains
 132              		.section	.text.setup_usb_string,"ax",%progbits
 133              		.align	1
 134              		.thumb
 135              		.thumb_func
 136              		.type	setup_usb_string, %function
 137              	setup_usb_string:
 138              	.LFB325:
 139              		.loc 1 249 0
 140              		.cfi_startproc
 141              		@ args = 0, pretend = 0, frame = 104
 142              		@ frame_needed = 0, uses_anonymous_args = 0
 143              	.LVL15:
 144 0000 2DE9F043 		push	{r4, r5, r6, r7, r8, r9, lr}
 145              		.cfi_def_cfa_offset 28
 146              		.cfi_offset 4, -28
 147              		.cfi_offset 5, -24
 148              		.cfi_offset 6, -20
 149              		.cfi_offset 7, -16
 150              		.cfi_offset 8, -12
 151              		.cfi_offset 9, -8
 152              		.cfi_offset 14, -4
 153 0004 8046     		mov	r8, r0
 154 0006 9BB0     		sub	sp, sp, #108
 155              		.cfi_def_cfa_offset 136
 156              	.LVL16:
 157              	.LBB32:
 158              	.LBB33:
 159              		.loc 1 206 0
 160 0008 0846     		mov	r0, r1
 161              	.LVL17:
 162              	.LBE33:
 163              	.LBE32:
 164              		.loc 1 249 0
 165 000a 0C46     		mov	r4, r1
 166 000c 1546     		mov	r5, r2
 167              	.LBB38:
 168              	.LBB37:
 169              		.loc 1 206 0
 170 000e FFF7FEFF 		bl	strlen
 171              	.LVL18:
ARM GAS  /tmp/ccF8ay9h.s 			page 4


 172              		.loc 1 207 0
 173 0012 3749     		ldr	r1, .L39
 174              		.loc 1 206 0
 175 0014 C6B2     		uxtb	r6, r0
 176              	.LVL19:
 177              		.loc 1 207 0
 178 0016 2046     		mov	r0, r4
 179 0018 FFF7FEFF 		bl	string_contains
 180              	.LVL20:
 181 001c 08B1     		cbz	r0, .L18
 182              		.loc 1 208 0
 183 001e 033E     		subs	r6, r6, #3
 184              	.LVL21:
 185 0020 F6B2     		uxtb	r6, r6
 186              	.LVL22:
 187              	.L18:
 188              		.loc 1 210 0
 189 0022 2046     		mov	r0, r4
 190 0024 3349     		ldr	r1, .L39+4
 191 0026 FFF7FEFF 		bl	string_contains
 192              	.LVL23:
 193 002a 08B1     		cbz	r0, .L19
 194              		.loc 1 211 0
 195 002c 1036     		adds	r6, r6, #16
 196              	.LVL24:
 197 002e F6B2     		uxtb	r6, r6
 198              	.LVL25:
 199              	.L19:
 200              		.loc 1 213 0
 201 0030 632E     		cmp	r6, #99
 202 0032 01AF     		add	r7, sp, #4
 203              	.LVL26:
 204 0034 01DC     		bgt	.L20
 205 0036 3E46     		mov	r6, r7
 206              	.LVL27:
 207 0038 12E0     		b	.L21
 208              	.LVL28:
 209              	.L20:
 210              		.loc 1 214 0
 211 003a 3846     		mov	r0, r7
 212 003c 2146     		mov	r1, r4
 213 003e FFF7FEFF 		bl	strcpy
 214              	.LVL29:
 215 0042 38E0     		b	.L22
 216              	.LVL30:
 217              	.L27:
 218              	.LBB34:
 219              		.loc 1 220 0
 220 0044 B9F1250F 		cmp	r9, #37
 221 0048 2ED1     		bne	.L23
 222              		.loc 1 221 0
 223 004a 2046     		mov	r0, r4
 224 004c 2849     		ldr	r1, .L39
 225 004e 0722     		movs	r2, #7
 226 0050 FFF7FEFF 		bl	strncmp
 227              	.LVL31:
 228 0054 50B9     		cbnz	r0, .L24
ARM GAS  /tmp/ccF8ay9h.s 			page 5


 229              		.loc 1 222 0
 230 0056 284B     		ldr	r3, .L39+8
 231 0058 1B68     		ldr	r3, [r3]	@ unaligned
 232 005a 46F8043B 		str	r3, [r6], #4	@ unaligned
 233              	.LVL32:
 234              		.loc 1 223 0
 235 005e 0734     		adds	r4, r4, #7
 236              	.LVL33:
 237              	.L21:
 238              	.LBE34:
 239              		.loc 1 218 0
 240 0060 94F80090 		ldrb	r9, [r4]	@ zero_extendqisi2
 241 0064 B9F1000F 		cmp	r9, #0
 242 0068 ECD1     		bne	.L27
 243 006a 22E0     		b	.L37
 244              	.LVL34:
 245              	.L24:
 246              	.LBB36:
 247              		.loc 1 227 0
 248 006c 2046     		mov	r0, r4
 249 006e 2149     		ldr	r1, .L39+4
 250 0070 0822     		movs	r2, #8
 251 0072 FFF7FEFF 		bl	strncmp
 252              	.LVL35:
 253 0076 B8B9     		cbnz	r0, .L23
 254 0078 2049     		ldr	r1, .L39+12
 255 007a B31C     		adds	r3, r6, #2
 256              	.LVL36:
 257              	.L26:
 258              	.LBB35:
 259              		.loc 1 232 0
 260 007c 11F8012F 		ldrb	r2, [r1, #1]!	@ zero_extendqisi2
 261              	.LVL37:
 262 0080 1F48     		ldr	r0, .L39+16
 263 0082 4FEA121E 		lsr	lr, r2, #4
 264              		.loc 1 233 0
 265 0086 02F00F02 		and	r2, r2, #15
 266              		.loc 1 232 0
 267 008a 1EF800E0 		ldrb	lr, [lr, r0]	@ zero_extendqisi2
 268              		.loc 1 233 0
 269 008e 125C     		ldrb	r2, [r2, r0]	@ zero_extendqisi2
 270 0090 03F8012C 		strb	r2, [r3, #-1]
 271              		.loc 1 231 0
 272 0094 1B4A     		ldr	r2, .L39+20
 273              		.loc 1 232 0
 274 0096 03F802EC 		strb	lr, [r3, #-2]
 275              	.LVL38:
 276              		.loc 1 231 0
 277 009a 9142     		cmp	r1, r2
 278 009c 03F10203 		add	r3, r3, #2
 279              	.LVL39:
 280 00a0 ECD1     		bne	.L26
 281 00a2 1836     		adds	r6, r6, #24
 282              		.loc 1 235 0
 283 00a4 0834     		adds	r4, r4, #8
 284              	.LVL40:
 285 00a6 DBE7     		b	.L21
ARM GAS  /tmp/ccF8ay9h.s 			page 6


 286              	.LVL41:
 287              	.L23:
 288              	.LBE35:
 289              		.loc 1 239 0
 290 00a8 86F80090 		strb	r9, [r6]
 291 00ac 0134     		adds	r4, r4, #1
 292              	.LVL42:
 293 00ae 0136     		adds	r6, r6, #1
 294              	.LVL43:
 295 00b0 D6E7     		b	.L21
 296              	.LVL44:
 297              	.L37:
 298              	.LBE36:
 299              		.loc 1 241 0
 300 00b2 86F80090 		strb	r9, [r6]
 301              	.LVL45:
 302              	.L22:
 303              	.LBE37:
 304              	.LBE38:
 305              		.loc 1 252 0
 306 00b6 3846     		mov	r0, r7
 307 00b8 FFF7FEFF 		bl	strlen
 308              	.LVL46:
 309 00bc C0B2     		uxtb	r0, r0
 310              	.LVL47:
 311              		.loc 1 253 0
 312 00be 431C     		adds	r3, r0, #1
 313 00c0 5B00     		lsls	r3, r3, #1
 314              		.loc 1 254 0
 315 00c2 88E82800 		stmia	r8, {r3, r5}
 316              		.loc 1 255 0
 317 00c6 2B70     		strb	r3, [r5]
 318              		.loc 1 256 0
 319 00c8 0323     		movs	r3, #3
 320 00ca 6B70     		strb	r3, [r5, #1]
 321              	.LVL48:
 322 00cc 0235     		adds	r5, r5, #2
 323              	.LVL49:
 324              		.loc 1 258 0
 325 00ce 0023     		movs	r3, #0
 326              	.LVL50:
 327              	.L28:
 328              		.loc 1 258 0 is_stmt 0 discriminator 1
 329 00d0 DAB2     		uxtb	r2, r3
 330 00d2 8242     		cmp	r2, r0
 331 00d4 05F10205 		add	r5, r5, #2
 332 00d8 07D2     		bcs	.L38
 333              		.loc 1 259 0 is_stmt 1 discriminator 3
 334 00da FA5C     		ldrb	r2, [r7, r3]	@ zero_extendqisi2
 335 00dc 05F8022C 		strb	r2, [r5, #-2]
 336              		.loc 1 260 0 discriminator 3
 337 00e0 0022     		movs	r2, #0
 338 00e2 05F8012C 		strb	r2, [r5, #-1]
 339              	.LVL51:
 340 00e6 0133     		adds	r3, r3, #1
 341              	.LVL52:
 342 00e8 F2E7     		b	.L28
ARM GAS  /tmp/ccF8ay9h.s 			page 7


 343              	.LVL53:
 344              	.L38:
 345              		.loc 1 262 0
 346 00ea 1BB0     		add	sp, sp, #108
 347              		.cfi_def_cfa_offset 28
 348              		@ sp needed
 349 00ec BDE8F083 		pop	{r4, r5, r6, r7, r8, r9, pc}
 350              	.LVL54:
 351              	.L40:
 352              		.align	2
 353              	.L39:
 354 00f0 00000000 		.word	.LC0
 355 00f4 08000000 		.word	.LC1
 356 00f8 11000000 		.word	.LC2
 357 00fc 0F7AFF1F 		.word	536836623
 358 0100 16000000 		.word	.LC3
 359 0104 1B7AFF1F 		.word	536836635
 360              		.cfi_endproc
 361              	.LFE325:
 362              		.size	setup_usb_string, .-setup_usb_string
 363              		.section	.text.sof_handler,"ax",%progbits
 364              		.align	1
 365              		.thumb
 366              		.thumb_func
 367              		.type	sof_handler, %function
 368              	sof_handler:
 369              	.LFB329:
 370              		.loc 1 397 0
 371              		.cfi_startproc
 372              		@ args = 0, pretend = 0, frame = 0
 373              		@ frame_needed = 0, uses_anonymous_args = 0
 374              	.LVL55:
 375 0000 08B5     		push	{r3, lr}
 376              		.cfi_def_cfa_offset 8
 377              		.cfi_offset 3, -8
 378              		.cfi_offset 14, -4
 379              	.LBB55:
 380              	.LBB56:
 381              	.LBB57:
 382              	.LBB58:
 383              	.LBB59:
 384              	.LBB60:
 385              	.LBB61:
 386              		.file 2 "../../modules/ChibiOS/os/common/ext/ARM/CMSIS/Core/Include/cmsis_gcc.h"
 387              		.loc 2 493 0
 388 0002 2023     		movs	r3, #32
 389              	@ 493 "../../modules/ChibiOS/os/common/ext/ARM/CMSIS/Core/Include/cmsis_gcc.h" 1
 390 0004 83F31188 		MSR basepri, r3
 391              	@ 0 "" 2
 392              		.thumb
 393              	.LBE61:
 394              	.LBE60:
 395              	.LBE59:
 396              	.LBE58:
 397              		.file 3 "../../modules/ChibiOS/os/rt/include/chsys.h"
 398              		.loc 3 396 0
 399 0008 FFF7FEFF 		bl	_stats_start_measure_crit_isr
ARM GAS  /tmp/ccF8ay9h.s 			page 8


 400              	.LVL56:
 401              	.LBE57:
 402              	.LBE56:
 403              	.LBE55:
 404              		.loc 1 402 0
 405 000c 0448     		ldr	r0, .L42
 406 000e FFF7FEFF 		bl	sduSOFHookI
 407              	.LVL57:
 408              	.LBB62:
 409              	.LBB63:
 410              	.LBB64:
 411              		.loc 3 416 0
 412 0012 FFF7FEFF 		bl	_stats_stop_measure_crit_isr
 413              	.LVL58:
 414              	.LBB65:
 415              	.LBB66:
 416              	.LBB67:
 417              	.LBB68:
 418              		.loc 2 493 0
 419 0016 0023     		movs	r3, #0
 420              	@ 493 "../../modules/ChibiOS/os/common/ext/ARM/CMSIS/Core/Include/cmsis_gcc.h" 1
 421 0018 83F31188 		MSR basepri, r3
 422              	@ 0 "" 2
 423              		.thumb
 424 001c 08BD     		pop	{r3, pc}
 425              	.L43:
 426 001e 00BF     		.align	2
 427              	.L42:
 428 0020 00000000 		.word	.LANCHOR3
 429              	.LBE68:
 430              	.LBE67:
 431              	.LBE66:
 432              	.LBE65:
 433              	.LBE64:
 434              	.LBE63:
 435              	.LBE62:
 436              		.cfi_endproc
 437              	.LFE329:
 438              		.size	sof_handler, .-sof_handler
 439              		.section	.text.usb_event,"ax",%progbits
 440              		.align	1
 441              		.thumb
 442              		.thumb_func
 443              		.type	usb_event, %function
 444              	usb_event:
 445              	.LFB328:
 446              		.loc 1 348 0
 447              		.cfi_startproc
 448              		@ args = 0, pretend = 0, frame = 0
 449              		@ frame_needed = 0, uses_anonymous_args = 0
 450              	.LVL59:
 451 0000 10B5     		push	{r4, lr}
 452              		.cfi_def_cfa_offset 8
 453              		.cfi_offset 4, -8
 454              		.cfi_offset 14, -4
 455              		.loc 1 348 0
 456 0002 0446     		mov	r4, r0
ARM GAS  /tmp/ccF8ay9h.s 			page 9


 457              		.loc 1 351 0
 458 0004 0529     		cmp	r1, #5
 459 0006 2DD8     		bhi	.L44
 460 0008 DFE801F0 		tbb	[pc, r1]
 461              	.L47:
 462 000c 16       		.byte	(.L46-.L47)/2
 463 000d 2C       		.byte	(.L44-.L47)/2
 464 000e 03       		.byte	(.L48-.L47)/2
 465 000f 16       		.byte	(.L46-.L47)/2
 466 0010 16       		.byte	(.L46-.L47)/2
 467 0011 1F       		.byte	(.L49-.L47)/2
 468              		.p2align 1
 469              	.L48:
 470              	.LVL60:
 471              	.LBB107:
 472              	.LBB108:
 473              	.LBB109:
 474              	.LBB110:
 475              	.LBB111:
 476              	.LBB112:
 477              	.LBB113:
 478              	.LBB114:
 479              		.loc 2 493 0
 480 0012 2023     		movs	r3, #32
 481              	@ 493 "../../modules/ChibiOS/os/common/ext/ARM/CMSIS/Core/Include/cmsis_gcc.h" 1
 482 0014 83F31188 		MSR basepri, r3
 483              	@ 0 "" 2
 484              		.thumb
 485              	.LBE114:
 486              	.LBE113:
 487              	.LBE112:
 488              	.LBE111:
 489              		.loc 3 396 0
 490 0018 FFF7FEFF 		bl	_stats_start_measure_crit_isr
 491              	.LVL61:
 492              	.LBE110:
 493              	.LBE109:
 494              		.loc 1 360 0
 495 001c 2046     		mov	r0, r4
 496 001e 0121     		movs	r1, #1
 497 0020 114A     		ldr	r2, .L51
 498 0022 FFF7FEFF 		bl	usbInitEndpointI
 499              	.LVL62:
 500              		.loc 1 361 0
 501 0026 2046     		mov	r0, r4
 502 0028 0221     		movs	r1, #2
 503 002a 104A     		ldr	r2, .L51+4
 504 002c FFF7FEFF 		bl	usbInitEndpointI
 505              	.LVL63:
 506              		.loc 1 364 0
 507 0030 0F48     		ldr	r0, .L51+8
 508 0032 FFF7FEFF 		bl	sduConfigureHookI
 509              	.LVL64:
 510 0036 10E0     		b	.L50
 511              	.LVL65:
 512              	.L46:
 513              	.LBE108:
ARM GAS  /tmp/ccF8ay9h.s 			page 10


 514              	.LBE107:
 515              	.LBB115:
 516              	.LBB116:
 517              	.LBB117:
 518              	.LBB118:
 519              	.LBB119:
 520              	.LBB120:
 521              		.loc 2 493 0
 522 0038 2023     		movs	r3, #32
 523              	@ 493 "../../modules/ChibiOS/os/common/ext/ARM/CMSIS/Core/Include/cmsis_gcc.h" 1
 524 003a 83F31188 		MSR basepri, r3
 525              	@ 0 "" 2
 526              		.thumb
 527              	.LBE120:
 528              	.LBE119:
 529              	.LBE118:
 530              	.LBE117:
 531              		.loc 3 396 0
 532 003e FFF7FEFF 		bl	_stats_start_measure_crit_isr
 533              	.LVL66:
 534              	.LBE116:
 535              	.LBE115:
 536              		.loc 1 376 0
 537 0042 0B48     		ldr	r0, .L51+8
 538 0044 FFF7FEFF 		bl	sduSuspendHookI
 539              	.LVL67:
 540 0048 07E0     		b	.L50
 541              	.LVL68:
 542              	.L49:
 543              	.LBB121:
 544              	.LBB122:
 545              	.LBB123:
 546              	.LBB124:
 547              	.LBB125:
 548              	.LBB126:
 549              		.loc 2 493 0
 550 004a 2023     		movs	r3, #32
 551              	@ 493 "../../modules/ChibiOS/os/common/ext/ARM/CMSIS/Core/Include/cmsis_gcc.h" 1
 552 004c 83F31188 		MSR basepri, r3
 553              	@ 0 "" 2
 554              		.thumb
 555              	.LBE126:
 556              	.LBE125:
 557              	.LBE124:
 558              	.LBE123:
 559              		.loc 3 396 0
 560 0050 FFF7FEFF 		bl	_stats_start_measure_crit_isr
 561              	.LVL69:
 562              	.LBE122:
 563              	.LBE121:
 564              		.loc 1 384 0
 565 0054 0648     		ldr	r0, .L51+8
 566 0056 FFF7FEFF 		bl	sduWakeupHookI
 567              	.LVL70:
 568              	.L50:
 569              	.LBB127:
 570              	.LBB128:
ARM GAS  /tmp/ccF8ay9h.s 			page 11


 571              		.loc 3 416 0
 572 005a FFF7FEFF 		bl	_stats_stop_measure_crit_isr
 573              	.LVL71:
 574              	.LBB129:
 575              	.LBB130:
 576              	.LBB131:
 577              	.LBB132:
 578              		.loc 2 493 0
 579 005e 0023     		movs	r3, #0
 580              	@ 493 "../../modules/ChibiOS/os/common/ext/ARM/CMSIS/Core/Include/cmsis_gcc.h" 1
 581 0060 83F31188 		MSR basepri, r3
 582              	@ 0 "" 2
 583              	.LVL72:
 584              		.thumb
 585              	.L44:
 586 0064 10BD     		pop	{r4, pc}
 587              	.LVL73:
 588              	.L52:
 589 0066 00BF     		.align	2
 590              	.L51:
 591 0068 00000000 		.word	.LANCHOR4
 592 006c 00000000 		.word	.LANCHOR5
 593 0070 00000000 		.word	.LANCHOR3
 594              	.LBE132:
 595              	.LBE131:
 596              	.LBE130:
 597              	.LBE129:
 598              	.LBE128:
 599              	.LBE127:
 600              		.cfi_endproc
 601              	.LFE328:
 602              		.size	usb_event, .-usb_event
 603              		.section	.text.setup_usb_strings,"ax",%progbits
 604              		.align	1
 605              		.global	setup_usb_strings
 606              		.thumb
 607              		.thumb_func
 608              		.type	setup_usb_strings, %function
 609              	setup_usb_strings:
 610              	.LFB326:
 611              		.loc 1 268 0
 612              		.cfi_startproc
 613              		@ args = 0, pretend = 0, frame = 0
 614              		@ frame_needed = 0, uses_anonymous_args = 0
 615 0000 38B5     		push	{r3, r4, r5, lr}
 616              		.cfi_def_cfa_offset 16
 617              		.cfi_offset 3, -16
 618              		.cfi_offset 4, -12
 619              		.cfi_offset 5, -8
 620              		.cfi_offset 14, -4
 621              		.loc 1 269 0
 622 0002 0C4D     		ldr	r5, .L54
 623 0004 0C4C     		ldr	r4, .L54+4
 624 0006 0D49     		ldr	r1, .L54+8
 625 0008 05F10800 		add	r0, r5, #8
 626 000c 2246     		mov	r2, r4
 627 000e FFF7FEFF 		bl	setup_usb_string
ARM GAS  /tmp/ccF8ay9h.s 			page 12


 628              	.LVL74:
 629              		.loc 1 270 0
 630 0012 05F11000 		add	r0, r5, #16
 631 0016 04F1CA02 		add	r2, r4, #202
 632 001a 0949     		ldr	r1, .L54+12
 633 001c FFF7FEFF 		bl	setup_usb_string
 634              	.LVL75:
 635              		.loc 1 271 0
 636 0020 05F11800 		add	r0, r5, #24
 637 0024 04F5CA72 		add	r2, r4, #404
 638 0028 0649     		ldr	r1, .L54+16
 639              		.loc 1 272 0
 640 002a BDE83840 		pop	{r3, r4, r5, lr}
 641              		.cfi_restore 14
 642              		.cfi_restore 5
 643              		.cfi_restore 4
 644              		.cfi_restore 3
 645              		.cfi_def_cfa_offset 0
 646              		.loc 1 271 0
 647 002e FFF7FEBF 		b	setup_usb_string
 648              	.LVL76:
 649              	.L55:
 650 0032 00BF     		.align	2
 651              	.L54:
 652 0034 00000000 		.word	.LANCHOR2
 653 0038 00000000 		.word	.LANCHOR6
 654 003c 27000000 		.word	.LC4
 655 0040 00000000 		.word	.LC0
 656 0044 08000000 		.word	.LC1
 657              		.cfi_endproc
 658              	.LFE326:
 659              		.size	setup_usb_strings, .-setup_usb_strings
 660              		.global	serusbcfg
 661              		.global	usbcfg
 662              		.global	SDU1
 663              		.section	.rodata.ep1config,"a",%progbits
 664              		.align	2
 665              		.set	.LANCHOR4,. + 0
 666              		.type	ep1config, %object
 667              		.size	ep1config, 36
 668              	ep1config:
 669 0000 02000000 		.word	2
 670 0004 00000000 		.word	0
 671 0008 00000000 		.word	sduDataTransmitted
 672 000c 00000000 		.word	sduDataReceived
 673 0010 4000     		.short	64
 674 0012 4000     		.short	64
 675 0014 00000000 		.word	ep1instate
 676 0018 00000000 		.word	ep1outstate
 677 001c 0200     		.short	2
 678 001e 0000     		.space	2
 679 0020 00000000 		.word	0
 680              		.section	.bss.ep2instate,"aw",%nobits
 681              		.align	2
 682              		.type	ep2instate, %object
 683              		.size	ep2instate, 16
 684              	ep2instate:
ARM GAS  /tmp/ccF8ay9h.s 			page 13


 685 0000 00000000 		.space	16
 685      00000000 
 685      00000000 
 685      00000000 
 686              		.section	.bss.SDU1,"aw",%nobits
 687              		.align	2
 688              		.set	.LANCHOR3,. + 0
 689              		.type	SDU1, %object
 690              		.size	SDU1, 1168
 691              	SDU1:
 692 0000 00000000 		.space	1168
 692      00000000 
 692      00000000 
 692      00000000 
 692      00000000 
 693              		.section	.bss.ep1instate,"aw",%nobits
 694              		.align	2
 695              		.type	ep1instate, %object
 696              		.size	ep1instate, 16
 697              	ep1instate:
 698 0000 00000000 		.space	16
 698      00000000 
 698      00000000 
 698      00000000 
 699              		.section	.data.vcom_strings,"aw",%progbits
 700              		.align	2
 701              		.set	.LANCHOR2,. + 0
 702              		.type	vcom_strings, %object
 703              		.size	vcom_strings, 32
 704              	vcom_strings:
 705 0000 04000000 		.word	4
 706 0004 00000000 		.word	vcom_string0
 707 0008 00000000 		.word	0
 708 000c 00000000 		.word	0
 709 0010 00000000 		.word	0
 710 0014 00000000 		.word	0
 711 0018 00000000 		.word	0
 712 001c 00000000 		.word	0
 713              		.section	.rodata.vcom_configuration_descriptor,"a",%progbits
 714              		.align	2
 715              		.set	.LANCHOR1,. + 0
 716              		.type	vcom_configuration_descriptor, %object
 717              		.size	vcom_configuration_descriptor, 8
 718              	vcom_configuration_descriptor:
 719 0000 43000000 		.word	67
 720 0004 00000000 		.word	vcom_configuration_descriptor_data
 721              		.section	.rodata.ep2config,"a",%progbits
 722              		.align	2
 723              		.set	.LANCHOR5,. + 0
 724              		.type	ep2config, %object
 725              		.size	ep2config, 36
 726              	ep2config:
 727 0000 03000000 		.word	3
 728 0004 00000000 		.word	0
 729 0008 00000000 		.word	sduInterruptTransmitted
 730 000c 00000000 		.word	0
 731 0010 1000     		.short	16
ARM GAS  /tmp/ccF8ay9h.s 			page 14


 732 0012 0000     		.short	0
 733 0014 00000000 		.word	ep2instate
 734 0018 00000000 		.word	0
 735 001c 0100     		.short	1
 736 001e 0000     		.space	2
 737 0020 00000000 		.word	0
 738              		.section	.rodata.str1.1,"aMS",%progbits,1
 739              	.LC0:
 740 0000 25424F41 		.ascii	"%BOARD%\000"
 740      52442500 
 741              	.LC1:
 742 0008 25534552 		.ascii	"%SERIAL%\000"
 742      49414C25 
 742      00
 743              	.LC2:
 744 0011 46344259 		.ascii	"F4BY\000"
 744      00
 745              	.LC3:
 746 0016 30313233 		.ascii	"0123456789ABCDEF\000"
 746      34353637 
 746      38394142 
 746      43444546 
 746      00
 747              	.LC4:
 748 0027 53776966 		.ascii	"Swift-Flyer\000"
 748      742D466C 
 748      79657200 
 749              		.section	.rodata.usbcfg,"a",%progbits
 750              		.align	2
 751              		.type	usbcfg, %object
 752              		.size	usbcfg, 16
 753              	usbcfg:
 754 0000 00000000 		.word	usb_event
 755 0004 00000000 		.word	get_descriptor
 756 0008 00000000 		.word	sduRequestsHook
 757 000c 00000000 		.word	sof_handler
 758              		.section	.rodata.vcom_configuration_descriptor_data,"a",%progbits
 759              		.type	vcom_configuration_descriptor_data, %object
 760              		.size	vcom_configuration_descriptor_data, 67
 761              	vcom_configuration_descriptor_data:
 762 0000 09       		.byte	9
 763 0001 02       		.byte	2
 764 0002 43       		.byte	67
 765 0003 00       		.byte	0
 766 0004 02       		.byte	2
 767 0005 01       		.byte	1
 768 0006 00       		.byte	0
 769 0007 C0       		.byte	-64
 770 0008 32       		.byte	50
 771 0009 09       		.byte	9
 772 000a 04       		.byte	4
 773 000b 00       		.byte	0
 774 000c 00       		.byte	0
 775 000d 01       		.byte	1
 776 000e 02       		.byte	2
 777 000f 02       		.byte	2
 778 0010 01       		.byte	1
ARM GAS  /tmp/ccF8ay9h.s 			page 15


 779 0011 00       		.byte	0
 780 0012 05       		.byte	5
 781 0013 24       		.byte	36
 782 0014 00       		.byte	0
 783 0015 10       		.byte	16
 784 0016 01       		.byte	1
 785 0017 05       		.byte	5
 786 0018 24       		.byte	36
 787 0019 01       		.byte	1
 788 001a 00       		.byte	0
 789 001b 01       		.byte	1
 790 001c 04       		.byte	4
 791 001d 24       		.byte	36
 792 001e 02       		.byte	2
 793 001f 02       		.byte	2
 794 0020 05       		.byte	5
 795 0021 24       		.byte	36
 796 0022 06       		.byte	6
 797 0023 00       		.byte	0
 798 0024 01       		.byte	1
 799 0025 07       		.byte	7
 800 0026 05       		.byte	5
 801 0027 82       		.byte	-126
 802 0028 03       		.byte	3
 803 0029 08       		.byte	8
 804 002a 00       		.byte	0
 805 002b FF       		.byte	-1
 806 002c 09       		.byte	9
 807 002d 04       		.byte	4
 808 002e 01       		.byte	1
 809 002f 00       		.byte	0
 810 0030 02       		.byte	2
 811 0031 0A       		.byte	10
 812 0032 00       		.byte	0
 813 0033 00       		.byte	0
 814 0034 00       		.byte	0
 815 0035 07       		.byte	7
 816 0036 05       		.byte	5
 817 0037 01       		.byte	1
 818 0038 02       		.byte	2
 819 0039 40       		.byte	64
 820 003a 00       		.byte	0
 821 003b 00       		.byte	0
 822 003c 07       		.byte	7
 823 003d 05       		.byte	5
 824 003e 81       		.byte	-127
 825 003f 02       		.byte	2
 826 0040 40       		.byte	64
 827 0041 00       		.byte	0
 828 0042 00       		.byte	0
 829              		.section	.rodata.vcom_device_descriptor_data,"a",%progbits
 830              		.type	vcom_device_descriptor_data, %object
 831              		.size	vcom_device_descriptor_data, 18
 832              	vcom_device_descriptor_data:
 833 0000 12       		.byte	18
 834 0001 01       		.byte	1
 835 0002 10       		.byte	16
ARM GAS  /tmp/ccF8ay9h.s 			page 16


 836 0003 01       		.byte	1
 837 0004 02       		.byte	2
 838 0005 00       		.byte	0
 839 0006 00       		.byte	0
 840 0007 40       		.byte	64
 841 0008 AC       		.byte	-84
 842 0009 27       		.byte	39
 843 000a 01       		.byte	1
 844 000b 02       		.byte	2
 845 000c 00       		.byte	0
 846 000d 02       		.byte	2
 847 000e 01       		.byte	1
 848 000f 02       		.byte	2
 849 0010 03       		.byte	3
 850 0011 01       		.byte	1
 851              		.section	.bss.ep1outstate,"aw",%nobits
 852              		.align	2
 853              		.type	ep1outstate, %object
 854              		.size	ep1outstate, 16
 855              	ep1outstate:
 856 0000 00000000 		.space	16
 856      00000000 
 856      00000000 
 856      00000000 
 857              		.section	.rodata.vcom_string0,"a",%progbits
 858              		.type	vcom_string0, %object
 859              		.size	vcom_string0, 4
 860              	vcom_string0:
 861 0000 04       		.byte	4
 862 0001 03       		.byte	3
 863 0002 09       		.byte	9
 864 0003 04       		.byte	4
 865              		.section	.bss.vcom_buffers,"aw",%nobits
 866              		.set	.LANCHOR6,. + 0
 867              		.type	vcom_buffers, %object
 868              		.size	vcom_buffers, 606
 869              	vcom_buffers:
 870 0000 00000000 		.space	606
 870      00000000 
 870      00000000 
 870      00000000 
 870      00000000 
 871              		.section	.rodata.serusbcfg,"a",%progbits
 872              		.align	2
 873              		.type	serusbcfg, %object
 874              		.size	serusbcfg, 8
 875              	serusbcfg:
 876 0000 00000000 		.word	USBD1
 877 0004 01       		.byte	1
 878 0005 01       		.byte	1
 879 0006 02       		.byte	2
 880 0007 00       		.space	1
 881              		.section	.rodata.vcom_device_descriptor,"a",%progbits
 882              		.align	2
 883              		.set	.LANCHOR0,. + 0
 884              		.type	vcom_device_descriptor, %object
 885              		.size	vcom_device_descriptor, 8
ARM GAS  /tmp/ccF8ay9h.s 			page 17


 886              	vcom_device_descriptor:
 887 0000 12000000 		.word	18
 888 0004 00000000 		.word	vcom_device_descriptor_data
 889              		.text
 890              	.Letext0:
 891              		.file 4 "/usr/lib/gcc/arm-none-eabi/4.9.3/include/stddef.h"
 892              		.file 5 "/usr/include/newlib/machine/_default_types.h"
 893              		.file 6 "/usr/include/newlib/sys/_stdint.h"
 894              		.file 7 "../../modules/ChibiOS/os/common/ports/ARMCMx/compilers/GCC/chtypes.h"
 895              		.file 8 "../../modules/ChibiOS/os/rt/include/chsystypes.h"
 896              		.file 9 "../../modules/ChibiOS/os/rt/include/chschd.h"
 897              		.file 10 "../../modules/ChibiOS/os/rt/include/chtime.h"
 898              		.file 11 "../../modules/ChibiOS/os/common/ports/ARMCMx/chcore.h"
 899              		.file 12 "../../modules/ChibiOS/os/common/ports/ARMCMx/chcore_v7m.h"
 900              		.file 13 "../../modules/ChibiOS/os/rt/include/chtm.h"
 901              		.file 14 "../../modules/ChibiOS/os/rt/include/chstats.h"
 902              		.file 15 "../../modules/ChibiOS/os/rt/include/chsem.h"
 903              		.file 16 "../../modules/ChibiOS/os/rt/include/chmtx.h"
 904              		.file 17 "../../modules/ChibiOS/os/rt/include/chevents.h"
 905              		.file 18 "../../modules/ChibiOS/os/hal/include/hal_buffers.h"
 906              		.file 19 "../../modules/ChibiOS/os/hal/include/hal_usb.h"
 907              		.file 20 "../../modules/ChibiOS/os/hal/ports/STM32/LLD/OTGv1/hal_usb_lld.h"
 908              		.file 21 "../../modules/ChibiOS/os/hal/ports/STM32/LLD/OTGv1/stm32_otg.h"
 909              		.file 22 "../../modules/ChibiOS/os/hal/include/hal_serial_usb.h"
 910              		.file 23 "../../modules/ChibiOS/os/hal/osal/rt/osal.h"
 911              		.file 24 "../../modules/ChibiOS/os/common/ext/ARM/CMSIS/Core/Include/core_cm4.h"
 912              		.file 25 "/usr/include/newlib/string.h"