ARM GAS  /tmp/ccXmVgDX.s 			page 1


   1              		.syntax unified
   2              		.cpu cortex-m4
   3              		.eabi_attribute 27, 1
   4              		.eabi_attribute 28, 1
   5              		.fpu fpv4-sp-d16
   6              		.eabi_attribute 20, 1
   7              		.eabi_attribute 21, 1
   8              		.eabi_attribute 23, 3
   9              		.eabi_attribute 24, 1
  10              		.eabi_attribute 25, 1
  11              		.eabi_attribute 26, 1
  12              		.eabi_attribute 30, 4
  13              		.eabi_attribute 34, 1
  14              		.eabi_attribute 18, 4
  15              		.thumb
  16              		.file	"watchdog.c"
  17              		.text
  18              	.Ltext0:
  19              		.cfi_sections	.debug_frame
  20              		.section	.text.stm32_watchdog_init,"ax",%progbits
  21              		.align	1
  22              		.global	stm32_watchdog_init
  23              		.thumb
  24              		.thumb_func
  25              		.type	stm32_watchdog_init, %function
  26              	stm32_watchdog_init:
  27              	.LFB323:
  28              		.file 1 "../../libraries/AP_HAL_ChibiOS/hwdef/common/watchdog.c"
  29              		.loc 1 62 0
  30              		.cfi_startproc
  31              		@ args = 0, pretend = 0, frame = 0
  32              		@ frame_needed = 0, uses_anonymous_args = 0
  33              		@ link register save eliminated.
  34              		.loc 1 64 0
  35 0000 074B     		ldr	r3, .L2
  36 0002 45F25552 		movw	r2, #21845
  37 0006 1A60     		str	r2, [r3]
  38              		.loc 1 65 0
  39 0008 0222     		movs	r2, #2
  40 000a 5A60     		str	r2, [r3, #4]
  41              		.loc 1 66 0
  42 000c 40F6FF72 		movw	r2, #4095
  43 0010 9A60     		str	r2, [r3, #8]
  44              		.loc 1 67 0
  45 0012 4CF6CC42 		movw	r2, #52428
  46 0016 1A60     		str	r2, [r3]
  47              		.loc 1 68 0
  48 0018 024B     		ldr	r3, .L2+4
  49 001a 0122     		movs	r2, #1
  50 001c 1A70     		strb	r2, [r3]
  51 001e 7047     		bx	lr
  52              	.L3:
  53              		.align	2
  54              	.L2:
  55 0020 00300040 		.word	1073754112
  56 0024 00000000 		.word	.LANCHOR0
  57              		.cfi_endproc
ARM GAS  /tmp/ccXmVgDX.s 			page 2


  58              	.LFE323:
  59              		.size	stm32_watchdog_init, .-stm32_watchdog_init
  60              		.section	.text.stm32_watchdog_pat,"ax",%progbits
  61              		.align	1
  62              		.global	stm32_watchdog_pat
  63              		.thumb
  64              		.thumb_func
  65              		.type	stm32_watchdog_pat, %function
  66              	stm32_watchdog_pat:
  67              	.LFB324:
  68              		.loc 1 76 0
  69              		.cfi_startproc
  70              		@ args = 0, pretend = 0, frame = 0
  71              		@ frame_needed = 0, uses_anonymous_args = 0
  72              		@ link register save eliminated.
  73              		.loc 1 77 0
  74 0000 034B     		ldr	r3, .L10
  75 0002 1B78     		ldrb	r3, [r3]	@ zero_extendqisi2
  76 0004 1BB1     		cbz	r3, .L4
  77              		.loc 1 78 0
  78 0006 034B     		ldr	r3, .L10+4
  79 0008 4AF6AA22 		movw	r2, #43690
  80 000c 1A60     		str	r2, [r3]
  81              	.L4:
  82 000e 7047     		bx	lr
  83              	.L11:
  84              		.align	2
  85              	.L10:
  86 0010 00000000 		.word	.LANCHOR0
  87 0014 00300040 		.word	1073754112
  88              		.cfi_endproc
  89              	.LFE324:
  90              		.size	stm32_watchdog_pat, .-stm32_watchdog_pat
  91              		.section	.text.stm32_watchdog_save_reason,"ax",%progbits
  92              		.align	1
  93              		.global	stm32_watchdog_save_reason
  94              		.thumb
  95              		.thumb_func
  96              		.type	stm32_watchdog_save_reason, %function
  97              	stm32_watchdog_save_reason:
  98              	.LFB325:
  99              		.loc 1 86 0
 100              		.cfi_startproc
 101              		@ args = 0, pretend = 0, frame = 0
 102              		@ frame_needed = 0, uses_anonymous_args = 0
 103              		@ link register save eliminated.
 104              		.loc 1 87 0
 105 0000 034B     		ldr	r3, .L17
 106 0002 1B68     		ldr	r3, [r3]
 107 0004 9B00     		lsls	r3, r3, #2
 108              		.loc 1 88 0
 109 0006 42BF     		ittt	mi
 110 0008 024B     		ldrmi	r3, .L17+4
 111 000a 0122     		movmi	r2, #1
 112 000c 1A70     		strbmi	r2, [r3]
 113 000e 7047     		bx	lr
 114              	.L18:
ARM GAS  /tmp/ccXmVgDX.s 			page 3


 115              		.align	2
 116              	.L17:
 117 0010 74380240 		.word	1073887348
 118 0014 00000000 		.word	.LANCHOR1
 119              		.cfi_endproc
 120              	.LFE325:
 121              		.size	stm32_watchdog_save_reason, .-stm32_watchdog_save_reason
 122              		.section	.text.stm32_watchdog_clear_reason,"ax",%progbits
 123              		.align	1
 124              		.global	stm32_watchdog_clear_reason
 125              		.thumb
 126              		.thumb_func
 127              		.type	stm32_watchdog_clear_reason, %function
 128              	stm32_watchdog_clear_reason:
 129              	.LFB326:
 130              		.loc 1 96 0
 131              		.cfi_startproc
 132              		@ args = 0, pretend = 0, frame = 0
 133              		@ frame_needed = 0, uses_anonymous_args = 0
 134              		@ link register save eliminated.
 135              		.loc 1 97 0
 136 0000 024B     		ldr	r3, .L20
 137 0002 4FF08072 		mov	r2, #16777216
 138 0006 1A60     		str	r2, [r3]
 139 0008 7047     		bx	lr
 140              	.L21:
 141 000a 00BF     		.align	2
 142              	.L20:
 143 000c 74380240 		.word	1073887348
 144              		.cfi_endproc
 145              	.LFE326:
 146              		.size	stm32_watchdog_clear_reason, .-stm32_watchdog_clear_reason
 147              		.section	.text.stm32_was_watchdog_reset,"ax",%progbits
 148              		.align	1
 149              		.global	stm32_was_watchdog_reset
 150              		.thumb
 151              		.thumb_func
 152              		.type	stm32_was_watchdog_reset, %function
 153              	stm32_was_watchdog_reset:
 154              	.LFB327:
 155              		.loc 1 104 0
 156              		.cfi_startproc
 157              		@ args = 0, pretend = 0, frame = 0
 158              		@ frame_needed = 0, uses_anonymous_args = 0
 159              		@ link register save eliminated.
 160              		.loc 1 106 0
 161 0000 014B     		ldr	r3, .L23
 162 0002 1878     		ldrb	r0, [r3]	@ zero_extendqisi2
 163 0004 7047     		bx	lr
 164              	.L24:
 165 0006 00BF     		.align	2
 166              	.L23:
 167 0008 00000000 		.word	.LANCHOR1
 168              		.cfi_endproc
 169              	.LFE327:
 170              		.size	stm32_was_watchdog_reset, .-stm32_was_watchdog_reset
 171              		.section	.text.stm32_watchdog_save,"ax",%progbits
ARM GAS  /tmp/ccXmVgDX.s 			page 4


 172              		.align	1
 173              		.global	stm32_watchdog_save
 174              		.thumb
 175              		.thumb_func
 176              		.type	stm32_watchdog_save, %function
 177              	stm32_watchdog_save:
 178              	.LFB328:
 179              		.loc 1 112 0
 180              		.cfi_startproc
 181              		@ args = 0, pretend = 0, frame = 0
 182              		@ frame_needed = 0, uses_anonymous_args = 0
 183              		@ link register save eliminated.
 184              	.LVL0:
 185              		.loc 1 112 0
 186 0000 0346     		mov	r3, r0
 187              		.loc 1 113 0
 188 0002 CAB2     		uxtb	r2, r1
 189 0004 0120     		movs	r0, #1
 190              	.LVL1:
 191 0006 1946     		mov	r1, r3
 192              	.LVL2:
 193 0008 FFF7FEBF 		b	set_rtc_backup
 194              	.LVL3:
 195              		.cfi_endproc
 196              	.LFE328:
 197              		.size	stm32_watchdog_save, .-stm32_watchdog_save
 198              		.section	.text.stm32_watchdog_load,"ax",%progbits
 199              		.align	1
 200              		.global	stm32_watchdog_load
 201              		.thumb
 202              		.thumb_func
 203              		.type	stm32_watchdog_load, %function
 204              	stm32_watchdog_load:
 205              	.LFB329:
 206              		.loc 1 120 0
 207              		.cfi_startproc
 208              		@ args = 0, pretend = 0, frame = 0
 209              		@ frame_needed = 0, uses_anonymous_args = 0
 210              		@ link register save eliminated.
 211              	.LVL4:
 212              		.loc 1 120 0
 213 0000 0346     		mov	r3, r0
 214              		.loc 1 121 0
 215 0002 CAB2     		uxtb	r2, r1
 216 0004 0120     		movs	r0, #1
 217              	.LVL5:
 218 0006 1946     		mov	r1, r3
 219              	.LVL6:
 220 0008 FFF7FEBF 		b	get_rtc_backup
 221              	.LVL7:
 222              		.cfi_endproc
 223              	.LFE329:
 224              		.size	stm32_watchdog_load, .-stm32_watchdog_load
 225              		.section	.bss.was_watchdog_reset,"aw",%nobits
 226              		.set	.LANCHOR1,. + 0
 227              		.type	was_watchdog_reset, %object
 228              		.size	was_watchdog_reset, 1
ARM GAS  /tmp/ccXmVgDX.s 			page 5


 229              	was_watchdog_reset:
 230 0000 00       		.space	1
 231              		.section	.bss.watchdog_enabled,"aw",%nobits
 232              		.set	.LANCHOR0,. + 0
 233              		.type	watchdog_enabled, %object
 234              		.size	watchdog_enabled, 1
 235              	watchdog_enabled:
 236 0000 00       		.space	1
 237              		.text
 238              	.Letext0:
 239              		.file 2 "/usr/lib/gcc/arm-none-eabi/4.9.3/include/stddef.h"
 240              		.file 3 "/usr/include/newlib/machine/_default_types.h"
 241              		.file 4 "/usr/include/newlib/sys/_stdint.h"
 242              		.file 5 "../../modules/ChibiOS/os/common/ports/ARMCMx/compilers/GCC/chtypes.h"
 243              		.file 6 "../../modules/ChibiOS/os/rt/include/chsystypes.h"
 244              		.file 7 "../../modules/ChibiOS/os/rt/include/chschd.h"
 245              		.file 8 "../../modules/ChibiOS/os/rt/include/chtime.h"
 246              		.file 9 "../../modules/ChibiOS/os/common/ports/ARMCMx/chcore.h"
 247              		.file 10 "../../modules/ChibiOS/os/common/ports/ARMCMx/chcore_v7m.h"
 248              		.file 11 "../../modules/ChibiOS/os/rt/include/chtm.h"
 249              		.file 12 "../../modules/ChibiOS/os/rt/include/chstats.h"
 250              		.file 13 "../../modules/ChibiOS/os/rt/include/chsem.h"
 251              		.file 14 "../../modules/ChibiOS/os/rt/include/chmtx.h"
 252              		.file 15 "../../modules/ChibiOS/os/common/ext/ARM/CMSIS/Core/Include/core_cm4.h"
 253              		.file 16 "../../libraries/AP_HAL_ChibiOS/hwdef/common/stm32_util.h"