ARM GAS  /tmp/ccXmVgDX.s 			page 1


   1              		.syntax unified
   2              		.cpu cortex-m4
   3              		.eabi_attribute 27, 1
   4              		.eabi_attribute 28, 1
   5              		.fpu fpv4-sp-d16
   6              		.eabi_attribute 20, 1
   7              		.eabi_attribute 21, 1
   8              		.eabi_attribute 23, 3
   9              		.eabi_attribute 24, 1
  10              		.eabi_attribute 25, 1
  11              		.eabi_attribute 26, 1
  12              		.eabi_attribute 30, 4
  13              		.eabi_attribute 34, 1
  14              		.eabi_attribute 18, 4
  15              		.thumb
  16              		.file	"watchdog.c"
  17              		.text
  18              	.Ltext0:
  19              		.cfi_sections	.debug_frame
  20              		.section	.text.stm32_watchdog_init,"ax",%progbits
  21              		.align	1
  22              		.global	stm32_watchdog_init
  23              		.thumb
  24              		.thumb_func
  25              		.type	stm32_watchdog_init, %function
  26              	stm32_watchdog_init:
  27              	.LFB323:
  28              		.file 1 "../../libraries/AP_HAL_ChibiOS/hwdef/common/watchdog.c"
  29              		.loc 1 62 0
  30              		.cfi_startproc
  31              		@ args = 0, pretend = 0, frame = 0
  32              		@ frame_needed = 0, uses_anonymous_args = 0
  33              		@ link register save eliminated.
  34              		.loc 1 64 0
  35 0000 074B     		ldr	r3, .L2
  36 0002 45F25552 		movw	r2, #21845
  37 0006 1A60     		str	r2, [r3]
  38              		.loc 1 65 0
  39 0008 0222     		movs	r2, #2
  40 000a 5A60     		str	r2, [r3, #4]
  41              		.loc 1 66 0
  42 000c 40F6FF72 		movw	r2, #4095
  43 0010 9A60     		str	r2, [r3, #8]
  44              		.loc 1 67 0
  45 0012 4CF6CC42 		movw	r2, #52428
  46 0016 1A60     		str	r2, [r3]
  47              		.loc 1 68 0
  48 0018 024B     		ldr	r3, .L2+4
  49 001a 0122     		movs	r2, #1
  50 001c 1A70     		strb	r2, [r3]
  51 001e 7047     		bx	lr
  52              	.L3:
  53              		.align	2
  54              	.L2:
  55 0020 00300040 		.word	1073754112
  56 0024 00000000 		.word	.LANCHOR0
  57              		.cfi_endproc
ARM GAS  /tmp/ccXmVgDX.s 			page 2


  58              	.LFE323:
  59              		.size	stm32_watchdog_init, .-stm32_watchdog_init
  60              		.section	.text.stm32_watchdog_pat,"ax",%progbits
  61              		.align	1
  62              		.global	stm32_watchdog_pat
  63              		.thumb
  64              		.thumb_func
  65              		.type	stm32_watchdog_pat, %function
  66              	stm32_watchdog_pat:
  67              	.LFB324:
  68              		.loc 1 76 0
  69              		.cfi_startproc
  70              		@ args = 0, pretend = 0, frame = 0
  71              		@ frame_needed = 0, uses_anonymous_args = 0
  72              		@ link register save eliminated.
  73              		.loc 1 77 0
  74 0000 034B     		ldr	r3, .L10
  75 0002 1B78     		ldrb	r3, [r3]	@ zero_extendqisi2
  76 0004 1BB1     		cbz	r3, .L4
  77              		.loc 1 78 0
  78 0006 034B     		ldr	r3, .L10+4
  79 0008 4AF6AA22 		movw	r2, #43690
  80 000c 1A60     		str	r2, [r3]
  81              	.L4:
  82 000e 7047     		bx	lr
  83              	.L11:
  84              		.align	2
  85              	.L10:
  86 0010 00000000 		.word	.LANCHOR0
  87 0014 00300040 		.word	1073754112
  88              		.cfi_endproc
  89              	.LFE324:
  90              		.size	stm32_watchdog_pat, .-stm32_watchdog_pat
  91              		.section	.text.stm32_watchdog_save_reason,"ax",%progbits
  92              		.align	1
  93              		.global	stm32_watchdog_save_reason
  94              		.thumb
  95              		.thumb_func
  96              		.type	stm32_watchdog_save_reason, %function
  97              	stm32_watchdog_save_reason:
  98              	.LFB325:
  99              		.loc 1 86 0
 100              		.cfi_startproc
 101              		@ args = 0, pretend = 0, frame = 0
 102              		@ frame_needed = 0, uses_anonymous_args = 0
 103              		@ link register save eliminated.
 104              		.loc 1 87 0
 105 0000 034B     		ldr	r3, .L17
 106 0002 1B68     		ldr	r3, [r3]
 107 0004 9B00     		lsls	r3, r3, #2
 108              		.loc 1 88 0
 109 0006 42BF     		ittt	mi
 110 0008 024B     		ldrmi	r3, .L17+4
 111 000a 0122     		movmi	r2, #1
 112 000c 1A70     		strbmi	r2, [r3]
 113 000e 7047     		bx	lr
 114              	.L18:
ARM GAS  /tmp/ccXmVgDX.s 			page 3


 115              		.align	2
 116              	.L17:
 117 0010 74380240 		.word	1073887348
 118 0014 00000000 		.word	.LANCHOR1
 119              		.cfi_endproc
 120              	.LFE325:
 121              		.size	stm32_watchdog_save_reason, .-stm32_watchdog_save_reason
 122              		.section	.text.stm32_watchdog_clear_reason,"ax",%progbits
 123              		.align	1
 124              		.global	stm32_watchdog_clear_reason
 125              		.thumb
 126              		.thumb_func
 127              		.type	stm32_watchdog_clear_reason, %function
 128              	stm32_watchdog_clear_reason:
 129              	.LFB326:
 130              		.loc 1 96 0
 131              		.cfi_startproc
 132              		@ args = 0, pretend = 0, frame = 0
 133              		@ frame_needed = 0, uses_anonymous_args = 0
 134              		@ link register save eliminated.
 135              		.loc 1 97 0
 136 0000 024B     		ldr	r3, .L20
 137 0002 4FF08072 		mov	r2, #16777216
 138 0006 1A60     		str	r2, [r3]
 139 0008 7047     		bx	lr
 140              	.L21:
 141 000a 00BF     		.align	2
 142              	.L20:
 143 000c 74380240 		.word	1073887348
 144              		.cfi_endproc
 145              	.LFE326:
 146              		.size	stm32_watchdog_clear_reason, .-stm32_watchdog_clear_reason
 147              		.section	.text.stm32_was_watchdog_reset,"ax",%progbits
 148              		.align	1
 149              		.global	stm32_was_watchdog_reset
 150              		.thumb
 151              		.thumb_func
 152              		.type	stm32_was_watchdog_reset, %function
 153              	stm32_was_watchdog_reset:
 154              	.LFB327:
 155              		.loc 1 104 0
 156              		.cfi_startproc
 157              		@ args = 0, pretend = 0, frame = 0
 158              		@ frame_needed = 0, uses_anonymous_args = 0
 159              		@ link register save eliminated.
 160              		.loc 1 106 0
 161 0000 014B     		ldr	r3, .L23
 162 0002 1878     		ldrb	r0, [r3]	@ zero_extendqisi2
 163 0004 7047     		bx	lr
 164              	.L24:
 165 0006 00BF     		.align	2
 166              	.L23:
 167 0008 00000000 		.word	.LANCHOR1
 168              		.cfi_endproc
 169              	.LFE327:
 170              		.size	stm32_was_watchdog_reset, .-stm32_was_watchdog_reset
 171              		.section	.text.stm32_watchdog_save,"ax",%progbits
ARM GAS  /tmp/ccXmVgDX.s 			page 4


 172              		.align	1
 173              		.global	stm32_watchdog_save
 174              		.thumb
 175              		.thumb_func
 176              		.type	stm32_watchdog_save, %function
 177              	stm32_watchdog_save:
 178              	.LFB328:
 179              		.loc 1 112 0
 180              		.cfi_startproc
 181              		@ args = 0, pretend = 0, frame = 0
 182              		@ frame_needed = 0, uses_anonymous_args = 0
 183              		@ link register save eliminated.
 184              	.LVL0:
 185              		.loc 1 112 0
 186 0000 0346     		mov	r3, r0
 187              		.loc 1 113 0
 188 0002 CAB2     		uxtb	r2, r1
 189 0004 0120     		movs	r0, #1
 190              	.LVL1:
 191 0006 1946     		mov	r1, r3
 192              	.LVL2:
 193 0008 FFF7FEBF 		b	set_rtc_backup
 194              	.LVL3:
 195              		.cfi_endproc
 196              	.LFE328:
 197              		.size	stm32_watchdog_save, .-stm32_watchdog_save
 198              		.section	.text.stm32_watchdog_load,"ax",%progbits
 199              		.align	1
 200              		.global	stm32_watchdog_load
 201              		.thumb
 202              		.thumb_func
 203              		.type	stm32_watchdog_load, %function
 204              	stm32_watchdog_load:
 205              	.LFB329:
 206              		.loc 1 120 0
 207              		.cfi_startproc
 208              		@ args = 0, pretend = 0, frame = 0
 209              		@ frame_needed = 0, uses_anonymous_args = 0
 210              		@ link register save eliminated.
 211              	.LVL4:
 212              		.loc 1 120 0
 213 0000 0346     		mov	r3, r0
 214              		.loc 1 121 0
 215 0002 CAB2     		uxtb	r2, r1
 216 0004 0120     		movs	r0, #1
 217              	.LVL5:
 218 0006 1946     		mov	r1, r3
 219              	.LVL6:
 220 0008 FFF7FEBF 		b	get_rtc_backup
 221              	.LVL7:
 222              		.cfi_endproc
 223              	.LFE329:
 224              		.size	stm32_watchdog_load, .-stm32_watchdog_load
 225              		.section	.bss.was_watchdog_reset,"aw",%nobits
 226              		.set	.LANCHOR1,. + 0
 227              		.type	was_watchdog_reset, %object
 228              		.size	was_watchdog_reset, 1
ARM GAS  /tmp/ccXmVgDX.s 			page 5


 229              	was_watchdog_reset:
 230 0000 00       		.space	1
 231              		.section	.bss.watchdog_enabled,"aw",%nobits
 232              		.set	.LANCHOR0,. + 0
 233              		.type	watchdog_enabled, %object
 234              		.size	watchdog_enabled, 1
 235              	watchdog_enabled:
 236 0000 00       		.space	1
 237              		.text
 238              	.Letext0:
 239              		.file 2 "/usr/lib/gcc/arm-none-eabi/4.9.3/include/stddef.h"
 240              		.file 3 "/usr/include/newlib/machine/_default_types.h"
 241              		.file 4 "/usr/include/newlib/sys/_stdint.h"
 242              		.file 5 "../../modules/ChibiOS/os/common/ports/ARMCMx/compilers/GCC/chtypes.h"
 243              		.file 6 "../../modules/ChibiOS/os/rt/include/chsystypes.h"
 244              		.file 7 "../../modules/ChibiOS/os/rt/include/chschd.h"
 245              		.file 8 "../../modules/ChibiOS/os/rt/include/chtime.h"
 246              		.file 9 "../../modules/ChibiOS/os/common/ports/ARMCMx/chcore.h"
 247              		.file 10 "../../modules/ChibiOS/os/common/ports/ARMCMx/chcore_v7m.h"
 248              		.file 11 "../../modules/ChibiOS/os/rt/include/chtm.h"
 249              		.file 12 "../../modules/ChibiOS/os/rt/include/chstats.h"
 250              		.file 13 "../../modules/ChibiOS/os/rt/include/chsem.h"
 251              		.file 14 "../../modules/ChibiOS/os/rt/include/chmtx.h"
 252              		.file 15 "../../modules/ChibiOS/os/common/ext/ARM/CMSIS/Core/Include/core_cm4.h"
 253              		.file 16 "../../libraries/AP_HAL_ChibiOS/hwdef/common/stm32_util.h"
 254              		.section	.debug_info,"",%progbits
 255              	.Ldebug_info0:
 256 0000 6E090000 		.4byte	0x96e
 257 0004 0400     		.2byte	0x4
 258 0006 00000000 		.4byte	.Ldebug_abbrev0
 259 000a 04       		.byte	0x4
 260 000b 01       		.uleb128 0x1
 261 000c 19020000 		.4byte	.LASF119
 262 0010 01       		.byte	0x1
 263 0011 30010000 		.4byte	.LASF120
 264 0015 E3050000 		.4byte	.LASF121
 265 0019 00000000 		.4byte	.Ldebug_ranges0+0
 266 001d 00000000 		.4byte	0
 267 0021 00000000 		.4byte	.Ldebug_line0
 268 0025 02       		.uleb128 0x2
 269 0026 04       		.byte	0x4
 270 0027 05       		.byte	0x5
 271 0028 696E7400 		.ascii	"int\000"
 272 002c 03       		.uleb128 0x3
 273 002d 0D000000 		.4byte	.LASF2
 274 0031 02       		.byte	0x2
 275 0032 D4       		.byte	0xd4
 276 0033 37000000 		.4byte	0x37
 277 0037 04       		.uleb128 0x4
 278 0038 04       		.byte	0x4
 279 0039 07       		.byte	0x7
 280 003a 0C020000 		.4byte	.LASF0
 281 003e 04       		.uleb128 0x4
 282 003f 01       		.byte	0x1
 283 0040 06       		.byte	0x6
 284 0041 24010000 		.4byte	.LASF1
 285 0045 03       		.uleb128 0x3
ARM GAS  /tmp/ccXmVgDX.s 			page 6


 286 0046 37000000 		.4byte	.LASF3
 287 004a 03       		.byte	0x3
 288 004b 1D       		.byte	0x1d
 289 004c 50000000 		.4byte	0x50
 290 0050 04       		.uleb128 0x4
 291 0051 01       		.byte	0x1
 292 0052 08       		.byte	0x8
 293 0053 BF040000 		.4byte	.LASF4
 294 0057 04       		.uleb128 0x4
 295 0058 02       		.byte	0x2
 296 0059 05       		.byte	0x5
 297 005a CD040000 		.4byte	.LASF5
 298 005e 04       		.uleb128 0x4
 299 005f 02       		.byte	0x2
 300 0060 07       		.byte	0x7
 301 0061 26030000 		.4byte	.LASF6
 302 0065 03       		.uleb128 0x3
 303 0066 C6030000 		.4byte	.LASF7
 304 006a 03       		.byte	0x3
 305 006b 3F       		.byte	0x3f
 306 006c 70000000 		.4byte	0x70
 307 0070 04       		.uleb128 0x4
 308 0071 04       		.byte	0x4
 309 0072 05       		.byte	0x5
 310 0073 96010000 		.4byte	.LASF8
 311 0077 03       		.uleb128 0x3
 312 0078 B3010000 		.4byte	.LASF9
 313 007c 03       		.byte	0x3
 314 007d 41       		.byte	0x41
 315 007e 82000000 		.4byte	0x82
 316 0082 04       		.uleb128 0x4
 317 0083 04       		.byte	0x4
 318 0084 07       		.byte	0x7
 319 0085 79050000 		.4byte	.LASF10
 320 0089 04       		.uleb128 0x4
 321 008a 08       		.byte	0x8
 322 008b 05       		.byte	0x5
 323 008c 16010000 		.4byte	.LASF11
 324 0090 03       		.uleb128 0x3
 325 0091 6D040000 		.4byte	.LASF12
 326 0095 03       		.byte	0x3
 327 0096 5B       		.byte	0x5b
 328 0097 9B000000 		.4byte	0x9b
 329 009b 04       		.uleb128 0x4
 330 009c 08       		.byte	0x8
 331 009d 07       		.byte	0x7
 332 009e 8B000000 		.4byte	.LASF13
 333 00a2 03       		.uleb128 0x3
 334 00a3 36060000 		.4byte	.LASF14
 335 00a7 04       		.byte	0x4
 336 00a8 14       		.byte	0x14
 337 00a9 45000000 		.4byte	0x45
 338 00ad 03       		.uleb128 0x3
 339 00ae B7040000 		.4byte	.LASF15
 340 00b2 04       		.byte	0x4
 341 00b3 1F       		.byte	0x1f
 342 00b4 65000000 		.4byte	0x65
ARM GAS  /tmp/ccXmVgDX.s 			page 7


 343 00b8 03       		.uleb128 0x3
 344 00b9 53050000 		.4byte	.LASF16
 345 00bd 04       		.byte	0x4
 346 00be 20       		.byte	0x20
 347 00bf 77000000 		.4byte	0x77
 348 00c3 03       		.uleb128 0x3
 349 00c4 21000000 		.4byte	.LASF17
 350 00c8 04       		.byte	0x4
 351 00c9 26       		.byte	0x26
 352 00ca 90000000 		.4byte	0x90
 353 00ce 03       		.uleb128 0x3
 354 00cf 0F060000 		.4byte	.LASF18
 355 00d3 05       		.byte	0x5
 356 00d4 27       		.byte	0x27
 357 00d5 B8000000 		.4byte	0xb8
 358 00d9 03       		.uleb128 0x3
 359 00da EB000000 		.4byte	.LASF19
 360 00de 05       		.byte	0x5
 361 00df 28       		.byte	0x28
 362 00e0 C3000000 		.4byte	0xc3
 363 00e4 03       		.uleb128 0x3
 364 00e5 92030000 		.4byte	.LASF20
 365 00e9 05       		.byte	0x5
 366 00ea 2A       		.byte	0x2a
 367 00eb A2000000 		.4byte	0xa2
 368 00ef 03       		.uleb128 0x3
 369 00f0 9F010000 		.4byte	.LASF21
 370 00f4 05       		.byte	0x5
 371 00f5 2B       		.byte	0x2b
 372 00f6 A2000000 		.4byte	0xa2
 373 00fa 03       		.uleb128 0x3
 374 00fb 83040000 		.4byte	.LASF22
 375 00ff 05       		.byte	0x5
 376 0100 2C       		.byte	0x2c
 377 0101 A2000000 		.4byte	0xa2
 378 0105 03       		.uleb128 0x3
 379 0106 A0040000 		.4byte	.LASF23
 380 010a 05       		.byte	0x5
 381 010b 2E       		.byte	0x2e
 382 010c B8000000 		.4byte	0xb8
 383 0110 03       		.uleb128 0x3
 384 0111 57030000 		.4byte	.LASF24
 385 0115 05       		.byte	0x5
 386 0116 2F       		.byte	0x2f
 387 0117 AD000000 		.4byte	0xad
 388 011b 03       		.uleb128 0x3
 389 011c BA030000 		.4byte	.LASF25
 390 0120 05       		.byte	0x5
 391 0121 31       		.byte	0x31
 392 0122 B8000000 		.4byte	0xb8
 393 0126 03       		.uleb128 0x3
 394 0127 06020000 		.4byte	.LASF26
 395 012b 05       		.byte	0x5
 396 012c 33       		.byte	0x33
 397 012d AD000000 		.4byte	0xad
 398 0131 03       		.uleb128 0x3
 399 0132 62030000 		.4byte	.LASF27
ARM GAS  /tmp/ccXmVgDX.s 			page 8


 400 0136 05       		.byte	0x5
 401 0137 34       		.byte	0x34
 402 0138 B8000000 		.4byte	0xb8
 403 013c 03       		.uleb128 0x3
 404 013d B1050000 		.4byte	.LASF28
 405 0141 06       		.byte	0x6
 406 0142 34       		.byte	0x34
 407 0143 47010000 		.4byte	0x147
 408 0147 05       		.uleb128 0x5
 409 0148 4D030000 		.4byte	.LASF47
 410 014c 60       		.byte	0x60
 411 014d 07       		.byte	0x7
 412 014e 8E       		.byte	0x8e
 413 014f 32020000 		.4byte	0x232
 414 0153 06       		.uleb128 0x6
 415 0154 15030000 		.4byte	.LASF29
 416 0158 07       		.byte	0x7
 417 0159 8F       		.byte	0x8f
 418 015a 67020000 		.4byte	0x267
 419 015e 00       		.byte	0
 420 015f 06       		.uleb128 0x6
 421 0160 60040000 		.4byte	.LASF30
 422 0164 07       		.byte	0x7
 423 0165 90       		.byte	0x90
 424 0166 05010000 		.4byte	0x105
 425 016a 08       		.byte	0x8
 426 016b 07       		.uleb128 0x7
 427 016c 63747800 		.ascii	"ctx\000"
 428 0170 07       		.byte	0x7
 429 0171 91       		.byte	0x91
 430 0172 87040000 		.4byte	0x487
 431 0176 0C       		.byte	0xc
 432 0177 06       		.uleb128 0x6
 433 0178 F6030000 		.4byte	.LASF31
 434 017c 07       		.byte	0x7
 435 017d 93       		.byte	0x93
 436 017e 3D020000 		.4byte	0x23d
 437 0182 10       		.byte	0x10
 438 0183 06       		.uleb128 0x6
 439 0184 97050000 		.4byte	.LASF32
 440 0188 07       		.byte	0x7
 441 0189 94       		.byte	0x94
 442 018a 3D020000 		.4byte	0x23d
 443 018e 14       		.byte	0x14
 444 018f 06       		.uleb128 0x6
 445 0190 48030000 		.4byte	.LASF33
 446 0194 07       		.byte	0x7
 447 0195 9B       		.byte	0x9b
 448 0196 6D070000 		.4byte	0x76d
 449 019a 18       		.byte	0x18
 450 019b 06       		.uleb128 0x6
 451 019c 8B050000 		.4byte	.LASF34
 452 01a0 07       		.byte	0x7
 453 01a1 A4       		.byte	0xa4
 454 01a2 7F070000 		.4byte	0x77f
 455 01a6 1C       		.byte	0x1c
 456 01a7 06       		.uleb128 0x6
ARM GAS  /tmp/ccXmVgDX.s 			page 9


 457 01a8 90010000 		.4byte	.LASF35
 458 01ac 07       		.byte	0x7
 459 01ad A9       		.byte	0xa9
 460 01ae EF000000 		.4byte	0xef
 461 01b2 20       		.byte	0x20
 462 01b3 06       		.uleb128 0x6
 463 01b4 3E060000 		.4byte	.LASF36
 464 01b8 07       		.byte	0x7
 465 01b9 AD       		.byte	0xad
 466 01ba E4000000 		.4byte	0xe4
 467 01be 21       		.byte	0x21
 468 01bf 06       		.uleb128 0x6
 469 01c0 8B040000 		.4byte	.LASF37
 470 01c4 07       		.byte	0x7
 471 01c5 B2       		.byte	0xb2
 472 01c6 FA000000 		.4byte	0xfa
 473 01ca 22       		.byte	0x22
 474 01cb 08       		.uleb128 0x8
 475 01cc 7500     		.ascii	"u\000"
 476 01ce 07       		.byte	0x7
 477 01cf 0301     		.2byte	0x103
 478 01d1 A3060000 		.4byte	0x6a3
 479 01d5 24       		.byte	0x24
 480 01d6 09       		.uleb128 0x9
 481 01d7 E8010000 		.4byte	.LASF38
 482 01db 07       		.byte	0x7
 483 01dc 0801     		.2byte	0x108
 484 01de 43020000 		.4byte	0x243
 485 01e2 28       		.byte	0x28
 486 01e3 09       		.uleb128 0x9
 487 01e4 87010000 		.4byte	.LASF39
 488 01e8 07       		.byte	0x7
 489 01e9 0E01     		.2byte	0x10e
 490 01eb 67020000 		.4byte	0x267
 491 01ef 2C       		.byte	0x2c
 492 01f0 09       		.uleb128 0x9
 493 01f1 69030000 		.4byte	.LASF40
 494 01f5 07       		.byte	0x7
 495 01f6 1401     		.2byte	0x114
 496 01f8 1B010000 		.4byte	0x11b
 497 01fc 34       		.byte	0x34
 498 01fd 09       		.uleb128 0x9
 499 01fe 6E060000 		.4byte	.LASF41
 500 0202 07       		.byte	0x7
 501 0203 1B01     		.2byte	0x11b
 502 0205 67070000 		.4byte	0x767
 503 0209 38       		.byte	0x38
 504 020a 09       		.uleb128 0x9
 505 020b FC030000 		.4byte	.LASF42
 506 020f 07       		.byte	0x7
 507 0210 1F01     		.2byte	0x11f
 508 0212 05010000 		.4byte	0x105
 509 0216 3C       		.byte	0x3c
 510 0217 09       		.uleb128 0x9
 511 0218 1B030000 		.4byte	.LASF43
 512 021c 07       		.byte	0x7
 513 021d 2601     		.2byte	0x126
ARM GAS  /tmp/ccXmVgDX.s 			page 10


 514 021f 1A030000 		.4byte	0x31a
 515 0223 40       		.byte	0x40
 516 0224 09       		.uleb128 0x9
 517 0225 AD010000 		.4byte	.LASF44
 518 0229 07       		.byte	0x7
 519 022a 2C01     		.2byte	0x12c
 520 022c 54060000 		.4byte	0x654
 521 0230 48       		.byte	0x48
 522 0231 00       		.byte	0
 523 0232 03       		.uleb128 0x3
 524 0233 0E040000 		.4byte	.LASF45
 525 0237 06       		.byte	0x6
 526 0238 39       		.byte	0x39
 527 0239 3D020000 		.4byte	0x23d
 528 023d 0A       		.uleb128 0xa
 529 023e 04       		.byte	0x4
 530 023f 3C010000 		.4byte	0x13c
 531 0243 03       		.uleb128 0x3
 532 0244 4B060000 		.4byte	.LASF46
 533 0248 06       		.byte	0x6
 534 0249 3E       		.byte	0x3e
 535 024a 4E020000 		.4byte	0x24e
 536 024e 05       		.uleb128 0x5
 537 024f 63050000 		.4byte	.LASF48
 538 0253 04       		.byte	0x4
 539 0254 07       		.byte	0x7
 540 0255 7C       		.byte	0x7c
 541 0256 67020000 		.4byte	0x267
 542 025a 06       		.uleb128 0x6
 543 025b E6000000 		.4byte	.LASF49
 544 025f 07       		.byte	0x7
 545 0260 7D       		.byte	0x7d
 546 0261 3D020000 		.4byte	0x23d
 547 0265 00       		.byte	0
 548 0266 00       		.byte	0
 549 0267 03       		.uleb128 0x3
 550 0268 17060000 		.4byte	.LASF50
 551 026c 06       		.byte	0x6
 552 026d 45       		.byte	0x45
 553 026e 72020000 		.4byte	0x272
 554 0272 05       		.uleb128 0x5
 555 0273 52000000 		.4byte	.LASF51
 556 0277 08       		.byte	0x8
 557 0278 07       		.byte	0x7
 558 0279 83       		.byte	0x83
 559 027a 97020000 		.4byte	0x297
 560 027e 06       		.uleb128 0x6
 561 027f E6000000 		.4byte	.LASF49
 562 0283 07       		.byte	0x7
 563 0284 84       		.byte	0x84
 564 0285 3D020000 		.4byte	0x23d
 565 0289 00       		.byte	0
 566 028a 06       		.uleb128 0x6
 567 028b 41000000 		.4byte	.LASF52
 568 028f 07       		.byte	0x7
 569 0290 85       		.byte	0x85
 570 0291 3D020000 		.4byte	0x23d
ARM GAS  /tmp/ccXmVgDX.s 			page 11


 571 0295 04       		.byte	0x4
 572 0296 00       		.byte	0
 573 0297 03       		.uleb128 0x3
 574 0298 00000000 		.4byte	.LASF53
 575 029c 06       		.byte	0x6
 576 029d 4C       		.byte	0x4c
 577 029e A2020000 		.4byte	0x2a2
 578 02a2 0B       		.uleb128 0xb
 579 02a3 AC030000 		.4byte	.LASF54
 580 02a7 1C       		.byte	0x1c
 581 02a8 07       		.byte	0x7
 582 02a9 5E01     		.2byte	0x15e
 583 02ab FE020000 		.4byte	0x2fe
 584 02af 09       		.uleb128 0x9
 585 02b0 15030000 		.4byte	.LASF29
 586 02b4 07       		.byte	0x7
 587 02b5 5F01     		.2byte	0x15f
 588 02b7 67020000 		.4byte	0x267
 589 02bb 00       		.byte	0
 590 02bc 09       		.uleb128 0x9
 591 02bd 60040000 		.4byte	.LASF30
 592 02c1 07       		.byte	0x7
 593 02c2 6001     		.2byte	0x160
 594 02c4 05010000 		.4byte	0x105
 595 02c8 08       		.byte	0x8
 596 02c9 08       		.uleb128 0x8
 597 02ca 63747800 		.ascii	"ctx\000"
 598 02ce 07       		.byte	0x7
 599 02cf 6201     		.2byte	0x162
 600 02d1 87040000 		.4byte	0x487
 601 02d5 0C       		.byte	0xc
 602 02d6 09       		.uleb128 0x9
 603 02d7 F6030000 		.4byte	.LASF31
 604 02db 07       		.byte	0x7
 605 02dc 6501     		.2byte	0x165
 606 02de 3D020000 		.4byte	0x23d
 607 02e2 10       		.byte	0x10
 608 02e3 09       		.uleb128 0x9
 609 02e4 97050000 		.4byte	.LASF32
 610 02e8 07       		.byte	0x7
 611 02e9 6601     		.2byte	0x166
 612 02eb 3D020000 		.4byte	0x23d
 613 02ef 14       		.byte	0x14
 614 02f0 09       		.uleb128 0x9
 615 02f1 65040000 		.4byte	.LASF55
 616 02f5 07       		.byte	0x7
 617 02f6 6901     		.2byte	0x169
 618 02f8 3D020000 		.4byte	0x23d
 619 02fc 18       		.byte	0x18
 620 02fd 00       		.byte	0
 621 02fe 03       		.uleb128 0x3
 622 02ff C9050000 		.4byte	.LASF56
 623 0303 06       		.byte	0x6
 624 0304 51       		.byte	0x51
 625 0305 09030000 		.4byte	0x309
 626 0309 0A       		.uleb128 0xa
 627 030a 04       		.byte	0x4
ARM GAS  /tmp/ccXmVgDX.s 			page 12


 628 030b 0F030000 		.4byte	0x30f
 629 030f 0C       		.uleb128 0xc
 630 0310 1A030000 		.4byte	0x31a
 631 0314 0D       		.uleb128 0xd
 632 0315 1A030000 		.4byte	0x31a
 633 0319 00       		.byte	0
 634 031a 0E       		.uleb128 0xe
 635 031b 04       		.byte	0x4
 636 031c 03       		.uleb128 0x3
 637 031d 90040000 		.4byte	.LASF57
 638 0321 06       		.byte	0x6
 639 0322 56       		.byte	0x56
 640 0323 27030000 		.4byte	0x327
 641 0327 0B       		.uleb128 0xb
 642 0328 19050000 		.4byte	.LASF58
 643 032c 14       		.byte	0x14
 644 032d 07       		.byte	0x7
 645 032e 3901     		.2byte	0x139
 646 0330 76030000 		.4byte	0x376
 647 0334 09       		.uleb128 0x9
 648 0335 E6000000 		.4byte	.LASF49
 649 0339 07       		.byte	0x7
 650 033a 3A01     		.2byte	0x13a
 651 033c 85070000 		.4byte	0x785
 652 0340 00       		.byte	0
 653 0341 09       		.uleb128 0x9
 654 0342 41000000 		.4byte	.LASF52
 655 0346 07       		.byte	0x7
 656 0347 3B01     		.2byte	0x13b
 657 0349 85070000 		.4byte	0x785
 658 034d 04       		.byte	0x4
 659 034e 09       		.uleb128 0x9
 660 034f 14000000 		.4byte	.LASF59
 661 0353 07       		.byte	0x7
 662 0354 3C01     		.2byte	0x13c
 663 0356 5A040000 		.4byte	0x45a
 664 035a 08       		.byte	0x8
 665 035b 09       		.uleb128 0x9
 666 035c A8010000 		.4byte	.LASF60
 667 0360 07       		.byte	0x7
 668 0361 3D01     		.2byte	0x13d
 669 0363 FE020000 		.4byte	0x2fe
 670 0367 0C       		.byte	0xc
 671 0368 08       		.uleb128 0x8
 672 0369 70617200 		.ascii	"par\000"
 673 036d 07       		.byte	0x7
 674 036e 3F01     		.2byte	0x13f
 675 0370 1A030000 		.4byte	0x31a
 676 0374 10       		.byte	0x10
 677 0375 00       		.byte	0
 678 0376 03       		.uleb128 0x3
 679 0377 BE000000 		.4byte	.LASF61
 680 037b 06       		.byte	0x6
 681 037c 5B       		.byte	0x5b
 682 037d 81030000 		.4byte	0x381
 683 0381 0B       		.uleb128 0xb
 684 0382 21040000 		.4byte	.LASF62
ARM GAS  /tmp/ccXmVgDX.s 			page 13


 685 0386 10       		.byte	0x10
 686 0387 07       		.byte	0x7
 687 0388 4901     		.2byte	0x149
 688 038a C3030000 		.4byte	0x3c3
 689 038e 09       		.uleb128 0x9
 690 038f E6000000 		.4byte	.LASF49
 691 0393 07       		.byte	0x7
 692 0394 4A01     		.2byte	0x14a
 693 0396 85070000 		.4byte	0x785
 694 039a 00       		.byte	0
 695 039b 09       		.uleb128 0x9
 696 039c 41000000 		.4byte	.LASF52
 697 03a0 07       		.byte	0x7
 698 03a1 4C01     		.2byte	0x14c
 699 03a3 85070000 		.4byte	0x785
 700 03a7 04       		.byte	0x4
 701 03a8 09       		.uleb128 0x9
 702 03a9 14000000 		.4byte	.LASF59
 703 03ad 07       		.byte	0x7
 704 03ae 4E01     		.2byte	0x14e
 705 03b0 5A040000 		.4byte	0x45a
 706 03b4 08       		.byte	0x8
 707 03b5 09       		.uleb128 0x9
 708 03b6 D7040000 		.4byte	.LASF63
 709 03ba 07       		.byte	0x7
 710 03bb 5601     		.2byte	0x156
 711 03bd 4F040000 		.4byte	0x44f
 712 03c1 0C       		.byte	0xc
 713 03c2 00       		.byte	0
 714 03c3 03       		.uleb128 0x3
 715 03c4 63000000 		.4byte	.LASF64
 716 03c8 06       		.byte	0x6
 717 03c9 60       		.byte	0x60
 718 03ca CE030000 		.4byte	0x3ce
 719 03ce 0B       		.uleb128 0xb
 720 03cf D8010000 		.4byte	.LASF65
 721 03d3 04       		.byte	0x4
 722 03d4 07       		.byte	0x7
 723 03d5 7001     		.2byte	0x170
 724 03d7 E9030000 		.4byte	0x3e9
 725 03db 09       		.uleb128 0x9
 726 03dc D2050000 		.4byte	.LASF66
 727 03e0 07       		.byte	0x7
 728 03e1 7801     		.2byte	0x178
 729 03e3 8B070000 		.4byte	0x78b
 730 03e7 00       		.byte	0
 731 03e8 00       		.byte	0
 732 03e9 03       		.uleb128 0x3
 733 03ea 72030000 		.4byte	.LASF67
 734 03ee 06       		.byte	0x6
 735 03ef 65       		.byte	0x65
 736 03f0 F4030000 		.4byte	0x3f4
 737 03f4 0B       		.uleb128 0xb
 738 03f5 E7040000 		.4byte	.LASF68
 739 03f9 D0       		.byte	0xd0
 740 03fa 07       		.byte	0x7
 741 03fb 9001     		.2byte	0x190
ARM GAS  /tmp/ccXmVgDX.s 			page 14


 742 03fd 4F040000 		.4byte	0x44f
 743 0401 09       		.uleb128 0x9
 744 0402 30060000 		.4byte	.LASF69
 745 0406 07       		.byte	0x7
 746 0407 9401     		.2byte	0x194
 747 0409 97020000 		.4byte	0x297
 748 040d 00       		.byte	0
 749 040e 09       		.uleb128 0x9
 750 040f 7A010000 		.4byte	.LASF70
 751 0413 07       		.byte	0x7
 752 0414 9801     		.2byte	0x198
 753 0416 76030000 		.4byte	0x376
 754 041a 1C       		.byte	0x1c
 755 041b 08       		.uleb128 0x8
 756 041c 64626700 		.ascii	"dbg\000"
 757 0420 07       		.byte	0x7
 758 0421 9C01     		.2byte	0x19c
 759 0423 C3030000 		.4byte	0x3c3
 760 0427 2C       		.byte	0x2c
 761 0428 09       		.uleb128 0x9
 762 0429 AB000000 		.4byte	.LASF71
 763 042d 07       		.byte	0x7
 764 042e A001     		.2byte	0x1a0
 765 0430 3C010000 		.4byte	0x13c
 766 0434 30       		.byte	0x30
 767 0435 08       		.uleb128 0x8
 768 0436 746D00   		.ascii	"tm\000"
 769 0439 07       		.byte	0x7
 770 043a A501     		.2byte	0x1a5
 771 043c 06060000 		.4byte	0x606
 772 0440 90       		.byte	0x90
 773 0441 09       		.uleb128 0x9
 774 0442 2A000000 		.4byte	.LASF72
 775 0446 07       		.byte	0x7
 776 0447 AB01     		.2byte	0x1ab
 777 0449 98060000 		.4byte	0x698
 778 044d 98       		.byte	0x98
 779 044e 00       		.byte	0
 780 044f 03       		.uleb128 0x3
 781 0450 BF050000 		.4byte	.LASF73
 782 0454 08       		.byte	0x8
 783 0455 6D       		.byte	0x6d
 784 0456 B8000000 		.4byte	0xb8
 785 045a 03       		.uleb128 0x3
 786 045b F8010000 		.4byte	.LASF74
 787 045f 08       		.byte	0x8
 788 0460 79       		.byte	0x79
 789 0461 B8000000 		.4byte	0xb8
 790 0465 04       		.uleb128 0x4
 791 0466 04       		.byte	0x4
 792 0467 07       		.byte	0x7
 793 0468 05040000 		.4byte	.LASF75
 794 046c 0F       		.uleb128 0xf
 795 046d B8000000 		.4byte	0xb8
 796 0471 03       		.uleb128 0x3
 797 0472 BE010000 		.4byte	.LASF76
 798 0476 09       		.byte	0x9
ARM GAS  /tmp/ccXmVgDX.s 			page 15


 799 0477 65       		.byte	0x65
 800 0478 1A030000 		.4byte	0x31a
 801 047c 03       		.uleb128 0x3
 802 047d EB030000 		.4byte	.LASF77
 803 0481 09       		.byte	0x9
 804 0482 6D       		.byte	0x6d
 805 0483 C3000000 		.4byte	0xc3
 806 0487 05       		.uleb128 0x5
 807 0488 42040000 		.4byte	.LASF78
 808 048c 04       		.byte	0x4
 809 048d 09       		.byte	0x9
 810 048e 89       		.byte	0x89
 811 048f 9F040000 		.4byte	0x49f
 812 0493 07       		.uleb128 0x7
 813 0494 737000   		.ascii	"sp\000"
 814 0497 09       		.byte	0x9
 815 0498 8A       		.byte	0x8a
 816 0499 EB050000 		.4byte	0x5eb
 817 049d 00       		.byte	0
 818 049e 00       		.byte	0
 819 049f 0B       		.uleb128 0xb
 820 04a0 46000000 		.4byte	.LASF79
 821 04a4 64       		.byte	0x64
 822 04a5 0A       		.byte	0xa
 823 04a6 5901     		.2byte	0x159
 824 04a8 EB050000 		.4byte	0x5eb
 825 04ac 08       		.uleb128 0x8
 826 04ad 73313600 		.ascii	"s16\000"
 827 04b1 0A       		.byte	0xa
 828 04b2 5B01     		.2byte	0x15b
 829 04b4 71040000 		.4byte	0x471
 830 04b8 00       		.byte	0
 831 04b9 08       		.uleb128 0x8
 832 04ba 73313700 		.ascii	"s17\000"
 833 04be 0A       		.byte	0xa
 834 04bf 5C01     		.2byte	0x15c
 835 04c1 71040000 		.4byte	0x471
 836 04c5 04       		.byte	0x4
 837 04c6 08       		.uleb128 0x8
 838 04c7 73313800 		.ascii	"s18\000"
 839 04cb 0A       		.byte	0xa
 840 04cc 5D01     		.2byte	0x15d
 841 04ce 71040000 		.4byte	0x471
 842 04d2 08       		.byte	0x8
 843 04d3 08       		.uleb128 0x8
 844 04d4 73313900 		.ascii	"s19\000"
 845 04d8 0A       		.byte	0xa
 846 04d9 5E01     		.2byte	0x15e
 847 04db 71040000 		.4byte	0x471
 848 04df 0C       		.byte	0xc
 849 04e0 08       		.uleb128 0x8
 850 04e1 73323000 		.ascii	"s20\000"
 851 04e5 0A       		.byte	0xa
 852 04e6 5F01     		.2byte	0x15f
 853 04e8 71040000 		.4byte	0x471
 854 04ec 10       		.byte	0x10
 855 04ed 08       		.uleb128 0x8
ARM GAS  /tmp/ccXmVgDX.s 			page 16


 856 04ee 73323100 		.ascii	"s21\000"
 857 04f2 0A       		.byte	0xa
 858 04f3 6001     		.2byte	0x160
 859 04f5 71040000 		.4byte	0x471
 860 04f9 14       		.byte	0x14
 861 04fa 08       		.uleb128 0x8
 862 04fb 73323200 		.ascii	"s22\000"
 863 04ff 0A       		.byte	0xa
 864 0500 6101     		.2byte	0x161
 865 0502 71040000 		.4byte	0x471
 866 0506 18       		.byte	0x18
 867 0507 08       		.uleb128 0x8
 868 0508 73323300 		.ascii	"s23\000"
 869 050c 0A       		.byte	0xa
 870 050d 6201     		.2byte	0x162
 871 050f 71040000 		.4byte	0x471
 872 0513 1C       		.byte	0x1c
 873 0514 08       		.uleb128 0x8
 874 0515 73323400 		.ascii	"s24\000"
 875 0519 0A       		.byte	0xa
 876 051a 6301     		.2byte	0x163
 877 051c 71040000 		.4byte	0x471
 878 0520 20       		.byte	0x20
 879 0521 08       		.uleb128 0x8
 880 0522 73323500 		.ascii	"s25\000"
 881 0526 0A       		.byte	0xa
 882 0527 6401     		.2byte	0x164
 883 0529 71040000 		.4byte	0x471
 884 052d 24       		.byte	0x24
 885 052e 08       		.uleb128 0x8
 886 052f 73323600 		.ascii	"s26\000"
 887 0533 0A       		.byte	0xa
 888 0534 6501     		.2byte	0x165
 889 0536 71040000 		.4byte	0x471
 890 053a 28       		.byte	0x28
 891 053b 08       		.uleb128 0x8
 892 053c 73323700 		.ascii	"s27\000"
 893 0540 0A       		.byte	0xa
 894 0541 6601     		.2byte	0x166
 895 0543 71040000 		.4byte	0x471
 896 0547 2C       		.byte	0x2c
 897 0548 08       		.uleb128 0x8
 898 0549 73323800 		.ascii	"s28\000"
 899 054d 0A       		.byte	0xa
 900 054e 6701     		.2byte	0x167
 901 0550 71040000 		.4byte	0x471
 902 0554 30       		.byte	0x30
 903 0555 08       		.uleb128 0x8
 904 0556 73323900 		.ascii	"s29\000"
 905 055a 0A       		.byte	0xa
 906 055b 6801     		.2byte	0x168
 907 055d 71040000 		.4byte	0x471
 908 0561 34       		.byte	0x34
 909 0562 08       		.uleb128 0x8
 910 0563 73333000 		.ascii	"s30\000"
 911 0567 0A       		.byte	0xa
 912 0568 6901     		.2byte	0x169
ARM GAS  /tmp/ccXmVgDX.s 			page 17


 913 056a 71040000 		.4byte	0x471
 914 056e 38       		.byte	0x38
 915 056f 08       		.uleb128 0x8
 916 0570 73333100 		.ascii	"s31\000"
 917 0574 0A       		.byte	0xa
 918 0575 6A01     		.2byte	0x16a
 919 0577 71040000 		.4byte	0x471
 920 057b 3C       		.byte	0x3c
 921 057c 08       		.uleb128 0x8
 922 057d 723400   		.ascii	"r4\000"
 923 0580 0A       		.byte	0xa
 924 0581 6C01     		.2byte	0x16c
 925 0583 71040000 		.4byte	0x471
 926 0587 40       		.byte	0x40
 927 0588 08       		.uleb128 0x8
 928 0589 723500   		.ascii	"r5\000"
 929 058c 0A       		.byte	0xa
 930 058d 6D01     		.2byte	0x16d
 931 058f 71040000 		.4byte	0x471
 932 0593 44       		.byte	0x44
 933 0594 08       		.uleb128 0x8
 934 0595 723600   		.ascii	"r6\000"
 935 0598 0A       		.byte	0xa
 936 0599 6E01     		.2byte	0x16e
 937 059b 71040000 		.4byte	0x471
 938 059f 48       		.byte	0x48
 939 05a0 08       		.uleb128 0x8
 940 05a1 723700   		.ascii	"r7\000"
 941 05a4 0A       		.byte	0xa
 942 05a5 6F01     		.2byte	0x16f
 943 05a7 71040000 		.4byte	0x471
 944 05ab 4C       		.byte	0x4c
 945 05ac 08       		.uleb128 0x8
 946 05ad 723800   		.ascii	"r8\000"
 947 05b0 0A       		.byte	0xa
 948 05b1 7001     		.2byte	0x170
 949 05b3 71040000 		.4byte	0x471
 950 05b7 50       		.byte	0x50
 951 05b8 08       		.uleb128 0x8
 952 05b9 723900   		.ascii	"r9\000"
 953 05bc 0A       		.byte	0xa
 954 05bd 7101     		.2byte	0x171
 955 05bf 71040000 		.4byte	0x471
 956 05c3 54       		.byte	0x54
 957 05c4 08       		.uleb128 0x8
 958 05c5 72313000 		.ascii	"r10\000"
 959 05c9 0A       		.byte	0xa
 960 05ca 7201     		.2byte	0x172
 961 05cc 71040000 		.4byte	0x471
 962 05d0 58       		.byte	0x58
 963 05d1 08       		.uleb128 0x8
 964 05d2 72313100 		.ascii	"r11\000"
 965 05d6 0A       		.byte	0xa
 966 05d7 7301     		.2byte	0x173
 967 05d9 71040000 		.4byte	0x471
 968 05dd 5C       		.byte	0x5c
 969 05de 08       		.uleb128 0x8
ARM GAS  /tmp/ccXmVgDX.s 			page 18


 970 05df 6C7200   		.ascii	"lr\000"
 971 05e2 0A       		.byte	0xa
 972 05e3 7401     		.2byte	0x174
 973 05e5 71040000 		.4byte	0x471
 974 05e9 60       		.byte	0x60
 975 05ea 00       		.byte	0
 976 05eb 0A       		.uleb128 0xa
 977 05ec 04       		.byte	0x4
 978 05ed 9F040000 		.4byte	0x49f
 979 05f1 10       		.uleb128 0x10
 980 05f2 04       		.byte	0x4
 981 05f3 0B       		.byte	0xb
 982 05f4 38       		.byte	0x38
 983 05f5 06060000 		.4byte	0x606
 984 05f9 06       		.uleb128 0x6
 985 05fa DC050000 		.4byte	.LASF80
 986 05fe 0B       		.byte	0xb
 987 05ff 3C       		.byte	0x3c
 988 0600 CE000000 		.4byte	0xce
 989 0604 00       		.byte	0
 990 0605 00       		.byte	0
 991 0606 03       		.uleb128 0x3
 992 0607 4F040000 		.4byte	.LASF81
 993 060b 0B       		.byte	0xb
 994 060c 3D       		.byte	0x3d
 995 060d F1050000 		.4byte	0x5f1
 996 0611 10       		.uleb128 0x10
 997 0612 18       		.byte	0x18
 998 0613 0B       		.byte	0xb
 999 0614 48       		.byte	0x48
 1000 0615 54060000 		.4byte	0x654
 1001 0619 06       		.uleb128 0x6
 1002 061a BA050000 		.4byte	.LASF82
 1003 061e 0B       		.byte	0xb
 1004 061f 49       		.byte	0x49
 1005 0620 CE000000 		.4byte	0xce
 1006 0624 00       		.byte	0
 1007 0625 06       		.uleb128 0x6
 1008 0626 72000000 		.4byte	.LASF83
 1009 062a 0B       		.byte	0xb
 1010 062b 4A       		.byte	0x4a
 1011 062c CE000000 		.4byte	0xce
 1012 0630 04       		.byte	0x4
 1013 0631 06       		.uleb128 0x6
 1014 0632 5D030000 		.4byte	.LASF84
 1015 0636 0B       		.byte	0xb
 1016 0637 4B       		.byte	0x4b
 1017 0638 CE000000 		.4byte	0xce
 1018 063c 08       		.byte	0x8
 1019 063d 07       		.uleb128 0x7
 1020 063e 6E00     		.ascii	"n\000"
 1021 0640 0B       		.byte	0xb
 1022 0641 4C       		.byte	0x4c
 1023 0642 31010000 		.4byte	0x131
 1024 0646 0C       		.byte	0xc
 1025 0647 06       		.uleb128 0x6
 1026 0648 78040000 		.4byte	.LASF85
ARM GAS  /tmp/ccXmVgDX.s 			page 19


 1027 064c 0B       		.byte	0xb
 1028 064d 4D       		.byte	0x4d
 1029 064e D9000000 		.4byte	0xd9
 1030 0652 10       		.byte	0x10
 1031 0653 00       		.byte	0
 1032 0654 03       		.uleb128 0x3
 1033 0655 78000000 		.4byte	.LASF86
 1034 0659 0B       		.byte	0xb
 1035 065a 4E       		.byte	0x4e
 1036 065b 11060000 		.4byte	0x611
 1037 065f 10       		.uleb128 0x10
 1038 0660 38       		.byte	0x38
 1039 0661 0C       		.byte	0xc
 1040 0662 38       		.byte	0x38
 1041 0663 98060000 		.4byte	0x698
 1042 0667 06       		.uleb128 0x6
 1043 0668 81010000 		.4byte	.LASF87
 1044 066c 0C       		.byte	0xc
 1045 066d 39       		.byte	0x39
 1046 066e 31010000 		.4byte	0x131
 1047 0672 00       		.byte	0
 1048 0673 06       		.uleb128 0x6
 1049 0674 A8040000 		.4byte	.LASF88
 1050 0678 0C       		.byte	0xc
 1051 0679 3A       		.byte	0x3a
 1052 067a 31010000 		.4byte	0x131
 1053 067e 04       		.byte	0x4
 1054 067f 06       		.uleb128 0x6
 1055 0680 76060000 		.4byte	.LASF89
 1056 0684 0C       		.byte	0xc
 1057 0685 3B       		.byte	0x3b
 1058 0686 54060000 		.4byte	0x654
 1059 068a 08       		.byte	0x8
 1060 068b 06       		.uleb128 0x6
 1061 068c A1030000 		.4byte	.LASF90
 1062 0690 0C       		.byte	0xc
 1063 0691 3D       		.byte	0x3d
 1064 0692 54060000 		.4byte	0x654
 1065 0696 20       		.byte	0x20
 1066 0697 00       		.byte	0
 1067 0698 03       		.uleb128 0x3
 1068 0699 39030000 		.4byte	.LASF91
 1069 069d 0C       		.byte	0xc
 1070 069e 3F       		.byte	0x3f
 1071 069f 5F060000 		.4byte	0x65f
 1072 06a3 11       		.uleb128 0x11
 1073 06a4 04       		.byte	0x4
 1074 06a5 07       		.byte	0x7
 1075 06a6 C6       		.byte	0xc6
 1076 06a7 05070000 		.4byte	0x705
 1077 06ab 12       		.uleb128 0x12
 1078 06ac 1A000000 		.4byte	.LASF92
 1079 06b0 07       		.byte	0x7
 1080 06b1 CD       		.byte	0xcd
 1081 06b2 10010000 		.4byte	0x110
 1082 06b6 12       		.uleb128 0x12
 1083 06b7 A2000000 		.4byte	.LASF93
ARM GAS  /tmp/ccXmVgDX.s 			page 20


 1084 06bb 07       		.byte	0x7
 1085 06bc D4       		.byte	0xd4
 1086 06bd 10010000 		.4byte	0x110
 1087 06c1 12       		.uleb128 0x12
 1088 06c2 44060000 		.4byte	.LASF94
 1089 06c6 07       		.byte	0x7
 1090 06c7 DB       		.byte	0xdb
 1091 06c8 1A030000 		.4byte	0x31a
 1092 06cc 12       		.uleb128 0x12
 1093 06cd 0F030000 		.4byte	.LASF95
 1094 06d1 07       		.byte	0x7
 1095 06d2 E2       		.byte	0xe2
 1096 06d3 05070000 		.4byte	0x705
 1097 06d7 12       		.uleb128 0x12
 1098 06d8 B6000000 		.4byte	.LASF96
 1099 06dc 07       		.byte	0x7
 1100 06dd E7       		.byte	0xe7
 1101 06de 10010000 		.4byte	0x110
 1102 06e2 12       		.uleb128 0x12
 1103 06e3 08030000 		.4byte	.LASF97
 1104 06e7 07       		.byte	0x7
 1105 06e8 F0       		.byte	0xf0
 1106 06e9 30070000 		.4byte	0x730
 1107 06ed 12       		.uleb128 0x12
 1108 06ee 5C050000 		.4byte	.LASF98
 1109 06f2 07       		.byte	0x7
 1110 06f3 F9       		.byte	0xf9
 1111 06f4 67070000 		.4byte	0x767
 1112 06f8 13       		.uleb128 0x13
 1113 06f9 E0040000 		.4byte	.LASF99
 1114 06fd 07       		.byte	0x7
 1115 06fe 0101     		.2byte	0x101
 1116 0700 1B010000 		.4byte	0x11b
 1117 0704 00       		.byte	0
 1118 0705 0A       		.uleb128 0xa
 1119 0706 04       		.byte	0x4
 1120 0707 32020000 		.4byte	0x232
 1121 070b 05       		.uleb128 0x5
 1122 070c 46050000 		.4byte	.LASF100
 1123 0710 0C       		.byte	0xc
 1124 0711 0D       		.byte	0xd
 1125 0712 34       		.byte	0x34
 1126 0713 30070000 		.4byte	0x730
 1127 0717 06       		.uleb128 0x6
 1128 0718 15030000 		.4byte	.LASF29
 1129 071c 0D       		.byte	0xd
 1130 071d 35       		.byte	0x35
 1131 071e 67020000 		.4byte	0x267
 1132 0722 00       		.byte	0
 1133 0723 07       		.uleb128 0x7
 1134 0724 636E7400 		.ascii	"cnt\000"
 1135 0728 0D       		.byte	0xd
 1136 0729 37       		.byte	0x37
 1137 072a 26010000 		.4byte	0x126
 1138 072e 08       		.byte	0x8
 1139 072f 00       		.byte	0
 1140 0730 0A       		.uleb128 0xa
ARM GAS  /tmp/ccXmVgDX.s 			page 21


 1141 0731 04       		.byte	0x4
 1142 0732 0B070000 		.4byte	0x70b
 1143 0736 05       		.uleb128 0x5
 1144 0737 27060000 		.4byte	.LASF101
 1145 073b 10       		.byte	0x10
 1146 073c 0E       		.byte	0xe
 1147 073d 39       		.byte	0x39
 1148 073e 67070000 		.4byte	0x767
 1149 0742 06       		.uleb128 0x6
 1150 0743 15030000 		.4byte	.LASF29
 1151 0747 0E       		.byte	0xe
 1152 0748 3A       		.byte	0x3a
 1153 0749 67020000 		.4byte	0x267
 1154 074d 00       		.byte	0
 1155 074e 06       		.uleb128 0x6
 1156 074f 73050000 		.4byte	.LASF102
 1157 0753 0E       		.byte	0xe
 1158 0754 3C       		.byte	0x3c
 1159 0755 3D020000 		.4byte	0x23d
 1160 0759 08       		.byte	0x8
 1161 075a 06       		.uleb128 0x6
 1162 075b E6000000 		.4byte	.LASF49
 1163 075f 0E       		.byte	0xe
 1164 0760 3E       		.byte	0x3e
 1165 0761 9B070000 		.4byte	0x79b
 1166 0765 0C       		.byte	0xc
 1167 0766 00       		.byte	0
 1168 0767 0A       		.uleb128 0xa
 1169 0768 04       		.byte	0x4
 1170 0769 36070000 		.4byte	0x736
 1171 076d 0A       		.uleb128 0xa
 1172 076e 04       		.byte	0x4
 1173 076f 73070000 		.4byte	0x773
 1174 0773 14       		.uleb128 0x14
 1175 0774 78070000 		.4byte	0x778
 1176 0778 04       		.uleb128 0x4
 1177 0779 01       		.byte	0x1
 1178 077a 08       		.byte	0x8
 1179 077b 92050000 		.4byte	.LASF103
 1180 077f 0A       		.uleb128 0xa
 1181 0780 04       		.byte	0x4
 1182 0781 7C040000 		.4byte	0x47c
 1183 0785 0A       		.uleb128 0xa
 1184 0786 04       		.byte	0x4
 1185 0787 1C030000 		.4byte	0x31c
 1186 078b 0F       		.uleb128 0xf
 1187 078c 6D070000 		.4byte	0x76d
 1188 0790 03       		.uleb128 0x3
 1189 0791 F0010000 		.4byte	.LASF104
 1190 0795 0E       		.byte	0xe
 1191 0796 34       		.byte	0x34
 1192 0797 36070000 		.4byte	0x736
 1193 079b 0A       		.uleb128 0xa
 1194 079c 04       		.byte	0x4
 1195 079d 90070000 		.4byte	0x790
 1196 07a1 04       		.uleb128 0x4
 1197 07a2 01       		.byte	0x1
ARM GAS  /tmp/ccXmVgDX.s 			page 22


 1198 07a3 02       		.byte	0x2
 1199 07a4 B1040000 		.4byte	.LASF105
 1200 07a8 10       		.uleb128 0x10
 1201 07a9 14       		.byte	0x14
 1202 07aa 01       		.byte	0x1
 1203 07ab 2C       		.byte	0x2c
 1204 07ac EA070000 		.4byte	0x7ea
 1205 07b0 07       		.uleb128 0x7
 1206 07b1 4B5200   		.ascii	"KR\000"
 1207 07b4 01       		.byte	0x1
 1208 07b5 2E       		.byte	0x2e
 1209 07b6 6C040000 		.4byte	0x46c
 1210 07ba 00       		.byte	0
 1211 07bb 07       		.uleb128 0x7
 1212 07bc 505200   		.ascii	"PR\000"
 1213 07bf 01       		.byte	0x1
 1214 07c0 2F       		.byte	0x2f
 1215 07c1 6C040000 		.4byte	0x46c
 1216 07c5 04       		.byte	0x4
 1217 07c6 07       		.uleb128 0x7
 1218 07c7 524C5200 		.ascii	"RLR\000"
 1219 07cb 01       		.byte	0x1
 1220 07cc 30       		.byte	0x30
 1221 07cd 6C040000 		.4byte	0x46c
 1222 07d1 08       		.byte	0x8
 1223 07d2 07       		.uleb128 0x7
 1224 07d3 535200   		.ascii	"SR\000"
 1225 07d6 01       		.byte	0x1
 1226 07d7 31       		.byte	0x31
 1227 07d8 6C040000 		.4byte	0x46c
 1228 07dc 0C       		.byte	0xc
 1229 07dd 06       		.uleb128 0x6
 1230 07de E1000000 		.4byte	.LASF106
 1231 07e2 01       		.byte	0x1
 1232 07e3 32       		.byte	0x32
 1233 07e4 6C040000 		.4byte	0x46c
 1234 07e8 10       		.byte	0x10
 1235 07e9 00       		.byte	0
 1236 07ea 03       		.uleb128 0x3
 1237 07eb 38040000 		.4byte	.LASF107
 1238 07ef 01       		.byte	0x1
 1239 07f0 33       		.byte	0x33
 1240 07f1 A8070000 		.4byte	0x7a8
 1241 07f5 15       		.uleb128 0x15
 1242 07f6 9D050000 		.4byte	.LASF108
 1243 07fa 01       		.byte	0x1
 1244 07fb 3D       		.byte	0x3d
 1245 07fc 00000000 		.4byte	.LFB323
 1246 0800 28000000 		.4byte	.LFE323-.LFB323
 1247 0804 01       		.uleb128 0x1
 1248 0805 9C       		.byte	0x9c
 1249 0806 15       		.uleb128 0x15
 1250 0807 67010000 		.4byte	.LASF109
 1251 080b 01       		.byte	0x1
 1252 080c 4B       		.byte	0x4b
 1253 080d 00000000 		.4byte	.LFB324
 1254 0811 18000000 		.4byte	.LFE324-.LFB324
ARM GAS  /tmp/ccXmVgDX.s 			page 23


 1255 0815 01       		.uleb128 0x1
 1256 0816 9C       		.byte	0x9c
 1257 0817 15       		.uleb128 0x15
 1258 0818 D0030000 		.4byte	.LASF110
 1259 081c 01       		.byte	0x1
 1260 081d 55       		.byte	0x55
 1261 081e 00000000 		.4byte	.LFB325
 1262 0822 18000000 		.4byte	.LFE325-.LFB325
 1263 0826 01       		.uleb128 0x1
 1264 0827 9C       		.byte	0x9c
 1265 0828 15       		.uleb128 0x15
 1266 0829 2A050000 		.4byte	.LASF111
 1267 082d 01       		.byte	0x1
 1268 082e 5F       		.byte	0x5f
 1269 082f 00000000 		.4byte	.LFB326
 1270 0833 10000000 		.4byte	.LFE326-.LFB326
 1271 0837 01       		.uleb128 0x1
 1272 0838 9C       		.byte	0x9c
 1273 0839 16       		.uleb128 0x16
 1274 083a 00050000 		.4byte	.LASF122
 1275 083e 01       		.byte	0x1
 1276 083f 67       		.byte	0x67
 1277 0840 A1070000 		.4byte	0x7a1
 1278 0844 00000000 		.4byte	.LFB327
 1279 0848 0C000000 		.4byte	.LFE327-.LFB327
 1280 084c 01       		.uleb128 0x1
 1281 084d 9C       		.byte	0x9c
 1282 084e 17       		.uleb128 0x17
 1283 084f 5A060000 		.4byte	.LASF114
 1284 0853 01       		.byte	0x1
 1285 0854 6F       		.byte	0x6f
 1286 0855 00000000 		.4byte	.LFB328
 1287 0859 0C000000 		.4byte	.LFE328-.LFB328
 1288 085d 01       		.uleb128 0x1
 1289 085e 9C       		.byte	0x9c
 1290 085f 9F080000 		.4byte	0x89f
 1291 0863 18       		.uleb128 0x18
 1292 0864 21030000 		.4byte	.LASF112
 1293 0868 01       		.byte	0x1
 1294 0869 6F       		.byte	0x6f
 1295 086a 9F080000 		.4byte	0x89f
 1296 086e 00000000 		.4byte	.LLST0
 1297 0872 18       		.uleb128 0x18
 1298 0873 9A030000 		.4byte	.LASF113
 1299 0877 01       		.byte	0x1
 1300 0878 6F       		.byte	0x6f
 1301 0879 B8000000 		.4byte	0xb8
 1302 087d 2C000000 		.4byte	.LLST1
 1303 0881 19       		.uleb128 0x19
 1304 0882 0C000000 		.4byte	.LVL3
 1305 0886 3F090000 		.4byte	0x93f
 1306 088a 1A       		.uleb128 0x1a
 1307 088b 01       		.uleb128 0x1
 1308 088c 52       		.byte	0x52
 1309 088d 03       		.uleb128 0x3
 1310 088e F3       		.byte	0xf3
 1311 088f 01       		.uleb128 0x1
ARM GAS  /tmp/ccXmVgDX.s 			page 24


 1312 0890 51       		.byte	0x51
 1313 0891 1A       		.uleb128 0x1a
 1314 0892 01       		.uleb128 0x1
 1315 0893 51       		.byte	0x51
 1316 0894 03       		.uleb128 0x3
 1317 0895 F3       		.byte	0xf3
 1318 0896 01       		.uleb128 0x1
 1319 0897 50       		.byte	0x50
 1320 0898 1A       		.uleb128 0x1a
 1321 0899 01       		.uleb128 0x1
 1322 089a 50       		.byte	0x50
 1323 089b 01       		.uleb128 0x1
 1324 089c 31       		.byte	0x31
 1325 089d 00       		.byte	0
 1326 089e 00       		.byte	0
 1327 089f 0A       		.uleb128 0xa
 1328 08a0 04       		.byte	0x4
 1329 08a1 A5080000 		.4byte	0x8a5
 1330 08a5 14       		.uleb128 0x14
 1331 08a6 B8000000 		.4byte	0xb8
 1332 08aa 17       		.uleb128 0x17
 1333 08ab 7E030000 		.4byte	.LASF115
 1334 08af 01       		.byte	0x1
 1335 08b0 77       		.byte	0x77
 1336 08b1 00000000 		.4byte	.LFB329
 1337 08b5 0C000000 		.4byte	.LFE329-.LFB329
 1338 08b9 01       		.uleb128 0x1
 1339 08ba 9C       		.byte	0x9c
 1340 08bb FB080000 		.4byte	0x8fb
 1341 08bf 18       		.uleb128 0x18
 1342 08c0 21030000 		.4byte	.LASF112
 1343 08c4 01       		.byte	0x1
 1344 08c5 77       		.byte	0x77
 1345 08c6 FB080000 		.4byte	0x8fb
 1346 08ca 4D000000 		.4byte	.LLST2
 1347 08ce 18       		.uleb128 0x18
 1348 08cf 9A030000 		.4byte	.LASF113
 1349 08d3 01       		.byte	0x1
 1350 08d4 77       		.byte	0x77
 1351 08d5 B8000000 		.4byte	0xb8
 1352 08d9 79000000 		.4byte	.LLST3
 1353 08dd 19       		.uleb128 0x19
 1354 08de 0C000000 		.4byte	.LVL7
 1355 08e2 5A090000 		.4byte	0x95a
 1356 08e6 1A       		.uleb128 0x1a
 1357 08e7 01       		.uleb128 0x1
 1358 08e8 52       		.byte	0x52
 1359 08e9 03       		.uleb128 0x3
 1360 08ea F3       		.byte	0xf3
 1361 08eb 01       		.uleb128 0x1
 1362 08ec 51       		.byte	0x51
 1363 08ed 1A       		.uleb128 0x1a
 1364 08ee 01       		.uleb128 0x1
 1365 08ef 51       		.byte	0x51
 1366 08f0 03       		.uleb128 0x3
 1367 08f1 F3       		.byte	0xf3
 1368 08f2 01       		.uleb128 0x1
ARM GAS  /tmp/ccXmVgDX.s 			page 25


 1369 08f3 50       		.byte	0x50
 1370 08f4 1A       		.uleb128 0x1a
 1371 08f5 01       		.uleb128 0x1
 1372 08f6 50       		.byte	0x50
 1373 08f7 01       		.uleb128 0x1
 1374 08f8 31       		.byte	0x31
 1375 08f9 00       		.byte	0
 1376 08fa 00       		.byte	0
 1377 08fb 0A       		.uleb128 0xa
 1378 08fc 04       		.byte	0x4
 1379 08fd B8000000 		.4byte	0xb8
 1380 0901 1B       		.uleb128 0x1b
 1381 0902 F4000000 		.4byte	.LASF116
 1382 0906 01       		.byte	0x1
 1383 0907 37       		.byte	0x37
 1384 0908 A1070000 		.4byte	0x7a1
 1385 090c 05       		.uleb128 0x5
 1386 090d 03       		.byte	0x3
 1387 090e 00000000 		.4byte	was_watchdog_reset
 1388 0912 1B       		.uleb128 0x1b
 1389 0913 C7010000 		.4byte	.LASF117
 1390 0917 01       		.byte	0x1
 1391 0918 38       		.byte	0x38
 1392 0919 A1070000 		.4byte	0x7a1
 1393 091d 05       		.uleb128 0x5
 1394 091e 03       		.byte	0x3
 1395 091f 00000000 		.4byte	watchdog_enabled
 1396 0923 1C       		.uleb128 0x1c
 1397 0924 D4000000 		.4byte	.LASF118
 1398 0928 0F       		.byte	0xf
 1399 0929 0408     		.2byte	0x804
 1400 092b 2F090000 		.4byte	0x92f
 1401 092f 0F       		.uleb128 0xf
 1402 0930 AD000000 		.4byte	0xad
 1403 0934 1D       		.uleb128 0x1d
 1404 0935 636800   		.ascii	"ch\000"
 1405 0938 07       		.byte	0x7
 1406 0939 C701     		.2byte	0x1c7
 1407 093b E9030000 		.4byte	0x3e9
 1408 093f 1E       		.uleb128 0x1e
 1409 0940 F1040000 		.4byte	.LASF123
 1410 0944 10       		.byte	0x10
 1411 0945 54       		.byte	0x54
 1412 0946 5A090000 		.4byte	0x95a
 1413 094a 0D       		.uleb128 0xd
 1414 094b A2000000 		.4byte	0xa2
 1415 094f 0D       		.uleb128 0xd
 1416 0950 9F080000 		.4byte	0x89f
 1417 0954 0D       		.uleb128 0xd
 1418 0955 A2000000 		.4byte	0xa2
 1419 0959 00       		.byte	0
 1420 095a 1F       		.uleb128 0x1f
 1421 095b 07010000 		.4byte	.LASF124
 1422 095f 10       		.byte	0x10
 1423 0960 57       		.byte	0x57
 1424 0961 0D       		.uleb128 0xd
 1425 0962 A2000000 		.4byte	0xa2
ARM GAS  /tmp/ccXmVgDX.s 			page 26


 1426 0966 0D       		.uleb128 0xd
 1427 0967 FB080000 		.4byte	0x8fb
 1428 096b 0D       		.uleb128 0xd
 1429 096c A2000000 		.4byte	0xa2
 1430 0970 00       		.byte	0
 1431 0971 00       		.byte	0
 1432              		.section	.debug_abbrev,"",%progbits
 1433              	.Ldebug_abbrev0:
 1434 0000 01       		.uleb128 0x1
 1435 0001 11       		.uleb128 0x11
 1436 0002 01       		.byte	0x1
 1437 0003 25       		.uleb128 0x25
 1438 0004 0E       		.uleb128 0xe
 1439 0005 13       		.uleb128 0x13
 1440 0006 0B       		.uleb128 0xb
 1441 0007 03       		.uleb128 0x3
 1442 0008 0E       		.uleb128 0xe
 1443 0009 1B       		.uleb128 0x1b
 1444 000a 0E       		.uleb128 0xe
 1445 000b 55       		.uleb128 0x55
 1446 000c 17       		.uleb128 0x17
 1447 000d 11       		.uleb128 0x11
 1448 000e 01       		.uleb128 0x1
 1449 000f 10       		.uleb128 0x10
 1450 0010 17       		.uleb128 0x17
 1451 0011 00       		.byte	0
 1452 0012 00       		.byte	0
 1453 0013 02       		.uleb128 0x2
 1454 0014 24       		.uleb128 0x24
 1455 0015 00       		.byte	0
 1456 0016 0B       		.uleb128 0xb
 1457 0017 0B       		.uleb128 0xb
 1458 0018 3E       		.uleb128 0x3e
 1459 0019 0B       		.uleb128 0xb
 1460 001a 03       		.uleb128 0x3
 1461 001b 08       		.uleb128 0x8
 1462 001c 00       		.byte	0
 1463 001d 00       		.byte	0
 1464 001e 03       		.uleb128 0x3
 1465 001f 16       		.uleb128 0x16
 1466 0020 00       		.byte	0
 1467 0021 03       		.uleb128 0x3
 1468 0022 0E       		.uleb128 0xe
 1469 0023 3A       		.uleb128 0x3a
 1470 0024 0B       		.uleb128 0xb
 1471 0025 3B       		.uleb128 0x3b
 1472 0026 0B       		.uleb128 0xb
 1473 0027 49       		.uleb128 0x49
 1474 0028 13       		.uleb128 0x13
 1475 0029 00       		.byte	0
 1476 002a 00       		.byte	0
 1477 002b 04       		.uleb128 0x4
 1478 002c 24       		.uleb128 0x24
 1479 002d 00       		.byte	0
 1480 002e 0B       		.uleb128 0xb
 1481 002f 0B       		.uleb128 0xb
 1482 0030 3E       		.uleb128 0x3e
ARM GAS  /tmp/ccXmVgDX.s 			page 27


 1483 0031 0B       		.uleb128 0xb
 1484 0032 03       		.uleb128 0x3
 1485 0033 0E       		.uleb128 0xe
 1486 0034 00       		.byte	0
 1487 0035 00       		.byte	0
 1488 0036 05       		.uleb128 0x5
 1489 0037 13       		.uleb128 0x13
 1490 0038 01       		.byte	0x1
 1491 0039 03       		.uleb128 0x3
 1492 003a 0E       		.uleb128 0xe
 1493 003b 0B       		.uleb128 0xb
 1494 003c 0B       		.uleb128 0xb
 1495 003d 3A       		.uleb128 0x3a
 1496 003e 0B       		.uleb128 0xb
 1497 003f 3B       		.uleb128 0x3b
 1498 0040 0B       		.uleb128 0xb
 1499 0041 01       		.uleb128 0x1
 1500 0042 13       		.uleb128 0x13
 1501 0043 00       		.byte	0
 1502 0044 00       		.byte	0
 1503 0045 06       		.uleb128 0x6
 1504 0046 0D       		.uleb128 0xd
 1505 0047 00       		.byte	0
 1506 0048 03       		.uleb128 0x3
 1507 0049 0E       		.uleb128 0xe
 1508 004a 3A       		.uleb128 0x3a
 1509 004b 0B       		.uleb128 0xb
 1510 004c 3B       		.uleb128 0x3b
 1511 004d 0B       		.uleb128 0xb
 1512 004e 49       		.uleb128 0x49
 1513 004f 13       		.uleb128 0x13
 1514 0050 38       		.uleb128 0x38
 1515 0051 0B       		.uleb128 0xb
 1516 0052 00       		.byte	0
 1517 0053 00       		.byte	0
 1518 0054 07       		.uleb128 0x7
 1519 0055 0D       		.uleb128 0xd
 1520 0056 00       		.byte	0
 1521 0057 03       		.uleb128 0x3
 1522 0058 08       		.uleb128 0x8
 1523 0059 3A       		.uleb128 0x3a
 1524 005a 0B       		.uleb128 0xb
 1525 005b 3B       		.uleb128 0x3b
 1526 005c 0B       		.uleb128 0xb
 1527 005d 49       		.uleb128 0x49
 1528 005e 13       		.uleb128 0x13
 1529 005f 38       		.uleb128 0x38
 1530 0060 0B       		.uleb128 0xb
 1531 0061 00       		.byte	0
 1532 0062 00       		.byte	0
 1533 0063 08       		.uleb128 0x8
 1534 0064 0D       		.uleb128 0xd
 1535 0065 00       		.byte	0
 1536 0066 03       		.uleb128 0x3
 1537 0067 08       		.uleb128 0x8
 1538 0068 3A       		.uleb128 0x3a
 1539 0069 0B       		.uleb128 0xb
ARM GAS  /tmp/ccXmVgDX.s 			page 28


 1540 006a 3B       		.uleb128 0x3b
 1541 006b 05       		.uleb128 0x5
 1542 006c 49       		.uleb128 0x49
 1543 006d 13       		.uleb128 0x13
 1544 006e 38       		.uleb128 0x38
 1545 006f 0B       		.uleb128 0xb
 1546 0070 00       		.byte	0
 1547 0071 00       		.byte	0
 1548 0072 09       		.uleb128 0x9
 1549 0073 0D       		.uleb128 0xd
 1550 0074 00       		.byte	0
 1551 0075 03       		.uleb128 0x3
 1552 0076 0E       		.uleb128 0xe
 1553 0077 3A       		.uleb128 0x3a
 1554 0078 0B       		.uleb128 0xb
 1555 0079 3B       		.uleb128 0x3b
 1556 007a 05       		.uleb128 0x5
 1557 007b 49       		.uleb128 0x49
 1558 007c 13       		.uleb128 0x13
 1559 007d 38       		.uleb128 0x38
 1560 007e 0B       		.uleb128 0xb
 1561 007f 00       		.byte	0
 1562 0080 00       		.byte	0
 1563 0081 0A       		.uleb128 0xa
 1564 0082 0F       		.uleb128 0xf
 1565 0083 00       		.byte	0
 1566 0084 0B       		.uleb128 0xb
 1567 0085 0B       		.uleb128 0xb
 1568 0086 49       		.uleb128 0x49
 1569 0087 13       		.uleb128 0x13
 1570 0088 00       		.byte	0
 1571 0089 00       		.byte	0
 1572 008a 0B       		.uleb128 0xb
 1573 008b 13       		.uleb128 0x13
 1574 008c 01       		.byte	0x1
 1575 008d 03       		.uleb128 0x3
 1576 008e 0E       		.uleb128 0xe
 1577 008f 0B       		.uleb128 0xb
 1578 0090 0B       		.uleb128 0xb
 1579 0091 3A       		.uleb128 0x3a
 1580 0092 0B       		.uleb128 0xb
 1581 0093 3B       		.uleb128 0x3b
 1582 0094 05       		.uleb128 0x5
 1583 0095 01       		.uleb128 0x1
 1584 0096 13       		.uleb128 0x13
 1585 0097 00       		.byte	0
 1586 0098 00       		.byte	0
 1587 0099 0C       		.uleb128 0xc
 1588 009a 15       		.uleb128 0x15
 1589 009b 01       		.byte	0x1
 1590 009c 27       		.uleb128 0x27
 1591 009d 19       		.uleb128 0x19
 1592 009e 01       		.uleb128 0x1
 1593 009f 13       		.uleb128 0x13
 1594 00a0 00       		.byte	0
 1595 00a1 00       		.byte	0
 1596 00a2 0D       		.uleb128 0xd
ARM GAS  /tmp/ccXmVgDX.s 			page 29


 1597 00a3 05       		.uleb128 0x5
 1598 00a4 00       		.byte	0
 1599 00a5 49       		.uleb128 0x49
 1600 00a6 13       		.uleb128 0x13
 1601 00a7 00       		.byte	0
 1602 00a8 00       		.byte	0
 1603 00a9 0E       		.uleb128 0xe
 1604 00aa 0F       		.uleb128 0xf
 1605 00ab 00       		.byte	0
 1606 00ac 0B       		.uleb128 0xb
 1607 00ad 0B       		.uleb128 0xb
 1608 00ae 00       		.byte	0
 1609 00af 00       		.byte	0
 1610 00b0 0F       		.uleb128 0xf
 1611 00b1 35       		.uleb128 0x35
 1612 00b2 00       		.byte	0
 1613 00b3 49       		.uleb128 0x49
 1614 00b4 13       		.uleb128 0x13
 1615 00b5 00       		.byte	0
 1616 00b6 00       		.byte	0
 1617 00b7 10       		.uleb128 0x10
 1618 00b8 13       		.uleb128 0x13
 1619 00b9 01       		.byte	0x1
 1620 00ba 0B       		.uleb128 0xb
 1621 00bb 0B       		.uleb128 0xb
 1622 00bc 3A       		.uleb128 0x3a
 1623 00bd 0B       		.uleb128 0xb
 1624 00be 3B       		.uleb128 0x3b
 1625 00bf 0B       		.uleb128 0xb
 1626 00c0 01       		.uleb128 0x1
 1627 00c1 13       		.uleb128 0x13
 1628 00c2 00       		.byte	0
 1629 00c3 00       		.byte	0
 1630 00c4 11       		.uleb128 0x11
 1631 00c5 17       		.uleb128 0x17
 1632 00c6 01       		.byte	0x1
 1633 00c7 0B       		.uleb128 0xb
 1634 00c8 0B       		.uleb128 0xb
 1635 00c9 3A       		.uleb128 0x3a
 1636 00ca 0B       		.uleb128 0xb
 1637 00cb 3B       		.uleb128 0x3b
 1638 00cc 0B       		.uleb128 0xb
 1639 00cd 01       		.uleb128 0x1
 1640 00ce 13       		.uleb128 0x13
 1641 00cf 00       		.byte	0
 1642 00d0 00       		.byte	0
 1643 00d1 12       		.uleb128 0x12
 1644 00d2 0D       		.uleb128 0xd
 1645 00d3 00       		.byte	0
 1646 00d4 03       		.uleb128 0x3
 1647 00d5 0E       		.uleb128 0xe
 1648 00d6 3A       		.uleb128 0x3a
 1649 00d7 0B       		.uleb128 0xb
 1650 00d8 3B       		.uleb128 0x3b
 1651 00d9 0B       		.uleb128 0xb
 1652 00da 49       		.uleb128 0x49
 1653 00db 13       		.uleb128 0x13
ARM GAS  /tmp/ccXmVgDX.s 			page 30


 1654 00dc 00       		.byte	0
 1655 00dd 00       		.byte	0
 1656 00de 13       		.uleb128 0x13
 1657 00df 0D       		.uleb128 0xd
 1658 00e0 00       		.byte	0
 1659 00e1 03       		.uleb128 0x3
 1660 00e2 0E       		.uleb128 0xe
 1661 00e3 3A       		.uleb128 0x3a
 1662 00e4 0B       		.uleb128 0xb
 1663 00e5 3B       		.uleb128 0x3b
 1664 00e6 05       		.uleb128 0x5
 1665 00e7 49       		.uleb128 0x49
 1666 00e8 13       		.uleb128 0x13
 1667 00e9 00       		.byte	0
 1668 00ea 00       		.byte	0
 1669 00eb 14       		.uleb128 0x14
 1670 00ec 26       		.uleb128 0x26
 1671 00ed 00       		.byte	0
 1672 00ee 49       		.uleb128 0x49
 1673 00ef 13       		.uleb128 0x13
 1674 00f0 00       		.byte	0
 1675 00f1 00       		.byte	0
 1676 00f2 15       		.uleb128 0x15
 1677 00f3 2E       		.uleb128 0x2e
 1678 00f4 00       		.byte	0
 1679 00f5 3F       		.uleb128 0x3f
 1680 00f6 19       		.uleb128 0x19
 1681 00f7 03       		.uleb128 0x3
 1682 00f8 0E       		.uleb128 0xe
 1683 00f9 3A       		.uleb128 0x3a
 1684 00fa 0B       		.uleb128 0xb
 1685 00fb 3B       		.uleb128 0x3b
 1686 00fc 0B       		.uleb128 0xb
 1687 00fd 27       		.uleb128 0x27
 1688 00fe 19       		.uleb128 0x19
 1689 00ff 11       		.uleb128 0x11
 1690 0100 01       		.uleb128 0x1
 1691 0101 12       		.uleb128 0x12
 1692 0102 06       		.uleb128 0x6
 1693 0103 40       		.uleb128 0x40
 1694 0104 18       		.uleb128 0x18
 1695 0105 9742     		.uleb128 0x2117
 1696 0107 19       		.uleb128 0x19
 1697 0108 00       		.byte	0
 1698 0109 00       		.byte	0
 1699 010a 16       		.uleb128 0x16
 1700 010b 2E       		.uleb128 0x2e
 1701 010c 00       		.byte	0
 1702 010d 3F       		.uleb128 0x3f
 1703 010e 19       		.uleb128 0x19
 1704 010f 03       		.uleb128 0x3
 1705 0110 0E       		.uleb128 0xe
 1706 0111 3A       		.uleb128 0x3a
 1707 0112 0B       		.uleb128 0xb
 1708 0113 3B       		.uleb128 0x3b
 1709 0114 0B       		.uleb128 0xb
 1710 0115 27       		.uleb128 0x27
ARM GAS  /tmp/ccXmVgDX.s 			page 31


 1711 0116 19       		.uleb128 0x19
 1712 0117 49       		.uleb128 0x49
 1713 0118 13       		.uleb128 0x13
 1714 0119 11       		.uleb128 0x11
 1715 011a 01       		.uleb128 0x1
 1716 011b 12       		.uleb128 0x12
 1717 011c 06       		.uleb128 0x6
 1718 011d 40       		.uleb128 0x40
 1719 011e 18       		.uleb128 0x18
 1720 011f 9742     		.uleb128 0x2117
 1721 0121 19       		.uleb128 0x19
 1722 0122 00       		.byte	0
 1723 0123 00       		.byte	0
 1724 0124 17       		.uleb128 0x17
 1725 0125 2E       		.uleb128 0x2e
 1726 0126 01       		.byte	0x1
 1727 0127 3F       		.uleb128 0x3f
 1728 0128 19       		.uleb128 0x19
 1729 0129 03       		.uleb128 0x3
 1730 012a 0E       		.uleb128 0xe
 1731 012b 3A       		.uleb128 0x3a
 1732 012c 0B       		.uleb128 0xb
 1733 012d 3B       		.uleb128 0x3b
 1734 012e 0B       		.uleb128 0xb
 1735 012f 27       		.uleb128 0x27
 1736 0130 19       		.uleb128 0x19
 1737 0131 11       		.uleb128 0x11
 1738 0132 01       		.uleb128 0x1
 1739 0133 12       		.uleb128 0x12
 1740 0134 06       		.uleb128 0x6
 1741 0135 40       		.uleb128 0x40
 1742 0136 18       		.uleb128 0x18
 1743 0137 9742     		.uleb128 0x2117
 1744 0139 19       		.uleb128 0x19
 1745 013a 01       		.uleb128 0x1
 1746 013b 13       		.uleb128 0x13
 1747 013c 00       		.byte	0
 1748 013d 00       		.byte	0
 1749 013e 18       		.uleb128 0x18
 1750 013f 05       		.uleb128 0x5
 1751 0140 00       		.byte	0
 1752 0141 03       		.uleb128 0x3
 1753 0142 0E       		.uleb128 0xe
 1754 0143 3A       		.uleb128 0x3a
 1755 0144 0B       		.uleb128 0xb
 1756 0145 3B       		.uleb128 0x3b
 1757 0146 0B       		.uleb128 0xb
 1758 0147 49       		.uleb128 0x49
 1759 0148 13       		.uleb128 0x13
 1760 0149 02       		.uleb128 0x2
 1761 014a 17       		.uleb128 0x17
 1762 014b 00       		.byte	0
 1763 014c 00       		.byte	0
 1764 014d 19       		.uleb128 0x19
 1765 014e 898201   		.uleb128 0x4109
 1766 0151 01       		.byte	0x1
 1767 0152 11       		.uleb128 0x11
ARM GAS  /tmp/ccXmVgDX.s 			page 32


 1768 0153 01       		.uleb128 0x1
 1769 0154 9542     		.uleb128 0x2115
 1770 0156 19       		.uleb128 0x19
 1771 0157 31       		.uleb128 0x31
 1772 0158 13       		.uleb128 0x13
 1773 0159 00       		.byte	0
 1774 015a 00       		.byte	0
 1775 015b 1A       		.uleb128 0x1a
 1776 015c 8A8201   		.uleb128 0x410a
 1777 015f 00       		.byte	0
 1778 0160 02       		.uleb128 0x2
 1779 0161 18       		.uleb128 0x18
 1780 0162 9142     		.uleb128 0x2111
 1781 0164 18       		.uleb128 0x18
 1782 0165 00       		.byte	0
 1783 0166 00       		.byte	0
 1784 0167 1B       		.uleb128 0x1b
 1785 0168 34       		.uleb128 0x34
 1786 0169 00       		.byte	0
 1787 016a 03       		.uleb128 0x3
 1788 016b 0E       		.uleb128 0xe
 1789 016c 3A       		.uleb128 0x3a
 1790 016d 0B       		.uleb128 0xb
 1791 016e 3B       		.uleb128 0x3b
 1792 016f 0B       		.uleb128 0xb
 1793 0170 49       		.uleb128 0x49
 1794 0171 13       		.uleb128 0x13
 1795 0172 02       		.uleb128 0x2
 1796 0173 18       		.uleb128 0x18
 1797 0174 00       		.byte	0
 1798 0175 00       		.byte	0
 1799 0176 1C       		.uleb128 0x1c
 1800 0177 34       		.uleb128 0x34
 1801 0178 00       		.byte	0
 1802 0179 03       		.uleb128 0x3
 1803 017a 0E       		.uleb128 0xe
 1804 017b 3A       		.uleb128 0x3a
 1805 017c 0B       		.uleb128 0xb
 1806 017d 3B       		.uleb128 0x3b
 1807 017e 05       		.uleb128 0x5
 1808 017f 49       		.uleb128 0x49
 1809 0180 13       		.uleb128 0x13
 1810 0181 3F       		.uleb128 0x3f
 1811 0182 19       		.uleb128 0x19
 1812 0183 3C       		.uleb128 0x3c
 1813 0184 19       		.uleb128 0x19
 1814 0185 00       		.byte	0
 1815 0186 00       		.byte	0
 1816 0187 1D       		.uleb128 0x1d
 1817 0188 34       		.uleb128 0x34
 1818 0189 00       		.byte	0
 1819 018a 03       		.uleb128 0x3
 1820 018b 08       		.uleb128 0x8
 1821 018c 3A       		.uleb128 0x3a
 1822 018d 0B       		.uleb128 0xb
 1823 018e 3B       		.uleb128 0x3b
 1824 018f 05       		.uleb128 0x5
ARM GAS  /tmp/ccXmVgDX.s 			page 33


 1825 0190 49       		.uleb128 0x49
 1826 0191 13       		.uleb128 0x13
 1827 0192 3F       		.uleb128 0x3f
 1828 0193 19       		.uleb128 0x19
 1829 0194 3C       		.uleb128 0x3c
 1830 0195 19       		.uleb128 0x19
 1831 0196 00       		.byte	0
 1832 0197 00       		.byte	0
 1833 0198 1E       		.uleb128 0x1e
 1834 0199 2E       		.uleb128 0x2e
 1835 019a 01       		.byte	0x1
 1836 019b 3F       		.uleb128 0x3f
 1837 019c 19       		.uleb128 0x19
 1838 019d 03       		.uleb128 0x3
 1839 019e 0E       		.uleb128 0xe
 1840 019f 3A       		.uleb128 0x3a
 1841 01a0 0B       		.uleb128 0xb
 1842 01a1 3B       		.uleb128 0x3b
 1843 01a2 0B       		.uleb128 0xb
 1844 01a3 27       		.uleb128 0x27
 1845 01a4 19       		.uleb128 0x19
 1846 01a5 3C       		.uleb128 0x3c
 1847 01a6 19       		.uleb128 0x19
 1848 01a7 01       		.uleb128 0x1
 1849 01a8 13       		.uleb128 0x13
 1850 01a9 00       		.byte	0
 1851 01aa 00       		.byte	0
 1852 01ab 1F       		.uleb128 0x1f
 1853 01ac 2E       		.uleb128 0x2e
 1854 01ad 01       		.byte	0x1
 1855 01ae 3F       		.uleb128 0x3f
 1856 01af 19       		.uleb128 0x19
 1857 01b0 03       		.uleb128 0x3
 1858 01b1 0E       		.uleb128 0xe
 1859 01b2 3A       		.uleb128 0x3a
 1860 01b3 0B       		.uleb128 0xb
 1861 01b4 3B       		.uleb128 0x3b
 1862 01b5 0B       		.uleb128 0xb
 1863 01b6 27       		.uleb128 0x27
 1864 01b7 19       		.uleb128 0x19
 1865 01b8 3C       		.uleb128 0x3c
 1866 01b9 19       		.uleb128 0x19
 1867 01ba 00       		.byte	0
 1868 01bb 00       		.byte	0
 1869 01bc 00       		.byte	0
 1870              		.section	.debug_loc,"",%progbits
 1871              	.Ldebug_loc0:
 1872              	.LLST0:
 1873 0000 00000000 		.4byte	.LVL0
 1874 0004 06000000 		.4byte	.LVL1
 1875 0008 0100     		.2byte	0x1
 1876 000a 50       		.byte	0x50
 1877 000b 06000000 		.4byte	.LVL1
 1878 000f 0B000000 		.4byte	.LVL3-1
 1879 0013 0100     		.2byte	0x1
 1880 0015 53       		.byte	0x53
 1881 0016 0B000000 		.4byte	.LVL3-1
ARM GAS  /tmp/ccXmVgDX.s 			page 34


 1882 001a 0C000000 		.4byte	.LFE328
 1883 001e 0400     		.2byte	0x4
 1884 0020 F3       		.byte	0xf3
 1885 0021 01       		.uleb128 0x1
 1886 0022 50       		.byte	0x50
 1887 0023 9F       		.byte	0x9f
 1888 0024 00000000 		.4byte	0
 1889 0028 00000000 		.4byte	0
 1890              	.LLST1:
 1891 002c 00000000 		.4byte	.LVL0
 1892 0030 08000000 		.4byte	.LVL2
 1893 0034 0100     		.2byte	0x1
 1894 0036 51       		.byte	0x51
 1895 0037 08000000 		.4byte	.LVL2
 1896 003b 0C000000 		.4byte	.LFE328
 1897 003f 0400     		.2byte	0x4
 1898 0041 F3       		.byte	0xf3
 1899 0042 01       		.uleb128 0x1
 1900 0043 51       		.byte	0x51
 1901 0044 9F       		.byte	0x9f
 1902 0045 00000000 		.4byte	0
 1903 0049 00000000 		.4byte	0
 1904              	.LLST2:
 1905 004d 00000000 		.4byte	.LVL4
 1906 0051 06000000 		.4byte	.LVL5
 1907 0055 0100     		.2byte	0x1
 1908 0057 50       		.byte	0x50
 1909 0058 06000000 		.4byte	.LVL5
 1910 005c 0B000000 		.4byte	.LVL7-1
 1911 0060 0100     		.2byte	0x1
 1912 0062 53       		.byte	0x53
 1913 0063 0B000000 		.4byte	.LVL7-1
 1914 0067 0C000000 		.4byte	.LFE329
 1915 006b 0400     		.2byte	0x4
 1916 006d F3       		.byte	0xf3
 1917 006e 01       		.uleb128 0x1
 1918 006f 50       		.byte	0x50
 1919 0070 9F       		.byte	0x9f
 1920 0071 00000000 		.4byte	0
 1921 0075 00000000 		.4byte	0
 1922              	.LLST3:
 1923 0079 00000000 		.4byte	.LVL4
 1924 007d 08000000 		.4byte	.LVL6
 1925 0081 0100     		.2byte	0x1
 1926 0083 51       		.byte	0x51
 1927 0084 08000000 		.4byte	.LVL6
 1928 0088 0C000000 		.4byte	.LFE329
 1929 008c 0400     		.2byte	0x4
 1930 008e F3       		.byte	0xf3
 1931 008f 01       		.uleb128 0x1
 1932 0090 51       		.byte	0x51
 1933 0091 9F       		.byte	0x9f
 1934 0092 00000000 		.4byte	0
 1935 0096 00000000 		.4byte	0
 1936              		.section	.debug_aranges,"",%progbits
 1937 0000 4C000000 		.4byte	0x4c
 1938 0004 0200     		.2byte	0x2
ARM GAS  /tmp/ccXmVgDX.s 			page 35


 1939 0006 00000000 		.4byte	.Ldebug_info0
 1940 000a 04       		.byte	0x4
 1941 000b 00       		.byte	0
 1942 000c 0000     		.2byte	0
 1943 000e 0000     		.2byte	0
 1944 0010 00000000 		.4byte	.LFB323
 1945 0014 28000000 		.4byte	.LFE323-.LFB323
 1946 0018 00000000 		.4byte	.LFB324
 1947 001c 18000000 		.4byte	.LFE324-.LFB324
 1948 0020 00000000 		.4byte	.LFB325
 1949 0024 18000000 		.4byte	.LFE325-.LFB325
 1950 0028 00000000 		.4byte	.LFB326
 1951 002c 10000000 		.4byte	.LFE326-.LFB326
 1952 0030 00000000 		.4byte	.LFB327
 1953 0034 0C000000 		.4byte	.LFE327-.LFB327
 1954 0038 00000000 		.4byte	.LFB328
 1955 003c 0C000000 		.4byte	.LFE328-.LFB328
 1956 0040 00000000 		.4byte	.LFB329
 1957 0044 0C000000 		.4byte	.LFE329-.LFB329
 1958 0048 00000000 		.4byte	0
 1959 004c 00000000 		.4byte	0
 1960              		.section	.debug_ranges,"",%progbits
 1961              	.Ldebug_ranges0:
 1962 0000 00000000 		.4byte	.LFB323
 1963 0004 28000000 		.4byte	.LFE323
 1964 0008 00000000 		.4byte	.LFB324
 1965 000c 18000000 		.4byte	.LFE324
 1966 0010 00000000 		.4byte	.LFB325
 1967 0014 18000000 		.4byte	.LFE325
 1968 0018 00000000 		.4byte	.LFB326
 1969 001c 10000000 		.4byte	.LFE326
 1970 0020 00000000 		.4byte	.LFB327
 1971 0024 0C000000 		.4byte	.LFE327
 1972 0028 00000000 		.4byte	.LFB328
 1973 002c 0C000000 		.4byte	.LFE328
 1974 0030 00000000 		.4byte	.LFB329
 1975 0034 0C000000 		.4byte	.LFE329
 1976 0038 00000000 		.4byte	0
 1977 003c 00000000 		.4byte	0
 1978              		.section	.debug_line,"",%progbits
 1979              	.Ldebug_line0:
 1980 0000 BE020000 		.section	.debug_str,"MS",%progbits,1
 1980      02003A02 
 1980      00000201 
 1980      FB0E0D00 
 1980      01010101 
 1981              	.LASF53:
 1982 0000 72656164 		.ascii	"ready_list_t\000"
 1982      795F6C69 
 1982      73745F74 
 1982      00
 1983              	.LASF2:
 1984 000d 73697A65 		.ascii	"size_t\000"
 1984      5F7400
 1985              	.LASF59:
 1986 0014 64656C74 		.ascii	"delta\000"
 1986      6100
ARM GAS  /tmp/ccXmVgDX.s 			page 36


 1987              	.LASF92:
 1988 001a 7264796D 		.ascii	"rdymsg\000"
 1988      736700
 1989              	.LASF17:
 1990 0021 75696E74 		.ascii	"uint64_t\000"
 1990      36345F74 
 1990      00
 1991              	.LASF72:
 1992 002a 6B65726E 		.ascii	"kernel_stats\000"
 1992      656C5F73 
 1992      74617473 
 1992      00
 1993              	.LASF3:
 1994 0037 5F5F7569 		.ascii	"__uint8_t\000"
 1994      6E74385F 
 1994      7400
 1995              	.LASF52:
 1996 0041 70726576 		.ascii	"prev\000"
 1996      00
 1997              	.LASF79:
 1998 0046 706F7274 		.ascii	"port_intctx\000"
 1998      5F696E74 
 1998      63747800 
 1999              	.LASF51:
 2000 0052 63685F74 		.ascii	"ch_threads_queue\000"
 2000      68726561 
 2000      64735F71 
 2000      75657565 
 2000      00
 2001              	.LASF64:
 2002 0063 73797374 		.ascii	"system_debug_t\000"
 2002      656D5F64 
 2002      65627567 
 2002      5F7400
 2003              	.LASF83:
 2004 0072 776F7273 		.ascii	"worst\000"
 2004      7400
 2005              	.LASF86:
 2006 0078 74696D65 		.ascii	"time_measurement_t\000"
 2006      5F6D6561 
 2006      73757265 
 2006      6D656E74 
 2006      5F7400
 2007              	.LASF13:
 2008 008b 6C6F6E67 		.ascii	"long long unsigned int\000"
 2008      206C6F6E 
 2008      6720756E 
 2008      7369676E 
 2008      65642069 
 2009              	.LASF93:
 2010 00a2 65786974 		.ascii	"exitcode\000"
 2010      636F6465 
 2010      00
 2011              	.LASF71:
 2012 00ab 6D61696E 		.ascii	"mainthread\000"
 2012      74687265 
 2012      616400
ARM GAS  /tmp/ccXmVgDX.s 			page 37


 2013              	.LASF96:
 2014 00b6 73656E74 		.ascii	"sentmsg\000"
 2014      6D736700 
 2015              	.LASF61:
 2016 00be 76697274 		.ascii	"virtual_timers_list_t\000"
 2016      75616C5F 
 2016      74696D65 
 2016      72735F6C 
 2016      6973745F 
 2017              	.LASF118:
 2018 00d4 49544D5F 		.ascii	"ITM_RxBuffer\000"
 2018      52784275 
 2018      66666572 
 2018      00
 2019              	.LASF106:
 2020 00e1 57494E52 		.ascii	"WINR\000"
 2020      00
 2021              	.LASF49:
 2022 00e6 6E657874 		.ascii	"next\000"
 2022      00
 2023              	.LASF19:
 2024 00eb 72747469 		.ascii	"rttime_t\000"
 2024      6D655F74 
 2024      00
 2025              	.LASF116:
 2026 00f4 7761735F 		.ascii	"was_watchdog_reset\000"
 2026      77617463 
 2026      68646F67 
 2026      5F726573 
 2026      657400
 2027              	.LASF124:
 2028 0107 6765745F 		.ascii	"get_rtc_backup\000"
 2028      7274635F 
 2028      6261636B 
 2028      757000
 2029              	.LASF11:
 2030 0116 6C6F6E67 		.ascii	"long long int\000"
 2030      206C6F6E 
 2030      6720696E 
 2030      7400
 2031              	.LASF1:
 2032 0124 7369676E 		.ascii	"signed char\000"
 2032      65642063 
 2032      68617200 
 2033              	.LASF120:
 2034 0130 2E2E2F2E 		.ascii	"../../libraries/AP_HAL_ChibiOS/hwdef/common/watchdo"
 2034      2E2F6C69 
 2034      62726172 
 2034      6965732F 
 2034      41505F48 
 2035 0163 672E6300 		.ascii	"g.c\000"
 2036              	.LASF109:
 2037 0167 73746D33 		.ascii	"stm32_watchdog_pat\000"
 2037      325F7761 
 2037      74636864 
 2037      6F675F70 
 2037      617400
ARM GAS  /tmp/ccXmVgDX.s 			page 38


 2038              	.LASF70:
 2039 017a 76746C69 		.ascii	"vtlist\000"
 2039      737400
 2040              	.LASF87:
 2041 0181 6E5F6972 		.ascii	"n_irq\000"
 2041      7100
 2042              	.LASF39:
 2043 0187 6D736771 		.ascii	"msgqueue\000"
 2043      75657565 
 2043      00
 2044              	.LASF35:
 2045 0190 73746174 		.ascii	"state\000"
 2045      6500
 2046              	.LASF8:
 2047 0196 6C6F6E67 		.ascii	"long int\000"
 2047      20696E74 
 2047      00
 2048              	.LASF21:
 2049 019f 74737461 		.ascii	"tstate_t\000"
 2049      74655F74 
 2049      00
 2050              	.LASF60:
 2051 01a8 66756E63 		.ascii	"func\000"
 2051      00
 2052              	.LASF44:
 2053 01ad 73746174 		.ascii	"stats\000"
 2053      7300
 2054              	.LASF9:
 2055 01b3 5F5F7569 		.ascii	"__uint32_t\000"
 2055      6E743332 
 2055      5F7400
 2056              	.LASF76:
 2057 01be 72656761 		.ascii	"regarm_t\000"
 2057      726D5F74 
 2057      00
 2058              	.LASF117:
 2059 01c7 77617463 		.ascii	"watchdog_enabled\000"
 2059      68646F67 
 2059      5F656E61 
 2059      626C6564 
 2059      00
 2060              	.LASF65:
 2061 01d8 63685F73 		.ascii	"ch_system_debug\000"
 2061      79737465 
 2061      6D5F6465 
 2061      62756700 
 2062              	.LASF38:
 2063 01e8 77616974 		.ascii	"waiting\000"
 2063      696E6700 
 2064              	.LASF104:
 2065 01f0 6D757465 		.ascii	"mutex_t\000"
 2065      785F7400 
 2066              	.LASF74:
 2067 01f8 73797369 		.ascii	"sysinterval_t\000"
 2067      6E746572 
 2067      76616C5F 
 2067      7400
ARM GAS  /tmp/ccXmVgDX.s 			page 39


 2068              	.LASF26:
 2069 0206 636E745F 		.ascii	"cnt_t\000"
 2069      7400
 2070              	.LASF0:
 2071 020c 756E7369 		.ascii	"unsigned int\000"
 2071      676E6564 
 2071      20696E74 
 2071      00
 2072              	.LASF119:
 2073 0219 474E5520 		.ascii	"GNU C 4.9.3 20150529 (prerelease) -mcpu=cortex-m4 -"
 2073      4320342E 
 2073      392E3320 
 2073      32303135 
 2073      30353239 
 2074 024c 6D666C6F 		.ascii	"mfloat-abi=hard -mfpu=fpv4-sp-d16 -mno-thumb-interw"
 2074      61742D61 
 2074      62693D68 
 2074      61726420 
 2074      2D6D6670 
 2075 027f 6F726B20 		.ascii	"ork -mthumb -g -Os -fomit-frame-pointer -falign-fun"
 2075      2D6D7468 
 2075      756D6220 
 2075      2D67202D 
 2075      4F73202D 
 2076 02b2 6374696F 		.ascii	"ctions=16 -ffunction-sections -fdata-sections -fno-"
 2076      6E733D31 
 2076      36202D66 
 2076      66756E63 
 2076      74696F6E 
 2077 02e5 636F6D6D 		.ascii	"common -fsingle-precision-constant\000"
 2077      6F6E202D 
 2077      6673696E 
 2077      676C652D 
 2077      70726563 
 2078              	.LASF97:
 2079 0308 77747365 		.ascii	"wtsemp\000"
 2079      6D7000
 2080              	.LASF95:
 2081 030f 77747472 		.ascii	"wttrp\000"
 2081      7000
 2082              	.LASF29:
 2083 0315 71756575 		.ascii	"queue\000"
 2083      6500
 2084              	.LASF43:
 2085 031b 6D706F6F 		.ascii	"mpool\000"
 2085      6C00
 2086              	.LASF112:
 2087 0321 64617461 		.ascii	"data\000"
 2087      00
 2088              	.LASF6:
 2089 0326 73686F72 		.ascii	"short unsigned int\000"
 2089      7420756E 
 2089      7369676E 
 2089      65642069 
 2089      6E7400
 2090              	.LASF91:
 2091 0339 6B65726E 		.ascii	"kernel_stats_t\000"
ARM GAS  /tmp/ccXmVgDX.s 			page 40


 2091      656C5F73 
 2091      74617473 
 2091      5F7400
 2092              	.LASF33:
 2093 0348 6E616D65 		.ascii	"name\000"
 2093      00
 2094              	.LASF47:
 2095 034d 63685F74 		.ascii	"ch_thread\000"
 2095      68726561 
 2095      6400
 2096              	.LASF24:
 2097 0357 6D73675F 		.ascii	"msg_t\000"
 2097      7400
 2098              	.LASF84:
 2099 035d 6C617374 		.ascii	"last\000"
 2099      00
 2100              	.LASF27:
 2101 0362 75636E74 		.ascii	"ucnt_t\000"
 2101      5F7400
 2102              	.LASF40:
 2103 0369 6570656E 		.ascii	"epending\000"
 2103      64696E67 
 2103      00
 2104              	.LASF67:
 2105 0372 63685F73 		.ascii	"ch_system_t\000"
 2105      79737465 
 2105      6D5F7400 
 2106              	.LASF115:
 2107 037e 73746D33 		.ascii	"stm32_watchdog_load\000"
 2107      325F7761 
 2107      74636864 
 2107      6F675F6C 
 2107      6F616400 
 2108              	.LASF20:
 2109 0392 746D6F64 		.ascii	"tmode_t\000"
 2109      655F7400 
 2110              	.LASF113:
 2111 039a 6E776F72 		.ascii	"nwords\000"
 2111      647300
 2112              	.LASF90:
 2113 03a1 6D5F6372 		.ascii	"m_crit_isr\000"
 2113      69745F69 
 2113      737200
 2114              	.LASF54:
 2115 03ac 63685F72 		.ascii	"ch_ready_list\000"
 2115      65616479 
 2115      5F6C6973 
 2115      7400
 2116              	.LASF25:
 2117 03ba 6576656E 		.ascii	"eventmask_t\000"
 2117      746D6173 
 2117      6B5F7400 
 2118              	.LASF7:
 2119 03c6 5F5F696E 		.ascii	"__int32_t\000"
 2119      7433325F 
 2119      7400
 2120              	.LASF110:
ARM GAS  /tmp/ccXmVgDX.s 			page 41


 2121 03d0 73746D33 		.ascii	"stm32_watchdog_save_reason\000"
 2121      325F7761 
 2121      74636864 
 2121      6F675F73 
 2121      6176655F 
 2122              	.LASF77:
 2123 03eb 73746B61 		.ascii	"stkalign_t\000"
 2123      6C69676E 
 2123      5F7400
 2124              	.LASF31:
 2125 03f6 6E657765 		.ascii	"newer\000"
 2125      7200
 2126              	.LASF42:
 2127 03fc 7265616C 		.ascii	"realprio\000"
 2127      7072696F 
 2127      00
 2128              	.LASF75:
 2129 0405 73697A65 		.ascii	"sizetype\000"
 2129      74797065 
 2129      00
 2130              	.LASF45:
 2131 040e 74687265 		.ascii	"thread_reference_t\000"
 2131      61645F72 
 2131      65666572 
 2131      656E6365 
 2131      5F7400
 2132              	.LASF62:
 2133 0421 63685F76 		.ascii	"ch_virtual_timers_list\000"
 2133      69727475 
 2133      616C5F74 
 2133      696D6572 
 2133      735F6C69 
 2134              	.LASF107:
 2135 0438 49574447 		.ascii	"IWDG_Regs\000"
 2135      5F526567 
 2135      7300
 2136              	.LASF78:
 2137 0442 706F7274 		.ascii	"port_context\000"
 2137      5F636F6E 
 2137      74657874 
 2137      00
 2138              	.LASF81:
 2139 044f 746D5F63 		.ascii	"tm_calibration_t\000"
 2139      616C6962 
 2139      72617469 
 2139      6F6E5F74 
 2139      00
 2140              	.LASF30:
 2141 0460 7072696F 		.ascii	"prio\000"
 2141      00
 2142              	.LASF55:
 2143 0465 63757272 		.ascii	"current\000"
 2143      656E7400 
 2144              	.LASF12:
 2145 046d 5F5F7569 		.ascii	"__uint64_t\000"
 2145      6E743634 
 2145      5F7400
ARM GAS  /tmp/ccXmVgDX.s 			page 42


 2146              	.LASF85:
 2147 0478 63756D75 		.ascii	"cumulative\000"
 2147      6C617469 
 2147      766500
 2148              	.LASF22:
 2149 0483 74726566 		.ascii	"trefs_t\000"
 2149      735F7400 
 2150              	.LASF37:
 2151 048b 72656673 		.ascii	"refs\000"
 2151      00
 2152              	.LASF57:
 2153 0490 76697274 		.ascii	"virtual_timer_t\000"
 2153      75616C5F 
 2153      74696D65 
 2153      725F7400 
 2154              	.LASF23:
 2155 04a0 74707269 		.ascii	"tprio_t\000"
 2155      6F5F7400 
 2156              	.LASF88:
 2157 04a8 6E5F6374 		.ascii	"n_ctxswc\000"
 2157      78737763 
 2157      00
 2158              	.LASF105:
 2159 04b1 5F426F6F 		.ascii	"_Bool\000"
 2159      6C00
 2160              	.LASF15:
 2161 04b7 696E7433 		.ascii	"int32_t\000"
 2161      325F7400 
 2162              	.LASF4:
 2163 04bf 756E7369 		.ascii	"unsigned char\000"
 2163      676E6564 
 2163      20636861 
 2163      7200
 2164              	.LASF5:
 2165 04cd 73686F72 		.ascii	"short int\000"
 2165      7420696E 
 2165      7400
 2166              	.LASF63:
 2167 04d7 6C617374 		.ascii	"lasttime\000"
 2167      74696D65 
 2167      00
 2168              	.LASF99:
 2169 04e0 65776D61 		.ascii	"ewmask\000"
 2169      736B00
 2170              	.LASF68:
 2171 04e7 63685F73 		.ascii	"ch_system\000"
 2171      79737465 
 2171      6D00
 2172              	.LASF123:
 2173 04f1 7365745F 		.ascii	"set_rtc_backup\000"
 2173      7274635F 
 2173      6261636B 
 2173      757000
 2174              	.LASF122:
 2175 0500 73746D33 		.ascii	"stm32_was_watchdog_reset\000"
 2175      325F7761 
 2175      735F7761 
ARM GAS  /tmp/ccXmVgDX.s 			page 43


 2175      74636864 
 2175      6F675F72 
 2176              	.LASF58:
 2177 0519 63685F76 		.ascii	"ch_virtual_timer\000"
 2177      69727475 
 2177      616C5F74 
 2177      696D6572 
 2177      00
 2178              	.LASF111:
 2179 052a 73746D33 		.ascii	"stm32_watchdog_clear_reason\000"
 2179      325F7761 
 2179      74636864 
 2179      6F675F63 
 2179      6C656172 
 2180              	.LASF100:
 2181 0546 63685F73 		.ascii	"ch_semaphore\000"
 2181      656D6170 
 2181      686F7265 
 2181      00
 2182              	.LASF16:
 2183 0553 75696E74 		.ascii	"uint32_t\000"
 2183      33325F74 
 2183      00
 2184              	.LASF98:
 2185 055c 77746D74 		.ascii	"wtmtxp\000"
 2185      787000
 2186              	.LASF48:
 2187 0563 63685F74 		.ascii	"ch_threads_list\000"
 2187      68726561 
 2187      64735F6C 
 2187      69737400 
 2188              	.LASF102:
 2189 0573 6F776E65 		.ascii	"owner\000"
 2189      7200
 2190              	.LASF10:
 2191 0579 6C6F6E67 		.ascii	"long unsigned int\000"
 2191      20756E73 
 2191      69676E65 
 2191      6420696E 
 2191      7400
 2192              	.LASF34:
 2193 058b 77616261 		.ascii	"wabase\000"
 2193      736500
 2194              	.LASF103:
 2195 0592 63686172 		.ascii	"char\000"
 2195      00
 2196              	.LASF32:
 2197 0597 6F6C6465 		.ascii	"older\000"
 2197      7200
 2198              	.LASF108:
 2199 059d 73746D33 		.ascii	"stm32_watchdog_init\000"
 2199      325F7761 
 2199      74636864 
 2199      6F675F69 
 2199      6E697400 
 2200              	.LASF28:
 2201 05b1 74687265 		.ascii	"thread_t\000"
ARM GAS  /tmp/ccXmVgDX.s 			page 44


 2201      61645F74 
 2201      00
 2202              	.LASF82:
 2203 05ba 62657374 		.ascii	"best\000"
 2203      00
 2204              	.LASF73:
 2205 05bf 73797374 		.ascii	"systime_t\000"
 2205      696D655F 
 2205      7400
 2206              	.LASF56:
 2207 05c9 76746675 		.ascii	"vtfunc_t\000"
 2207      6E635F74 
 2207      00
 2208              	.LASF66:
 2209 05d2 70616E69 		.ascii	"panic_msg\000"
 2209      635F6D73 
 2209      6700
 2210              	.LASF80:
 2211 05dc 6F666673 		.ascii	"offset\000"
 2211      657400
 2212              	.LASF121:
 2213 05e3 2F686F6D 		.ascii	"/home/kozinalexey/f4by/ardupilot/build/F4BY\000"
 2213      652F6B6F 
 2213      7A696E61 
 2213      6C657865 
 2213      792F6634 
 2214              	.LASF18:
 2215 060f 7274636E 		.ascii	"rtcnt_t\000"
 2215      745F7400 
 2216              	.LASF50:
 2217 0617 74687265 		.ascii	"threads_queue_t\000"
 2217      6164735F 
 2217      71756575 
 2217      655F7400 
 2218              	.LASF101:
 2219 0627 63685F6D 		.ascii	"ch_mutex\000"
 2219      75746578 
 2219      00
 2220              	.LASF69:
 2221 0630 726C6973 		.ascii	"rlist\000"
 2221      7400
 2222              	.LASF14:
 2223 0636 75696E74 		.ascii	"uint8_t\000"
 2223      385F7400 
 2224              	.LASF36:
 2225 063e 666C6167 		.ascii	"flags\000"
 2225      7300
 2226              	.LASF94:
 2227 0644 77746F62 		.ascii	"wtobjp\000"
 2227      6A7000
 2228              	.LASF46:
 2229 064b 74687265 		.ascii	"threads_list_t\000"
 2229      6164735F 
 2229      6C697374 
 2229      5F7400
 2230              	.LASF114:
 2231 065a 73746D33 		.ascii	"stm32_watchdog_save\000"
ARM GAS  /tmp/ccXmVgDX.s 			page 45


 2231      325F7761 
 2231      74636864 
 2231      6F675F73 
 2231      61766500 
 2232              	.LASF41:
 2233 066e 6D74786C 		.ascii	"mtxlist\000"
 2233      69737400 
 2234              	.LASF89:
 2235 0676 6D5F6372 		.ascii	"m_crit_thd\000"
 2235      69745F74 
 2235      686400
 2236              		.ident	"GCC: (15:4.9.3+svn231177-1) 4.9.3 20150529 (prerelease)"
ARM GAS  /tmp/ccXmVgDX.s 			page 46


DEFINED SYMBOLS
                            *ABS*:0000000000000000 watchdog.c
     /tmp/ccXmVgDX.s:21     .text.stm32_watchdog_init:0000000000000000 $t
     /tmp/ccXmVgDX.s:26     .text.stm32_watchdog_init:0000000000000000 stm32_watchdog_init
     /tmp/ccXmVgDX.s:55     .text.stm32_watchdog_init:0000000000000020 $d
     /tmp/ccXmVgDX.s:61     .text.stm32_watchdog_pat:0000000000000000 $t
     /tmp/ccXmVgDX.s:66     .text.stm32_watchdog_pat:0000000000000000 stm32_watchdog_pat
     /tmp/ccXmVgDX.s:86     .text.stm32_watchdog_pat:0000000000000010 $d
     /tmp/ccXmVgDX.s:92     .text.stm32_watchdog_save_reason:0000000000000000 $t
     /tmp/ccXmVgDX.s:97     .text.stm32_watchdog_save_reason:0000000000000000 stm32_watchdog_save_reason
     /tmp/ccXmVgDX.s:117    .text.stm32_watchdog_save_reason:0000000000000010 $d
     /tmp/ccXmVgDX.s:123    .text.stm32_watchdog_clear_reason:0000000000000000 $t
     /tmp/ccXmVgDX.s:128    .text.stm32_watchdog_clear_reason:0000000000000000 stm32_watchdog_clear_reason
     /tmp/ccXmVgDX.s:143    .text.stm32_watchdog_clear_reason:000000000000000c $d
     /tmp/ccXmVgDX.s:148    .text.stm32_was_watchdog_reset:0000000000000000 $t
     /tmp/ccXmVgDX.s:153    .text.stm32_was_watchdog_reset:0000000000000000 stm32_was_watchdog_reset
     /tmp/ccXmVgDX.s:167    .text.stm32_was_watchdog_reset:0000000000000008 $d
     /tmp/ccXmVgDX.s:172    .text.stm32_watchdog_save:0000000000000000 $t
     /tmp/ccXmVgDX.s:177    .text.stm32_watchdog_save:0000000000000000 stm32_watchdog_save
     /tmp/ccXmVgDX.s:199    .text.stm32_watchdog_load:0000000000000000 $t
     /tmp/ccXmVgDX.s:204    .text.stm32_watchdog_load:0000000000000000 stm32_watchdog_load
     /tmp/ccXmVgDX.s:229    .bss.was_watchdog_reset:0000000000000000 was_watchdog_reset
     /tmp/ccXmVgDX.s:230    .bss.was_watchdog_reset:0000000000000000 $d
     /tmp/ccXmVgDX.s:235    .bss.watchdog_enabled:0000000000000000 watchdog_enabled
     /tmp/ccXmVgDX.s:236    .bss.watchdog_enabled:0000000000000000 $d
                     .debug_frame:0000000000000010 $d

UNDEFINED SYMBOLS
set_rtc_backup
get_rtc_backup
